Kc:_glClearStencil
Rne:_Array_InternalArray__ICollection_Add_TisMark_t2724874473_m1613484179_gshared
RVh:__ZL80Graphic_t2426225576_CustomAttributesCacheGenerator_Graphic_OnFillVBO_m1723985607P21CustomAttributesCache
Q0f:_RuntimeTypeHandle_GetObjectData_m3567098501
F0j:__ZN6il2cpp2vm5Array13GetByteLengthEP11Il2CppArray
Zgi:_Raycast3DCallback_BeginInvoke_m3028685017
bPg:__Z79RuntimeInvoker_RuntimeObject_Int64_t909078037_Int64_t909078037_Int64_t909078037PFvvEPK10MethodInfoPvPS4_
iph:__ZL61IRemotingFormatter_t4112065742_CustomAttributesCacheGeneratorP21CustomAttributesCache
v7i:_TextGenerator_get_lineCount_m4287181941
Kfd:__ZN15DownloadHandler7OnAbortEv
Rsj:_Comparison_1_Invoke_m353639462_gshared
prg:_UInt64_System_IConvertible_ToDecimal_m4205696037
$H:__ZN10StateRange8TransferI14SafeBinaryReadEEvRT_
uPa:__Z21SourceMipLevelForBlitiiii
itb:__ZN31CanvasBatchIntermediateRenderer15AddAsRenderNodeER15RenderNodeQueueRK20DeprecatedSourceData
Y8f:_GenericTypeParameterBuilder_GetEvent_m4210567427
UGg:_Playable__ctor_m2954384102
c1d:_Enumerator_get_Key_m2908810861
LI:__ZN15SerializeTraitsIN7mecanim6bitsetILj70EEEE8TransferI14SafeBinaryReadEEvRS2_RT_
jcd:__ZN11UnityEngine7Connect14AppUpdateEventD0Ev
ori:_AnimatorControllerPlayable_SetBool_m1780824884_AdjustorThunk
Cch:__Z35RuntimeInvoker_UIVertex_t1204258818PFvvEPK10MethodInfoPvPS4_
w5:__ZdlPv
SM:__ZN23AnimationOffsetPlayable11SetRotationE11Quaternionf
hw:__ZN11UnityEngine9Animation28GenericAnimationBindingCacheD2Ev
Spi:_AnimationOffsetPlayable_op_Explicit_m363086289
pph:__ZL68RemotingSurrogateSelector_t2821375126_CustomAttributesCacheGeneratorP21CustomAttributesCache
Ndi:_EqualityComparer_1__cctor_m968537130_gshared
rTe:_List_1_System_Collections_IList_IndexOf_m39706221_gshared
yij:_UnityEvent_1_RemoveListener_m219620396_gshared
K7h:_Dictionary_2_Remove_m1849931834_gshared
H3d:_Decimal_op_Implicit_m2971610317
$Fd:_Graphic_UnregisterDirtyVerticesCallback_m1526739224
xfb:__Z18RestoreRenderStateR20CameraRenderOldStateR17ShaderPassContext
JYd:_SynchronizedArrayListWrapper_get_Item_m3309425850
yVb:__Z18Transfer_BlittableI18StreamedBinaryReadILb1EELb1E5RectTIfEEvRK29SerializationCommandArgumentsR31RuntimeSerializationCommandInfo
ORb:__Z18Transfer_BlittableI24GenerateTypeTreeTransferLb0E11ColorRGBA32EvRK29SerializationCommandArgumentsR31RuntimeSerializationCommandInfo
Iba:__Z25scripting_class_from_name17ScriptingImagePtrPKcS1_
wt:__ZNSt3__26vectorIN13AnimationClip10FloatCurveE13stl_allocatorIS2_L18MemLabelIdentifier25ELi16EEE6resizeEj
IKb:__Z29scripting_class_enum_basetype17ScriptingClassPtr
wVi:__ZN21InterfaceFuncInvoker3IP12Il2CppObjectP8String_tS1_PS3_E6InvokeEjP11Il2CppClassS1_S3_S1_S4_
Nzh:__ZL80Enumerable_t2148412300_CustomAttributesCacheGenerator_Enumerable_Any_m1395534165P21CustomAttributesCache
sJd:_GraphicRaycaster_get_ignoreReversedGraphics_m2757724367
H_g:__Z111RuntimeInvoker_Void_t1841601450_Vector4_t2243707581_Vector4_t2243707581_Vector4_t2243707581_Vector4_t2243707581PFvvEPK10MethodInfoPvPS4_
zqb:__ZNK12BaseRenderer18GetRenderNodeCountEv
lNc:__ZN16PhysicsManager2D7RaycastERK3RayfiR12RaycastHit2D
J9f:_GenericTypeParameterBuilder_GetHashCode_m867619899
wng:_TimeSpan_ToString_m2947282901
edi:_EqualityComparer_1__cctor_m3397254040_gshared
Rla:__ZNK20LocalFileSystemPosix6ParentERK13FileEntryDataRN4core12basic_stringIcNS3_20StringStorageDefaultIcEEEE
lNj:__ZN15dense_hashtableINSt3__24pairIK10KeyWrapperINS1_IPK9EventInfoP11Il2CppClassEEEjEES9_17ReflectionMapHashIS8_EN14dense_hash_mapIS9_jSD_NS9_14EqualsComparerINS0_8equal_toIS8_EEEENS0_9allocatorISB_EEE9SelectKeyESI_SK_E4swapERSN_
KJg:_RaycastHit2D_get_distance_m4065977169
p7i:_TextGenerator_get_verts_m3124035267
uNe:_MonoType_CheckMethodSecurity_m4116906190
W9i:_Vector2_get_one_m3174311904
jte:_Array_Sort_TisVector2_t2243707579_m1307634946_gshared
_Ea:__ZN17PersistentManager22CheckInstanceIDsLoadedEPii
oNa:__ZN7ApiGLES17CopyBufferSubDataEjjlll
Cub:__ZNK20ScriptPlayableOutput7GetTypeEv
YEh:__ZL99Sprite_t309593783_CustomAttributesCacheGenerator_Sprite_get_associatedAlphaSplitTexture_m3617241169P21CustomAttributesCache
Qwj:__ZNSt3__26vectorIPK10Il2CppTypeNS_9allocatorIS3_EEE7reserveEj
Ntj:_U3CCreateWhereIteratorU3Ec__Iterator1D_1_Reset_m1773515612_gshared
V6a:__ZN25CameraStackRenderingState20GetOrCreateBuiltinRTE24BuiltinRenderTextureTypeii17DepthBufferFormat19RenderTextureFormatj22RenderTextureReadWrite14VRTextureUsagei
WMd:_InputField_get_caretPosition_m1005871812
l6h:_Dictionary_2__ctor_m3111963761_gshared
clj:_AesManaged_CreateEncryptor_m1729287824
DBb:__ZNK14Texture2DArray26CanReuploadDataToGfxDeviceEv
zbb:__ZN17PrePassRenderLoop14RenderBasePassEP13RenderTextureRK14LightingLayersR13dynamic_arrayI16RenderObjectDataLj4EERbR10MinMaxAABB
Dpb:__ZN17GlobalGameManager23VirtualRedirectTransferER17RemapPPtrTransfer
CZc:_sfnt_stream_close
DId:_GraphicRegistry_RegisterGraphicForCanvas_m2284226562
OVd:_Char_System_IConvertible_ToInt16_m2741348777_AdjustorThunk
Cuc:__ZN5IMGUI18RepaintModalWindowER8GUIState
Cqj:__ZL25UnresolvedVirtualCall_129P12Il2CppObject17Color_t2020392075PK10MethodInfo
_Hd:_FontData_get_verticalOverflow_m83665814
kff:_ReadOnlyCollection_1_System_Collections_Generic_IListU3CTU3E_set_Item_m1547026160_gshared
Dih:__ZL61MarshalAsAttribute_t2900773360_CustomAttributesCacheGeneratorP21CustomAttributesCache
iAb:__Z23SetSpriteMeshIndexCountP14SharedMeshDataj
ipa:__ZN7Texture13SetFilterModeEi
tkc:__Z46Register_UnityEngine_Application_get_isPlayingv
D2j:__ZN6il2cpp8metadata13GenericMethod9GetMethodEPK19Il2CppGenericMethod
Nq:__ZNSt3__26vectorIN4core12basic_stringIcNS1_20StringStorageDefaultIcEEEENS_9allocatorIS5_EEE7reserveEj
e6d:_Convert_ToUInt16_m2130758075
OLj:__ZN15dense_hashtableINSt3__24pairIK10KeyWrapperINS1_IPK11Il2CppImageP11Il2CppClassEEEjEES9_17ReflectionMapHashIS8_EN14dense_hash_mapIS9_jSD_NS9_14EqualsComparerINS0_8equal_toIS8_EEEENS0_9allocatorISB_EEE9SelectKeyESI_SK_E3endEv
A0g:__Z132RuntimeInvoker_Void_t1841601450_RuntimeObject_AnimatorStateInfo_t2577870592_Int32_t2071877448_AnimatorControllerPlayable_t1744083903PFvvEPK10MethodInfoPvPS4_
VPf:_X509BasicConstraintsExtension_Encode_m3505127076
eIa:__ZN13GfxDeviceGLES11SetViewportERK5RectTIiE
ZKd:_Image_get_pixelsPerUnit_m4104195799
uni:_Toggle_InternalToggle_m2323729210
X9d:_Decimal_System_IConvertible_ToInt64_m2504363272
Zrc:__Z24Time_Get_Custom_PropTimev
SQd:_Array_GetValue_m3182152438
ae:_emscripten_glDepthRange
Q2f:_DESTransform_CipherFunct_m3559419566
csg:_UIntPtr_get_Size_m537421489
Hkd:_Rijndael_Create_m113171669
vwg:_GUILayoutGroup_CalcWidth_m4107152934
t0f:_RuntimeFieldHandle_get_Value_m3963757144
a$b:__Z14resize_trimmedINSt3__26vectorIN9ShaderLab20SerializedSubProgram12UAVParameterENS0_9allocatorIS4_EEEEEvRT_j
SXf:_SerializationInfo_AddValue_m1781549036
cah:__Z59RuntimeInvoker_Void_t1841601450_PlayableBinding_t2498078091PFvvEPK10MethodInfoPvPS4_
wpi:_AnimationLayerMixerPlayable_SetLayerMaskFromAvatarMask_m2582039992_AdjustorThunk
JDf:_TlsServerKeyExchange_verifySignature_m3641534563
Zgc:__ZN13BuildSettings34ConvertScenePathToDisplayScenePathERKN4core12basic_stringIcNS0_20StringStorageDefaultIcEEEE
mbf:_Collection_1_Clear_m445145071_gshared
Ili:_Slider_FindSelectableOnLeft_m3136767885
UOa:__ZN4crndL20crnd_default_reallocEPvjPjbS0_
KId:__ZN21InterfaceFuncInvoker1IP19Material_t193706927S1_E6InvokeEjP11Il2CppClassP12Il2CppObjectS1_
Lke:_Array_BinarySearch_TisInt32_t2071877448_m51233948_gshared
Fjk:__ZNSt3__212basic_stringIcNS_11char_traitsIcEENS_9allocatorIcEEEC2ERKS5_
mYf:_ProviderData_CopyFrom_m431414335
Y1g:__Z74RuntimeInvoker_Boolean_t3825574718_Vector2_t2243707579_Vector2_t2243707579PFvvEPK10MethodInfoPvPS4_
$Ab:__ZN18SpriteAtlasManager19AddRequestingSpriteE4PPtrI6SpriteE
Wfc:__ZN16PackedQuatVector9PackQuatsEP11Quaternionfi
Krc:__Z33Texture_CUSTOM_Internal_GetHeightP12Il2CppObject
g8e:_Collection_1_System_Collections_IList_Add_m1953936885_gshared
oPd:_LayoutGroup_get_preferredHeight_m3901163825
sTg:__Z111RuntimeInvoker_Void_t1841601450_RuntimeObject_SByte_t454417549_ObjectU26_t597476745_HeaderU5BU5DU26_t2818328198PFvvEPK10MethodInfoPvPS4_
web:__ZN23ScriptableRenderContextC2Ev
xu:__ZN7mecanim9animation18ClipMuscleConstant8TransferI24GenerateTypeTreeTransferEEvRT_
grb:__ZN4PPtrI13RenderTextureE8TransferI18StreamedBinaryReadILb0EEEEvRT_
Wjc:__Z22InverseTransformVector23TransformAccessReadOnlyRKN4math7_float3E
r3d:_DateTime_AbsoluteDays_m3061694073
z4c:_UNITY_FT_Stream_GetChar
XVb:__Z18Transfer_BlittableI18StreamedBinaryReadILb1EELb1EdEvRK29SerializationCommandArgumentsR31RuntimeSerializationCommandInfo
I1h:_Enumerator_System_Collections_IEnumerator_get_Current_m229223308_gshared
Uzh:__ZL202U3CCreateWhereIteratorU3Ec__Iterator1D_1_t2523986802_CustomAttributesCacheGenerator_U3CCreateWhereIteratorU3Ec__Iterator1D_1_System_Collections_Generic_IEnumerableU3CTSourceU3E_GetEnumerator_m2392330777P21CustomAttributesCache
RKb:__Z26BuildSerializationCacheFor17ScriptingClassPtrRb
CRa:__ZN7ApiGLES15BlitFramebufferEN2gl6HandleILNS0_10ObjectTypeE9EEENS0_15FramebufferReadES3_S3_iiiiiiiiNS0_15FramebufferTypeE
jGj:_il2cpp_class_get_name
EZg:__Z112RuntimeInvoker_RuntimeObject_RuntimeObject_RuntimeObject_RuntimeObject_RuntimeObject_RuntimeObject_RuntimeObjectPFvvEPK10MethodInfoPvPS4_
Inh:__ZL55GCHandleType_t1970708122_CustomAttributesCacheGeneratorP21CustomAttributesCache
nDi:_Event_Init_m3901382626
sYd:_FixedSizeArrayListWrapper_AddRange_m2071800418
_K:__ZN13ProduceHelperI8AnimatorLb0EE7ProduceE18MemLabelIdentifier18ObjectCreationMode
gna:__Z9InitInputv
NUg:__Z85RuntimeInvoker_Boolean_t3825574718_Int64_t909078037_Int64_t909078037_SByte_t454417549PFvvEPK10MethodInfoPvPS4_
r6i:_StateMachineBehaviour_OnStateUpdate_m2021794605
eSe:_Enumerator_VerifyState_m2358705882_AdjustorThunk
MSb:__Z29Transfer_Blittable_ArrayFieldI24GenerateTypeTreeTransfer11ColorRGBA32EvRT_R9ArrayInfoRK23StaticTransferFieldInfo
Yhi:_Selectable_Navigate_m915280351
twf:_AppDomain_getCurDomain_m591611373
Llb:__ZN16MemoryFileSystem6DeleteER13FileEntryDatab
naj:_Vector3_get_normalized_m936072361
DCa:__ZL21BlitScaleStbImageImplRK14ImageReferenceRS_NS_10ColorSpaceE
oKf:_TlsStream_set_Position_m378064217
pJ:__ZN18StreamedBinaryReadILb0EE21TransferSTLStyleArrayI13dynamic_arrayIjLj4EEEEvRT_17TransferMetaFlags
POc:__ZNSt3__26__sortIR31RayHitsByInverseDepthComparitorP12RaycastHit2DEEvT0_S5_T_
hOb:__Z29Transfer_Blittable_ArrayFieldI14SafeBinaryReadyEvRT_R9ArrayInfoRK23StaticTransferFieldInfo
mqj:__ZL25UnresolvedVirtualCall_113P12Il2CppObjectiiiPK10MethodInfo
ZV:__ZN20SoundChannelInstance15setChannelGroupEPN4FMOD12ChannelGroupE
yKj:__ZNK15dense_hashtableINSt3__24pairIK10KeyWrapperINS1_IPK9FieldInfoP11Il2CppClassEEEjEES9_17ReflectionMapHashIS8_EN14dense_hash_mapIS9_jSD_NS9_14EqualsComparerINS0_8equal_toIS8_EEEENS0_9allocatorISB_EEE9SelectKeyESI_SK_E12test_deletedERK24dense_hashtable_iteratorISB_S9_SD_SM_SI_SK_E
Wpd:_Evidence_Equals_m2325859915
T4f:_Default__ctor_m172834064
yc:invoke_vifffii
gUh:__ZL77StandaloneInputModule_t70867863_CustomAttributesCacheGenerator_m_VerticalAxisP21CustomAttributesCache
mYb:__Z35Transfer_Blittable_FixedBufferFieldI18StreamedBinaryReadILb0EEaEvRK29SerializationCommandArgumentsR31RuntimeSerializationCommandInfo
sBi:_Component_GetComponents_m637589504
n0i:_Regex_IsMatch_m2159202025
eYa:__ZNK25MultiBlocksMemoryFileData5CloneEv
g8j:_GC_add_ext_descriptor
c9j:__ZN6il2cpp2os14WindowsRuntime22GetRestrictedErrorInfoEv
pLd:_Image_CalculateLayoutInputHorizontal_m3275149860
gZf:_RemotingServices_GetMethodBaseFromName_m3271095947
WZa:__ZN17ArchiveFileSystem11CreateAsDirER13FileEntryData
Blk:dynCall_iiiiiiiiiiii
fvd:_ASCIIEncoding_GetBytes_m3617160053
BOi:_InternalEnumerator_1_MoveNext_m2289229080_AdjustorThunk
NCf:_CipherSuiteCollection_System_Collections_IList_RemoveAt_m143866082
bM:__ZN26AnimatorControllerPlayable26ParameterControlledByCurveEi
$Ga:__ZN22VertexDeclarationCacheD0Ev
q3b:__ZL26KeywordSetToStringDontSortRKNSt3__26vectorIN4core12basic_stringIcNS1_20StringStorageDefaultIcEEEENS_9allocatorIS5_EEEERS5_
Hxa:__ZN6prcoreL17RemapGenericFloatI16TexFormatRGFloat17TexFormatRGBAHalfEEvPKNS_9InnerInfoE
DQ:__ZN12AudioManager22CreateFMODSoundFromWWWEP10IWWWStream15FMOD_SOUND_TYPE17FMOD_SOUND_FORMATjjbbP10SampleClip
Dac:__ZNK32RendererMaterialAnimationBinding15GenerateBindingERKN4core12basic_stringIcNS0_20StringStorageDefaultIcEEEEbRN11UnityEngine9Animation14GenericBindingE
mMj:__ZN24dense_hashtable_iteratorINSt3__24pairIK10KeyWrapperINS1_IPK11Il2CppImageP11Il2CppClassEEEjEES9_17ReflectionMapHashIS8_EN14dense_hash_mapIS9_jSD_NS9_14EqualsComparerINS0_8equal_toIS8_EEEENS0_9allocatorISB_EEE9SelectKeyESI_SK_E30advance_past_empty_and_deletedEv
pZg:__Z40RuntimeInvoker_HandshakeType_t2540099417PFvvEPK10MethodInfoPvPS4_
HEi:_UnityEventBase_UnityEngine_ISerializationCallbackReceiver_OnBeforeSerialize_m1773826808
Xai:_DefaultComparer_GetHashCode_m361278435_gshared
PEj:__ZNSt3__26vectorIN6il2cpp6icalls8mscorlib6System12PropertyPairENS_9allocatorIS5_EEE21__push_back_slow_pathIS5_EEvOT_
Yaa:__ZN8Remapper23GetOrGenerateInstanceIDERK26SerializedObjectIdentifier
Nt:__ZN17AnimationCurveTplI8Vector3fEC2ERKS1_
fKe:_StreamWriter_Flush_m3426120024
a_a:__ZN17FileSystemHandler10AtomicMoveER13FileEntryDataS1_
ab:invoke_iiiiiifffiiifii
KHe:_MemoryStream__ctor_m1489366847
pqd:_SecurityElement_IsValidTag_m64902195
L1h:_Enumerator_System_Collections_IEnumerator_get_Current_m229223308_AdjustorThunk
Kfg:_PropertyInfo_SetValue_m2961483868
Kvg:_GUILayoutEntry_set_style_m70917293
YYe:_List_1_System_Collections_IList_Contains_m4193366963_gshared
Oij:_UnityEvent_3_FindMethod_Impl_m1889846153_gshared
bWf:_DictionaryEnumerator_get_Value_m1915638953
p5f:_ConstructorInfo_Invoke_m2144827141
OFh:__ZL82Object_t1021602117_CustomAttributesCacheGenerator_Object_get_hideFlags_m4158950869P21CustomAttributesCache
vAb:__ZN6Sprite8TransferI24GenerateTypeTreeTransferEEvRT_
Usc:__Z48Register_UnityEngine_Transform_SetAsFirstSiblingv
Vtg:_Font_get_fontSize_m1732593415
yAb:__ZN7SubMesh8TransferI24GenerateTypeTreeTransferEEvRT_
Neg:_MonoProperty_get_CanWrite_m2124922514
wkc:__Z48Register_UnityEngine_Application_get_absoluteURLv
eEj:__ZN6il2cpp6icalls8mscorlib6SystemL16CheckMemberMatchI9FieldInfoNS_5utils10functional6FilterINSt3__212basic_stringIcNS8_11char_traitsIcEENS8_9allocatorIcEEEENS5_13VmStringUtils23CaseInsensitiveComparerEEEEEbPKT_PK11Il2CppClassSN_iRKT0_
TBf:_CipherSuite_get_HashAlgorithmType_m3902365773
Jik:_poll
wHe:_Stream_BeginRead_m1985960185
xyg:_GUIStyle_GetFontInternalDuringLoadingThread_m229734483
m8b:__ZN13ProduceHelperI14Texture2DArrayLb0EE7ProduceE18MemLabelIdentifier18ObjectCreationMode
jv:__ZN7mecanim5human9HumanGoal8TransferI18StreamedBinaryReadILb0EEEEvRT_
bAf:_MD4Managed_GG_m1462438360
Ooc:__Z46Mesh_CUSTOM_PrintErrorCantAccessMeshForIndicesP12Il2CppObject
Spc:__Z53PlayableHandle_CUSTOM_INTERNAL_CALL_GetPlayableTypeOfR9HPlayable
Njc:__ZN9Transform23SetSiblingIndexInternalEib
Unf:_SimpleCollator_LastIndexOfOrdinal_m45234497
LHd:_FontData_set_fontStyle_m130790064
sIa:__ZN13GfxDeviceGLES17DestroySubProgramEPN9ShaderLab10SubProgramE
Zx:__ZN7mecanim5human12HumanPoseSubERNS0_9HumanPoseERKS1_S4_
Pzf:_MD4_Create_m2582504069
Snj:_HashSet_1_System_Collections_IEnumerable_GetEnumerator_m2498631708_gshared
GYj:__ZN6il2cpp8metadata15GenericMetadata15GetGenericClassEiPK17Il2CppGenericInst
zTd:_Boolean_System_IConvertible_ToInt16_m977801621
XMb:__Z18Transfer_BlittableI14SafeBinaryReadLb0E10Matrix4x4fEvRK29SerializationCommandArgumentsR31RuntimeSerializationCommandInfo
R$a:__Z24GetFixedBehaviourManagerv
M7g:__Z69RuntimeInvoker_Void_t1841601450_Int32_t2071877448_Vector4_t2243707581PFvvEPK10MethodInfoPvPS4_
f4a:__ZN12FlareManager9UpdateJobEP25FlareManagerUpdateJobData
JDj:__ZN6il2cpp2vm10ThreadPool4WaitEP17Il2CppAsyncResultPPv
Sgk:_vfprintf
UXf:_SerializationException__ctor_m1019897788
Fva:__ZL13SortTexByNameRKNSt3__24pairIN9ShaderLab16FastPropertyNameEN18UnityPropertySheet11UnityTexEnvEEES7_
S4a:__ZN20DynamicPropertySheetD0Ev
kjb:__ZN14SafeBinaryRead17RegisterConverterEPKcS1_PFbPvRS_E
u5:__ZN35RegisterRuntimeInitializeAndCleanup8RegisterEPFvPvES2_iS0_
Ds:__ZN7mecanim6memory16ChainedAllocator7ReserveEj
mSd:_AsyncCallback__ctor_m3071689932
Tkf:_ReadOnlyCollection_1_System_Collections_IList_Clear_m2600246370_gshared
qKc:__ZN4PPtrI17PhysicsMaterial2DE8TransferI18StreamedBinaryReadILb0EEEEvRT_
GPj:__ZN14dense_hash_mapI10KeyWrapperINSt3__24pairIPK12PropertyInfoP11Il2CppClassEEEj17ReflectionMapHashIS8_ENS9_14EqualsComparerINS1_8equal_toIS8_EEEENS1_9allocatorINS2_IKS9_jEEEEE15set_deleted_keyERSH_
j9g:__Z62RuntimeInvoker_Int32_t2071877448_ParameterModifier_t1820634920PFvvEPK10MethodInfoPvPS4_
krf:_DSAManaged_NormalizeArray_m2287089393
btc:__Z21Object_CUSTOM_DestroyP12Il2CppObjectf
uPi:_InternalEnumerator_1_System_Collections_IEnumerator_get_Current_m2389982234_AdjustorThunk
V$a:__ZN8Material26ResetAllCachedMaterialDataEP6Shader
PSd:_BitConverter_ToUInt32_m4153360341
nki:_Selectable_get_interactable_m1725029500
Bhh:__ZL66RuntimeArray_CustomAttributesCacheGenerator_Array_Sort_m3002148658P21CustomAttributesCache
K4c:_UNITY_TT_Get_MM_Var
Fuj:__ZN6il2cpp6icalls8mscorlib6System7Decimal13decimal2Int64EP19il2cpp_decimal_reprPx
ba:invoke_diddi
dzd:_ExecuteEvents__cctor_m288775360
t6c:__ZNK2UI6Canvas13GetRenderModeEv
v4d:_Double_TryParseStringConstant_m2585405703
uI:__Z32TransferEnumWithNameForceIntSizeI14SafeBinaryRead28TransitionInterruptionSourceEvRT_RT0_PKc17TransferMetaFlags
qwi:_AudioClipPlayable_GetHandle_m234442096_AdjustorThunk
pMb:__Z18Transfer_BlittableI14SafeBinaryReadLb0EiEvRK29SerializationCommandArgumentsR31RuntimeSerializationCommandInfo
xCj:__ZN6il2cpp2vm13MetadataCache30GetPropertyDefinitionFromIndexEi
Skd:_RijndaelTransform_Clear_m1652144089
_Fe:_MonoIO_GetException_m2577367044
$dd:__ZN22BaseUnityConnectClient17InitializeSessionERKN4core12basic_stringIcNS0_20StringStorageDefaultIcEEEES6_N19CloudServiceHandler13InitModeFlagsE
k4h:_Enumerator_MoveNext_m1404007384_gshared
ROe:_NumberFormatter_get_IsZero_m1325357749
fJ:__ZN15SerializeTraitsI9OffsetPtrIN7mecanim9animation23BlendDirectDataConstantEEE8TransferI24GenerateTypeTreeTransferEEvRS4_RT_
Mrk:_emscripten_glDeleteBuffers__wrapper
E2g:__Z121RuntimeInvoker_Void_t1841601450_Single_t2076509932_Single_t2076509932_Single_t2076509932_Single_t2076509932_RuntimeObjectPFvvEPK10MethodInfoPvPS4_
Lde:_Enum_ToObject_m322320225
d0h:_Enumerator_get_Current_m2754383612_gshared
_hc:__ZN13MonoBehaviour34StopCoroutineFromEnumeratorManagedE18ScriptingObjectPtr
Bod:_X509Certificate__ctor_m3860837120
eYc:_gray_raster_reset
Npi:_AnimationOffsetPlayable_CreateHandle_m1204489623
$tg:_GameObject_Internal_CreateGameObject_m3428198595
SUg:__Z64RuntimeInvoker_UInt16_t986882611_RuntimeObject_Int32_t2071877448PFvvEPK10MethodInfoPvPS4_
s6g:__Z109RuntimeInvoker_RuntimeObject_Ray_t2469606224_Single_t2076509932_Int32_t2071877448_RuntimeObject_RuntimeObjectPFvvEPK10MethodInfoPvPS4_
azi:_Camera_RaycastTry2D_m755036866
Okf:_ReadOnlyCollection_1_System_Collections_Generic_IListU3CTU3E_set_Item_m3663361643_gshared
lL:__ZN7mecanim9animation14AvatarConstant15InitializeClassEv
myd:_EventTrigger_OnScroll_m626934407
rJb:__ZN30RuntimeInitializeOnLoadManager8TransferI18StreamedBinaryReadILb0EEEEvRT_
A9h:_Dictionary_2__ctor_m1206668798_gshared
T7f:_TypeBuilder_not_supported_m3178173643
PYc:_UNITY_tt_face_load_pclt
Kic:__ZL34GetComponentsImplementationRecurseILb1ELi0ELi2EEbR10GameObjectbRK17CompareParametersRK39GetComponentsImplementation_ReturnValue
rLc:__ZN10ClipperLib7Clipper24InsertLocalMinimaIntoAELEx
Fak:__ZN6il2cpp6icalls8mscorlib6System9Threading5Mutex20CreateMutex_internalEbP12Il2CppStringPb
$Xd:_ArrayListWrapper_Remove_m1105489978
g4a:__ZNK6Camera18WorldToScreenPointERK8Vector3fPb
Pej:_X509Extension_get_Oid_m3620527052
kDf:_TlsClientSettings_set_TargetHost_m3421266913
cbh:__Z84RuntimeInvoker_Void_t1841601450_RaycastResultU5BU5DU26_t2399554255_Int32_t2071877448PFvvEPK10MethodInfoPvPS4_
T$d:_HashKeys_CopyTo_m3566668422
pHa:__Z18IsCompressedFormat14GraphicsFormat
PKi:_InternalEnumerator_1_Dispose_m549215360_AdjustorThunk
WVd:_Convert_ToSByte_m2665932200
maa:__ZNSt3__227__insertion_sort_incompleteIRPFbRKN18AwakeFromLoadQueue4ItemES4_EPS2_EEbT0_S9_T_
O6f:_ILGenerator_label_fixup_m1325994348
S5h:_ValueCollection_System_Collections_ICollection_get_IsSynchronized_m45572582_gshared
ske:_Array_InternalArray__IEnumerable_GetEnumerator_TisContactPoint2D_t3659330976_m478005999_gshared
BAj:__ZN14dense_hash_mapI10KeyWrapperIN6il2cpp5utils13dynamic_arrayIPK10Il2CppTypeLj4EEEEPFvvENS1_8metadata19Il2CppSignatureHashENS8_14EqualsComparerINSB_22Il2CppSignatureCompareEEENSt3__29allocatorINSG_4pairIKS8_SA_EEEEE15set_deleted_keyERSJ_
bgi:_Navigation_Equals_m4214630671_AdjustorThunk
_hf:_ReadOnlyCollection_1_System_Collections_Generic_IListU3CTU3E_set_Item_m257196015_gshared
$bg:_FieldInfo_GetPseudoCustomAttributes_m2500972355
xxb:__ZN26EnlightenSystemInformation8TransferI14SafeBinaryReadEEvRT_
rve:_Array_InternalArray__get_Item_TisLink_t2723257478_m2281261655_gshared
Hwi:_AudioClipPlayable_INTERNAL_CALL_GetIsPlayingInternal_m4246314919
_Db:__ZN12MeshRendererD0Ev
N1i:_ExpressionAssertion_IsComplex_m783019628
U_d:_Hashtable__ctor_m2702360557
Gh:_utime
Bye:_DateTimeFormatInfo_get_RawAbbreviatedDayNames_m3998113647
bci:_DefaultComparer_GetHashCode_m2596628120_gshared
Byf:_PrimalityTest_Invoke_m4058801829
Pwe:_Mesh_GetAllocArrayFromChannel_TisRuntimeObject_m1450958222_gshared
vn:FUNCTION_TABLE_viiiiif
WYf:_RemotingConfiguration_SetCustomErrorsMode_m1844153208
An:FUNCTION_TABLE_viiiiii
SHh:__ZL98Physics2D_t2540166467_CustomAttributesCacheGenerator_Physics2D_GetColliderFromInstanceID_m95920619P21CustomAttributesCache
fge:_CultureInfo_GetFormat_m3560116485
NG:__ZN7mecanim9animation22DestroyAvatarWorkspaceEPNS0_15AvatarWorkspaceERNS_6memory9AllocatorE
Pmk:dynCall_viddi
e5i:_ScriptableObject_CreateInstance_m3271154163
AJd:__ZN21InterfaceFuncInvoker0IiE6InvokeEjP11Il2CppClassP12Il2CppObject
P0i:_AnchorInfo_get_IsPosition_m3791659233
vme:_Array_InternalArray__IndexOf_TisResourceCacheItem_t333236149_m761772858_gshared
xuc:__ZNSt3__210__list_impIN10GUIManager12SortedScriptE11memory_poolIS2_EE5clearEv
_uh:__ZL76Convert_t2607082565_CustomAttributesCacheGenerator_Convert_ToInt64_m44696721P21CustomAttributesCache
Aub:__ZN14PlayableOutput17SetSourcePlayableEP8Playable
qZf:_TrackingServices__cctor_m3639412334
rgj:_InvokableCall_1_add_Delegate_m3068046591_gshared
axc:__Z32GUIStyle_Set_Custom_PropRichTextP12Il2CppObjecth
fG:__ZN7mecanim9animation29MotionOutputGetDeltaTransformEPKNS0_12MotionOutputE
f6b:__Z13RegisterClassI16GraphicsSettingsEvv
dek:_GameManager_Start_m2655388892
c6h:_ValueCollection_System_Collections_IEnumerable_GetEnumerator_m1773104428_gshared
DGc:__ZN24b2ChainAndCapsuleContact8EvaluateEP10b2ManifoldRK11b2TransformS4_
HL:__ZN8Animator14OnAddComponentEPN5Unity9ComponentE
cBg:_Input_GetAxis_m2098048324
b3e:_List_1_CheckMatch_m1184924052_gshared
osc:__Z43Transform_CUSTOM_INTERNAL_get_localRotationP12Il2CppObjectP11Quaternionf
P7i:_Touch_get_fingerId_m4109475843_AdjustorThunk
Upk:_glGetShaderInfoLog__wrapper
ii:_emscripten_glGetTexParameteriv
KYe:_List_1_ToArray_m3752387798_gshared
Aii:_ScrollRect_get_elasticity_m3987376518
YAf:_RSAManaged_ImportParameters_m3060955884
_uf:_DeriveBytes__ctor_m3089550878
lVi:_ChannelData_CopyFrom_m4049054607
l6b:__Z13RegisterClassI4MeshEvv
YSh:__ZL94AxisEventData_t1524870173_CustomAttributesCacheGenerator_AxisEventData_get_moveDir_m3968662359P21CustomAttributesCache
eub:__ZN8PlayableD0Ev
w$:__Z84Register_UnityEngine_Audio_AudioMixerPlayable_INTERNAL_CALL_SetAutoNormalizeInternalv
UR:__ZN12AudioManager8TransferI19StreamedBinaryWriteILb0EEEEvRT_
bIe:_WriteDelegate_Invoke_m2103848735
JZe:_List_1_get_Capacity_m4262042666_gshared
hnj:_GenericEqualityComparer_1_GetHashCode_m1950634276_gshared
NWb:__ZN18StreamedBinaryReadILb1EE21TransferSTLStyleArrayI13dynamic_arrayI11ColorRGBA32Lj4EEEEvRT_17TransferMetaFlags
O3h:_Transform_1_EndInvoke_m687617772_gshared
rkj:_Locale_GetText_m512920887
Cac:__ZNK32RendererMaterialAnimationBinding12GetPPtrValueERKN11UnityEngine9Animation10BoundCurveE
DXb:__Z18Transfer_BlittableI18StreamedBinaryReadILb0EELb0E8Vector2fEvRK29SerializationCommandArgumentsR31RuntimeSerializationCommandInfo
EYf:_RemotingConfiguration_get_ProcessId_m3870172209
GMc:__ZN16CircleCollider2D10SmartResetEv
a9c:__ZN2UI11CanvasGroup12CleanupClassEv
S4i:_SceneManager_LoadScene_m1386820036
bAe:_SortKey_ToString_m2406913228
hma:__ZN22LocalFileSystemHandler9MakeLocalER13FileEntryDatab
l4j:__ZN6il2cpp2vm8Profiler10AllocationEP12Il2CppObjectP11Il2CppClass
C3d:_Convert_ToDateTime_m1020507389
$cc:__ZNK9HPlayable7IsValidEv
iWc:__ZNSt3__23mapIN20TextRenderingPrivate7FontRefENS1_6OSFontENS_4lessIS2_EENS_9allocatorINS_4pairIKS2_S3_EEEEEixERS8_
Uja:__Z13FormatOrderedPKcz
YFe:_Path_IsPathRooted_m1347207448
C_f:_ObjectManager_RegisterObjectInternal_m879109503
wge:_Array_get_swapper_TisVector4_t2243707581_m97441823_gshared
aFa:__ZNSt3__26__sortIRNS_4lessIiEEPiEEvT0_S5_T_
uTc:__ZN14SafeBinaryRead21TransferSTLStyleArrayI10vector_mapINSt3__24pairIttEEfN20TextRenderingPrivate8FontImpl14KerningCompareENS2_9allocatorINS3_IS4_fEEEEEEEvRT_17TransferMetaFlags
I6b:__Z13RegisterClassI15QualitySettingsEvv
U2j:__ZN6il2cpp2vm6String21InitializeEmptyStringEP11Il2CppClass
obb:__ZN25DeferredRenderLoopScratchD0Ev
kA:__ZN27AnimationLayerMixerPlayable14SetInputWeightEif
Vx:__ZN7mecanim9animation17EvaluateHumanPoseERKNS0_18ClipMuscleConstantERKNS0_15ClipMuscleInputEPKfRKNS0_12MotionOutputERNS_5human9HumanPoseE
Xsh:__ZL90UTF7Encoding_t741406939_CustomAttributesCacheGenerator_UTF7Encoding_GetHashCode_m359766848P21CustomAttributesCache
VRc:__ZN14dense_hash_mapINSt3__24pairIPK10Collider2DS4_EE11Collision2DNS2_23ColliderPairHashFunctorENS0_8equal_toIS5_EE13stl_allocatorINS1_IKS5_S6_EEL18MemLabelIdentifier65ELi16EEE15set_deleted_keyERSB_
Qfd:__ZN21DownloadHandlerBufferD0Ev
K_b:__ZN15dense_hashtableINSt3__24pairIKiN4core17string_with_labelILi1EEEEEi18SInt32HashFunctionN14dense_hash_mapIiS5_S7_NS0_8equal_toIiEE13stl_allocatorIS6_L18MemLabelIdentifier1ELi16EEE9SelectKeyESA_SD_E9copy_fromERKSG_j
Gra:__ZN6Camera11ResetAspectEv
_og:_Type_get_IsGenericType_m3396841573
n3a:__ZNSt3__227__insertion_sort_incompleteIRPFbP10GUIElementS2_EPS2_EEbT0_S7_T_
XPf:_X509BasicConstraintsExtension_get_HasPathLengthConstraint_m3788532759
ftb:__ZNK17InstancedPropInfo22FillInstancePropertiesER19ShaderPropertySheetjPK17BatchInstanceDatajRK15RenderNodeQueue
fta:__ZN22CreateGpuProgramOutputD2Ev
boh:__ZL58_AssemblyBuilder_t418776366_CustomAttributesCacheGeneratorP21CustomAttributesCache
Rfk:_U3CUpdateGUITextU3Ec__Iterator1_Dispose_m1465298357
xTb:__Z18Transfer_BlittableI19StreamedBinaryWriteILb0EELb1EsEvRK29SerializationCommandArgumentsR31RuntimeSerializationCommandInfo
bmd:_RSACryptoServiceProvider_EncryptValue_m802714447
uVj:__ZN6il2cpp6icalls8mscorlib6System2IO6MonoIO9SetLengthE12Il2CppIntPtrxPi
xuh:__ZL76Convert_t2607082565_CustomAttributesCacheGenerator_Convert_ToByte_m932798552P21CustomAttributesCache
FZ:__ZN13ProduceHelperI13AudioListenerLb0EE7ProduceE18MemLabelIdentifier18ObjectCreationMode
FI:__ZN7mecanim9animation23BlendDirectDataConstant8TransferI14SafeBinaryReadEEvRT_
Nhd:__Z17GetWebErrorString8WebError
sUe:_List_1_System_Collections_ICollection_get_SyncRoot_m1594235606_gshared
gxe:_DateTimeFormatInfo_GetInstance_m3133223810
Vxf:_ModulusRing_BarrettReduction_m2802101099
HYa:__ZN12HandlerChain4OpenER13FileEntryData14FilePermission16FileAutoBehavior
zlj:_EqualityComparer_1_get_Default_m2134906921_gshared
Ucg:_MonoMethodInfo_GetParametersInfo_m3456861922
jLj:__ZN15dense_hashtableINSt3__24pairIK10KeyWrapperINS1_IPK10MethodInfoP11Il2CppClassEEEjEES9_17ReflectionMapHashIS8_EN14dense_hash_mapIS9_jSD_NS9_14EqualsComparerINS0_8equal_toIS8_EEEENS0_9allocatorISB_EEE9SelectKeyESI_SK_E6insertERKSB_
Gza:__ZN18AssetBundleManager55CollectPreloadObjectsFromAssetBundleLoadAssetOperationsER13dynamic_arrayIiLj4EE
ada:__ZN14FileCacherReadD2Ev
uEa:__ZN13RendererScene23UpdatePreviousFrameDataEii
vmd:_RSAPKCS1SignatureDeformatter_VerifySignature_m1825067195
gmc:__Z50Register_UnityEngine_CullingGroup_FinalizerFailurev
xQe:_KeyValuePair_2_ToString_m2613351884_gshared
oza:__ZN27UnloadUnusedAssetsOperationD0Ev
srb:__ZN6Camera15ThreadedCleanupEv
gB:__ZN26AnimatorControllerPlayable6MemoryD2Ev
XUh:__ZL69ColorBlock_t2652774230_CustomAttributesCacheGenerator_m_DisabledColorP21CustomAttributesCache
WBf:_CipherSuite_get_Code_m3902213587
dhi:_Scrollbar__ctor_m2244981801
qVj:__ZN6il2cpp6icalls8mscorlib6System2IO6MonoIO9GetLengthE12Il2CppIntPtrPi
F$f:_ObjectRecord_get_HasPendingFixups_m670959802
_md:_SHA256Managed_HashCore_m4111458495
Xfe:_CultureInfo_get_CompareInfo_m3085280862
D$f:_ObjectManager_RecordDelayedFixup_m1895730844
CWj:__ZNK15dense_hashtableINSt3__24pairIK10KeyWrapperIP14Il2CppIUnknownEjEES5_N6il2cpp5utils11PointerHashIS3_EEN14dense_hash_mapIS5_jSB_NS5_14EqualsComparerINS0_8equal_toIS4_EEEENS0_9allocatorIS7_EEE9SelectKeyESG_SI_E12test_deletedERK24dense_hashtable_iteratorIS7_S5_SB_SK_SG_SI_E
Z_e:_List_1_System_Collections_IList_get_IsFixedSize_m3522184224_gshared
WP:__ZN9AudioClip23VirtualRedirectTransferER18StreamedBinaryReadILb0EE
nEf:_ClientSessionInfo_CheckDisposed_m1394638186
F1f:_SByte_Parse_m2544167007
fsd:_Single_CompareTo_m2081476257
Lbe:_StackFrame_GetILOffset_m115192054
U0f:_RuntimeTypeHandle_GetHashCode_m3697629454_AdjustorThunk
zof:_BigInteger__ctor_m2945783161
ZFf:_TlsClientHello_Update_m1723542631
yph:__ZL96ProxyAttribute_t4031752430_CustomAttributesCacheGenerator_ProxyAttribute_IsContextOK_m2391079277P21CustomAttributesCache
hBe:_IndexOutOfRangeException__ctor_m3497760912
$9g:__Z60RuntimeInvoker_Void_t1841601450_AnimatorClipInfo_t3905751349PFvvEPK10MethodInfoPvPS4_
wjf:_ReadOnlyCollection_1_CopyTo_m1652036789_gshared
Fj:_glCopyTexSubImage2D
wYf:_RealProxy_InternalGetTransparentProxy_m3415358600
Lac:__ZNK24RendererAnimationBinding13GetFloatValueERKN11UnityEngine9Animation10BoundCurveE
N2:__ZNK15DownloadHandler14HasPendingDataEv
c7e:_Collection_1_Insert_m3594407958_gshared
cla:__ZN18ScreenManagerWebGL13SetShowCursorEb
j4j:__ZN6il2cpp6icalls8mscorlib6System7Convert24InternalFromBase64StringEP12Il2CppStringb
bod:_SymmetricAlgorithm_CreateDecryptor_m4240570785
Smi:_Text_get_preferredWidth_m3352156860
q4f:_AssemblyCompanyAttribute__ctor_m1217508649
d9c:__ZN2UI13CanvasManager14GetRenderOrderEPKNS_6CanvasE
VMb:__Z18Transfer_BlittableI14SafeBinaryReadLb0E5RectTIfEEvRK29SerializationCommandArgumentsR31RuntimeSerializationCommandInfo
cjf:_ReadOnlyCollection_1_System_Collections_Generic_IListU3CTU3E_RemoveAt_m878653284_gshared
mxe:_DateTimeFormatInfo_GetFormat_m3676195179
JNa:__ZN14GfxContextGLES14GetFramebufferEv
Q1g:__Z92RuntimeInvoker_Void_t1841601450_PlayableHandleU26_t4210769902_RuntimeObject_SByte_t454417549PFvvEPK10MethodInfoPvPS4_
zfk:_ScoreManager_High_m894216668
swa:__ZN6prcoreL21CreateRemapAnyBlitterE13TextureFormatS0_
yck:__ZN6il2cpp2os5Event4WaitEjb
Igc:__ZN17AnimationCurveTplIfE16StripInvalidKeysEv
sne:_Array_InternalArray__ICollection_Add_TisKeyValuePair_2_t3716250094_m2381539361_gshared
Kvf:_X509Extension_WriteLine_m2850991173
Y7c:__ZNK2UI6Canvas17GetSortingLayerIDEv
pgh:__ZL40UIntPtr_t_CustomAttributesCacheGeneratorP21CustomAttributesCache
NOc:__ZN14Raycast2DQuery8RunQueryEb
zcc:__Z13RegisterClassI17GlobalGameManagerEvv
Udb:__ZN8Renderer24SetupNewRendererForSceneEv
XYh:__ZL70GridLayoutGroup_t1515633077_CustomAttributesCacheGenerator_m_StartAxisP21CustomAttributesCache
iQ:__ZL16FMOD_ErrorString11FMOD_RESULT_599
Whe:_Array_InternalArray__ICollection_Remove_TisInt64_t909078037_m2653583130_gshared
pXe:_List_1_AddCollection_m2628217188_gshared
rkg:_Thread_get_ExecutionContext_m922067206
QCc:__Z35Transfer_Blittable_FixedBufferFieldI8JSONReadtEvRK29SerializationCommandArgumentsR31RuntimeSerializationCommandInfo
ZDf:_RecordProtocol_get_Context_m2688493529
sua:__ZN4PPtrI7TextureE8TransferI14SafeBinaryReadEEvRT_
Bdc:__ZN14PlayableOutput6HandleEv
Szb:__ZNK6Sprite22GetTypeVirtualInternalEv
Iii:_ScrollRect_get_viewport_m3177057249
un:FUNCTION_TABLE_iiiiiiiiiiiiii
JXg:__Z100RuntimeInvoker_Void_t1841601450_SByte_t454417549_SByte_t454417549_Int32_t2071877448_SByte_t454417549PFvvEPK10MethodInfoPvPS4_
vCi:_CustomYieldInstruction_get_Current_m1743233962
eed:__ZN19UnityConnectService18OnPlayerQuitStaticEPS_
FZc:_UNITY_tt_get_cmap_info
Bvd:_DecoderExceptionFallback_GetHashCode_m2972426052
uhb:__ZN16ReflectionProbes8ScheduleEN18ReflectionProbeJob7JobTypeEP15ReflectionProbei
rcf:_Collection_1_IsFixedSize_m3675221982_gshared
hvh:__ZL77Convert_t2607082565_CustomAttributesCacheGenerator_Convert_ToSByte_m883113940P21CustomAttributesCache
hTe:_Enumerator_MoveNext_m3293920409_AdjustorThunk
yma:__Z18IsDirectoryCreatedRKN4core12basic_stringIcNS_20StringStorageDefaultIcEEEE
x9f:_GenericTypeParameterBuilder_get_DeclaringType_m1652924692
c7c:__ZN2UI13CanvasManagerD2Ev
URi:_Comparer_1__cctor_m3112251759_gshared
JXh:__ZL73ScrollRect_t1199013257_CustomAttributesCacheGenerator_m_VerticalScrollbarP21CustomAttributesCache
fPf:_X509KeyUsageExtension_ToString_m1992050580
PVc:_UNITY_FT_GlyphLoader_Done
a1i:_BalancingGroup__ctor_m2474435406
m9g:__Z49RuntimeInvoker_Int32_t2071877448_Byte_t3683104436PFvvEPK10MethodInfoPvPS4_
WUi:_ConstructionCall__ctor_m1143766850
BAg:_GUIStyleState_Init_m2434147050
VRi:_Comparer_1_System_Collections_IComparer_Compare_m3203078743_gshared
dFf:_Context_get_RandomSC_m1687420621
tPc:__ZN19OverlapPointQuery2D14InitializeAABBER6b2AABB
IHg:_PlayableHandle_IsValid_m1005197654_AdjustorThunk
lNh:__ZL67GUISkin_t1436893342_CustomAttributesCacheGenerator_m_verticalSliderP21CustomAttributesCache
t_c:_tt_cmap14_char_var_index
vYb:__Z35Transfer_Blittable_FixedBufferFieldI18StreamedBinaryReadILb0EEdEvRK29SerializationCommandArgumentsR31RuntimeSerializationCommandInfo
S$c:_psh_globals_new
RHe:_FileStream_Seek_m950719389
YAd:_StandaloneInputModule_set_allowActivationOnMobileDevice_m2631121618
N3d:_Decimal_stripStyles_m294582157
rui:_AnimatorControllerPlayable_Play_m614561002
zHa:__ZN9GfxDevice20SetMaxBufferedFramesEi
CZe:_List_1_RemoveAll_m4125997475_gshared
p7g:__Z72RuntimeInvoker_Boolean_t3825574718_TypeU26_t1535498077_Int32_t2071877448PFvvEPK10MethodInfoPvPS4_
wQg:__Z98RuntimeInvoker_Void_t1841601450_Int32_t2071877448_Int32_t2071877448_RuntimeObject_SByte_t454417549PFvvEPK10MethodInfoPvPS4_
uJc:__ZN10Collider2D19WakeAllBodyContactsEv
CU:__ZN24AudioScriptBufferManagerD2Ev
Rlk:dynCall_vdd
B8c:__ZN2UIL17UnloadAllCanvasesEv
Fkb:__Z23ConvertIntegerToTypePtrIsEbPvR14SafeBinaryRead
koh:__ZL54_MethodBase_t1935530873_CustomAttributesCacheGeneratorP21CustomAttributesCache
UHc:__ZN12b2MouseJoint11ShiftOriginERK6b2Vec2
vlj:_EqualityComparer_1__ctor_m99476293_gshared
fyf:_BigInteger_Incr2_m505983313
Oxi:_PCMReaderCallback_BeginInvoke_m3119095492
aXd:_ArrayList_get_Count_m523955479
bTg:__Z96RuntimeInvoker_Void_t1841601450_SByte_t454417549_RuntimeObject_SByte_t454417549_SByte_t454417549PFvvEPK10MethodInfoPvPS4_
wYd:_FixedSizeArrayListWrapper_Remove_m1359458911
Awa:__ZN6prcoreL29inner_stretch_rgb565_bilinearEPKNS_9InnerInfoE
w2i:_Uri__ctor_m3927533881
wJj:__ZNK15dense_hashtableINSt3__24pairIK10KeyWrapperINS1_IPK14Il2CppAssemblyP11Il2CppClassEEEjEES9_17ReflectionMapHashIS8_EN14dense_hash_mapIS9_jSD_NS9_14EqualsComparerINS0_8equal_toIS8_EEEENS0_9allocatorISB_EEE9SelectKeyESI_SK_E12test_deletedEj
vdi:_EqualityComparer_1_System_Collections_IEqualityComparer_Equals_m3724603646_gshared
Qad:__Z33Canvas_Get_Custom_PropWorldCameraP12Il2CppObject
emi:_Text_get_mainTexture_m813502234
mck:__ZN6il2cpp8metadata19Il2CppSignatureHash4HashERKNS_5utils13dynamic_arrayIPK10Il2CppTypeLj4EEE
vab:__ZNK14RenderSettings19GetFlatAmbientColorEv
HCa:__ZN6prcoreL10inner_flipILj4EEEvPhS1_j
SGb:__ZN18StreamedBinaryReadILb0EE21TransferSTLStyleArrayI10vector_mapIPKN5Unity4TypeE7Hash128NSt3__24lessIS6_EENS8_9allocatorINS8_4pairIS6_S7_EEEEEEEvRT_17TransferMetaFlags
iC:__ZNK27StateMachineBehaviourPlayer15IsSenderEnabledEv
Bri:_AnimatorControllerPlayable_SetInteger_m881630854
Jek:_MenuNavigation_HighScores_m2432008739
Q$h:_Enumerator_VerifyState_m2118679243_gshared
JLd:_InputField_get_shouldHideMobileInput_m3694613599
Osc:__Z40Register_UnityEngine_Transform_SetParentv
Vxi:_AudioConfigurationChangeHandler_Invoke_m635374412
PIf:_SslClientStream_get_HaveRemoteValidation2Callback_m3555576758
nXg:__Z56RuntimeInvoker_TimeSpan_t3430258949_TimeSpan_t3430258949PFvvEPK10MethodInfoPvPS4_
LBb:__ZN14Texture2DArray17UploadToGfxDeviceEv
yif:_ReadOnlyCollection_1_System_Collections_Generic_IListU3CTU3E_Insert_m4216310986_gshared
Ief:_ReadOnlyCollection_1_System_Collections_Generic_IListU3CTU3E_set_Item_m1532495847_gshared
zT:__Z14FMODMemoryFreePvjPKc
xGi:_InternalEnumerator_1_System_Collections_IEnumerator_Reset_m3731327620_AdjustorThunk
PTh:__ZL104PointerEventData_t1599784723_CustomAttributesCacheGenerator_PointerEventData_get_worldNormal_m1704987468P21CustomAttributesCache
Dbj:_YieldInstruction_t3462875981_marshal_pinvoke_cleanup
kLd:_Image_AddQuad_m1600600902
j1c:_cf2_glyphpath_moveTo
G5i:_SharedBetweenAnimatorsAttribute__ctor_m1221241062
HJc:__ZNK13BoxCollider2D22GetTypeVirtualInternalEv
jCd:_AnimationTriggers_set_disabledTrigger_m609579531
Rkh:__ZL47File_t1930543328_CustomAttributesCacheGeneratorP21CustomAttributesCache
F8d:_DateTimeOffset__ctor_m1796624924
ywg:_GUILayoutUtility_get_spaceStyle_m1918520192
yxd:_BaseRaycaster_OnDisable_m1716508791
Sy:__ZN7mecanim23TransformValueArrayLoopEiiiRKN4math4trsXES3_RNS_10ValueArrayEf
azf:_ASN1Convert_ToInt32_m2121135414
IMi:_InternalEnumerator_1_MoveNext_m1741571735_gshared
Tuc:__ZN5IMGUI14GUIWindowStateD2Ev
Bgh:__ZL82Enum_t2459695545_CustomAttributesCacheGenerator_Enum_GetUnderlyingType_m3513899012P21CustomAttributesCache
o8j:_GC_is_heap_ptr
dTj:__GLOBAL__sub_I_Assembly_cpp
yGf:_TlsServerSettings_set_CertificateRequest_m3419519893
tF:__ZN7mecanim5human10RetargetToEPKNS0_5HumanEPKNS0_9HumanPoseES6_RKN4math4trsXEPS4_PNS_8skeleton13SkeletonPoseTIS8_EESF_
Ly:__ZN7mecanim9animation8SeekClipERKNS0_12StreamedClipERNS0_18StreamedClipMemoryEf
cpg:_Type_get_IsGenericParameter_m161434704
aag:_MethodBuilder_get_Attributes_m3678061338
jm:_emscripten_glIsTexture
au:__ZN24CompressedAnimationCurveaSERKS_
cYd:_ArrayListWrapper_CopyTo_m793444109
vvh:__ZL79Convert_t2607082565_CustomAttributesCacheGenerator_Convert_ToUInt16_m3265369225P21CustomAttributesCache
Qk:_emscripten_glHint
tch:__Z33RuntimeInvoker_Color32_t874517518PFvvEPK10MethodInfoPvPS4_
x4c:_ft_var_readpackeddeltas
Y7d:_DateTime_AddMilliseconds_m1813199744_AdjustorThunk
l1f:_SByte_System_IConvertible_ToSByte_m108774324_AdjustorThunk
eag:_MethodBuilder_GetParameterCount_m467267889
nqc:__Z65PlayableOutputHandle_CUSTOM_INTERNAL_CALL_GetPlayableOutputTypeOfR15HPlayableOutput
uVb:__Z35Transfer_Blittable_FixedBufferFieldI18StreamedBinaryReadILb1EEtEvRK29SerializationCommandArgumentsR31RuntimeSerializationCommandInfo
koi:_AnimationEvent_set_intParameter_m1174062029
vSf:_X509ChainStatus_t4278378721_marshal_pinvoke
OAf:_RSAManaged__ctor_m1680944437
mm:_SDL_UpperBlit
Fzg:_GUIStyle_op_Implicit_m781448948
bbb:__Z35GetTextureDecodeValuesWithIntensity16TextureUsageMode17TextureColorSpace10ColorSpacef
gVd:_Byte_GetHashCode_m2885528842_AdjustorThunk
zPj:__ZN15dense_hashtableINSt3__24pairIK10KeyWrapperINS1_IPK9EventInfoP11Il2CppClassEEEjEES9_17ReflectionMapHashIS8_EN14dense_hash_mapIS9_jSD_NS9_14EqualsComparerINS0_8equal_toIS8_EEEENS0_9allocatorISB_EEE9SelectKeyESI_SK_E15set_deleted_keyERKSB_
S6h:_Dictionary_2_OnDeserialization_m2092139626_gshared
PHc:__ZNK12b2MouseJoint10GetAnchorAEv
c_j:__ZNK6il2cpp2os6Socket12GetLastErrorEv
jKb:__ZN14SafeBinaryRead20OverrideRootTypeNameEPKc
Suj:__ZNK10KeyWrapperIPK22Il2CppGenericParameterE14EqualsComparerINSt3__28equal_toIS2_EEEclERKS3_SA_
eda:__ZN14FileCacherRead16UnlockCacheBlockEj
Ouf:_X509Certificate_GetUnsignedBigInteger_m3491353542
ITc:__ZNSt3__26vectorIN4core12basic_stringIcNS1_20StringStorageDefaultIcEEEE13stl_allocatorIS5_L18MemLabelIdentifier34ELi16EEE6assignINS_11__wrap_iterIPS5_EEEENS_9enable_ifIXaasr21__is_forward_iteratorIT_EE5valuesr16is_constructibleIS5_NS_15iterator_traitsISF_E9referenceEEE5valueEvE4typeESF_SF_
DMh:__ZL90Event_t3028476042_CustomAttributesCacheGenerator_Event_Internal_GetMousePosition_m38523489P21CustomAttributesCache
MPb:__Z18Transfer_BlittableI17RemapPPtrTransferLb1E8Vector3fEvRK29SerializationCommandArgumentsR31RuntimeSerializationCommandInfo
Nlh:__ZL57StackBehaviour_t1390406961_CustomAttributesCacheGeneratorP21CustomAttributesCache
Nlk:dynCall_iifii
Xc:_emscripten_glUniform1f
r5b:__ZN13dynamic_arrayIS_I8Vector2fLj4EELj4EE18resize_initializedEjRKS1_12ResizePolicy
mJf:_SslStreamBase_get_MightNeedHandshake_m3432170694
oWc:__Z20ParseImageParametersR11UTF16StringRiRN20TextRenderingPrivate16TextFormatChangeE
ad:_emscripten_glUniform1i
dLi:_InternalEnumerator_1_System_Collections_IEnumerator_Reset_m651165750_AdjustorThunk
bKb:__ZN13MonoBehaviour9CallAwakeEv
Oea:__Z33UnregisterDeviceEventCallbackImplPFv23UnityGfxDeviceEventTypeE
Fwg:__Z14bankers_roundff
Pti:_AnimatorControllerPlayable_CrossFade_m3391147919
k0b:__ZN9ShaderLab16SerializedTagMapaSERKS0_
qje:_SetPropertyUtility_SetStruct_TisFillMethod_t1640962579_m1867757822_gshared
h1:__ZN11UnityEngine15CloudWebService16SessionContainer20RestoreSessionHeaderERKN4core12basic_stringIcNS2_20StringStorageDefaultIcEEEES8_RNS0_13SessionHeaderE
t8d:_DateTime_ToString_m1117481977
ihd:__ZN22UnityWebRequestManager13BackendRetainEv
kle:__ZN21InterfaceFuncInvoker2Ii22UILineInfo_t3621277874S0_E6InvokeEjP11Il2CppClassP12Il2CppObjectS0_S0_
B9f:_GenericTypeParameterBuilder_GetGenericArguments_m277381309
Vch:__Z63RuntimeInvoker_KeyValuePair_2_t888819835_IntPtr_t_RuntimeObjectPFvvEPK10MethodInfoPvPS4_
BG:__ZN11UnityEngine9Animation27CreateAvatarBindingConstantER9TransformPKN7mecanim9animation14AvatarConstantERNS3_6memory9AllocatorE
QIb:__ZN14SafeBinaryRead21TransferSTLStyleArrayINSt3__26vectorIN30RuntimeInitializeOnLoadManager9ClassInfoE13stl_allocatorIS4_L18MemLabelIdentifier12ELi16EEEEEEvRT_17TransferMetaFlags
Nsg:_UnitySerializationHolder_GetObjectData_m2280028722
nrg:_UInt64_System_IConvertible_ToDateTime_m2412118561
qjc:__ZN9BlobWriteC2ER13dynamic_arrayIhLj16EE24TransferInstructionFlags19BuildTargetPlatform
yCi:_Debug_DrawLine_m2961609580
vba:__ZN14MessageHandler3GetEv
Xxg:_GUISkin_set_verticalScrollbarThumb_m2647835739
lOa:__ZN10DynamicVBO9DrawChunkERK21DynamicVBOChunkHandle17ShaderChannelMaskS3_P17VertexDeclarationPKNS_10DrawParamsEi
nd:_emscripten_glAttachShader
phf:_ReadOnlyCollection_1__ctor_m1539890895_gshared
yHa:__ZN9GfxDevice13SetActiveTierE12GraphicsTier
TRe:_Enumerator_System_Collections_IEnumerator_get_Current_m3079057684_AdjustorThunk
S0e:_List_1_System_Collections_ICollection_get_SyncRoot_m1804424478_gshared
AFb:__ZNSt3__26vectorIN4core12basic_stringIcNS1_20StringStorageDefaultIcEEEENS_9allocatorIS5_EEE6assignIPS5_EENS_9enable_ifIXaasr21__is_forward_iteratorIT_EE5valuesr16is_constructibleIS5_NS_15iterator_traitsISC_E9referenceEEE5valueEvE4typeESC_SC_
Erf:_KeyPairPersistence_get_UserPath_m3433052783
g9e:_Collection_1_ClearItems_m1410275009_gshared
Adh:__Z36RuntimeInvoker_Enumerator_t975728254PFvvEPK10MethodInfoPvPS4_
Pfh:__ZL58Decimal_t724701077_CustomAttributesCacheGenerator_MinusOneP21CustomAttributesCache
uke:_Array_InternalArray__IEnumerable_GetEnumerator_TisKeyframe_t1449471340_m3949799719_gshared
EMb:__Z18Transfer_BlittableI14SafeBinaryReadLb0E11QuaternionfEvRK29SerializationCommandArgumentsR31RuntimeSerializationCommandInfo
EJc:__ZN13BoxCollider2D16CheckConsistencyEv
dYb:__Z18Transfer_BlittableI18StreamedBinaryReadILb0EELb1E12PropertyNameEvRK29SerializationCommandArgumentsR31RuntimeSerializationCommandInfo
GEh:__ZL99MonoBehaviour_t1158329972_CustomAttributesCacheGenerator_MonoBehaviour_set_useGUILayout_m2666356651P21CustomAttributesCache
FMd:_InputField_get_inputType_m2187991661
d6:_tlsf_walk_heap
muf:_PKCS12_Decode_m731190390
MRj:__ZNK15dense_hashtableINSt3__24pairIK10KeyWrapperIP11Il2CppClassES4_EES5_N6il2cpp8metadata16SZArrayClassHashEN14dense_hash_mapIS5_S4_SA_NS5_14EqualsComparerINS9_19SZArrayClassCompareEEENS0_9allocatorIS7_EEE9SelectKeyESE_SG_E10test_emptyERK24dense_hashtable_iteratorIS7_S5_SA_SI_SE_SG_E
lMi:_InternalEnumerator_1_get_Current_m1550231132_gshared
$0i:_Reference_get_IgnoreCase_m2810892634
_sg:_Version_CheckedSet_m76493673
qb:invoke_vif
kQh:__ZL99SendMouseEvents_t3505065032_CustomAttributesCacheGenerator_SendMouseEvents_SetMouseMoved_m532965689P21CustomAttributesCache
rb:invoke_vid
Wjk:__ZNSt3__212basic_stringIcNS_11char_traitsIcEENS_9allocatorIcEEE6insertEjPKc
vsh:__ZL67UnverifiableCodeAttribute_t765455733_CustomAttributesCacheGeneratorP21CustomAttributesCache
sb:invoke_vii
GBh:__ZL86Component_t3819376471_CustomAttributesCacheGenerator_Component_SendMessage_m3615678587P21CustomAttributesCache
MXh:__ZL82ScrollRect_t1199013257_CustomAttributesCacheGenerator_m_HorizontalScrollbarSpacingP21CustomAttributesCache
YJd:_LayoutGroup_get_padding_m1653511445
Smb:__ZN12TLSAllocatorI14StackAllocatorE16ThreadInitializeEP13BaseAllocator
AXd:_ArrayList_Sort_m2778059513
yQh:__ZL107StackTraceUtility_t1881293839_CustomAttributesCacheGenerator_StackTraceUtility_SetProjectFolder_m2154926761P21CustomAttributesCache
bKd:_LayoutGroup_SetChildAlongAxis_m2732017156
X9c:__Z41CanvasRenderer_CUSTOM_DisableRectClippingP12Il2CppObject
Fzf:_MD2_Create_m539024737
G0d:_SortedList_get_SyncRoot_m3299704254
jUe:_List_1_System_Collections_ICollection_CopyTo_m2020941110_gshared
g1d:_Slot_t2267560602_marshal_pinvoke
LYg:__Z112RuntimeInvoker_Void_t1841601450_RuntimeObject_Int32_t2071877448_Int32_t2071877448_RuntimeObject_SByte_t454417549PFvvEPK10MethodInfoPvPS4_
XWf:_SoapAttribute_get_XmlNamespace_m1436066016
uYa:__ZN25SingleBlockMemoryFileDataD0Ev
Qob:__ZNSt3__26vectorI14ConstantStringNS_9allocatorIS1_EEE6assignINS_11__wrap_iterIPS1_EEEENS_9enable_ifIXaasr21__is_forward_iteratorIT_EE5valuesr16is_constructibleIS1_NS_15iterator_traitsISA_E9referenceEEE5valueEvE4typeESA_SA_
c1:__ZN11UnityEngine15CloudWebService16SessionContainer21ConvertFromFolderTimeERKN4core12basic_stringIcNS2_20StringStorageDefaultIcEEEEPjPt
_Nb:__ZNSt3__26vectorI8GUIStyle13stl_allocatorIS1_L18MemLabelIdentifier1ELi16EEE7reserveEj
$Sj:__ZN6il2cpp6icalls8mscorlib6System9Threading6Thread27GetSerializedCurrentCultureEP12Il2CppThread
NNi:_InternalEnumerator_1_Dispose_m3765482968_AdjustorThunk
Eme:_Array_InternalArray__IndexOf_TisUInt32_t2149682021_m3231515987_gshared
lIi:_InternalEnumerator_1_MoveNext_m1667794624_AdjustorThunk
f8b:__Z31CalculateHierarchyTransformType23TransformAccessReadOnly
B6b:__Z13RegisterClassI11TimeManagerEvv
pT:__ZN4FMOD8ChannelI11setPositionEjj
lKc:__ZN10Collider2D12SetPolygon2DEP9Polygon2D
URg:__Z136RuntimeInvoker_IntPtr_t_RuntimeObject_Int32_t2071877448_Int32_t2071877448_Int32_t2071877448_Int32_t2071877448_MonoIOErrorU26_t1029615899PFvvEPK10MethodInfoPvPS4_
DBi:_Component_SendMessage_m913946877
BYh:__ZL75ToggleGroup_t1030026315_CustomAttributesCacheGenerator_U3CU3Ef__amU24cache1P21CustomAttributesCache
SXi:_SynchronizedClientContextSink__ctor_m978504596
Via:__ZN17BaseObjectManager13StaticDestroyEPv
M6i:_TextGenerationSettings_CompareVector2_m592645251
zQh:__ZL108StackTraceUtility_t1881293839_CustomAttributesCacheGenerator_StackTraceUtility_ExtractStackTrace_m1593581205P21CustomAttributesCache
g9d:_DBNull_System_IConvertible_ToChar_m3344298044
W3e:_Enumerator_Dispose_m2494351762_AdjustorThunk
zvf:_X509Certificate_GetObjectData_m3888130484
kIb:__ZNSt3__26vectorIN15ResourceManager10DependencyE13stl_allocatorIS2_L18MemLabelIdentifier51ELi16EEEC2INS_11__wrap_iterIPS2_EEEET_SB_RKS5_PNS_9enable_ifIXaasr21__is_forward_iteratorISB_EE5valuesr16is_constructibleIS2_NS_15iterator_traitsISB_E9referenceEEE5valueEvE4typeE
xCi:_CustomYieldInstruction_Reset_m3409422382
yZi:_LinkStack_Push_m2660199875
jS:__ZN4FMOD6Reverb13setPropertiesEPK22FMOD_REVERB_PROPERTIES
TQj:__ZN15dense_hashtableINSt3__24pairIK10KeyWrapperIP11Il2CppClassES4_EES5_N6il2cpp8metadata16SZArrayClassHashEN14dense_hash_mapIS5_S4_SA_NS5_14EqualsComparerINS9_19SZArrayClassCompareEEENS0_9allocatorIS7_EEE9SelectKeyESE_SG_E5clearEv
A5a:__ZN9DepthPass13PrepareSubsetEjRK10RenderNodeifRK17ShaderReplaceData
hjg:_UTF32Encoding_GetPreamble_m767706727
uBg:_Input_get_compositionString_m636835668
Ecj:_X509CertificateCollection_Add_m4008705157
mWf:_MonoMethodMessage_set_Uri_m3218581120
nfc:__Z35SetMeshComponentFromArrayFromScriptR4Mesh30InternalScriptingShaderChannel34InternalScriptingVertexChannelTypei17ScriptingArrayPtri
hhc:__Z18ExtractTagThrowingR11ICallString
dva:__ZN4PPtrI6ShaderE8TransferI19StreamedBinaryWriteILb0EEEEvRT_
z9e:_Collection_1_IsFixedSize_m1816795498_gshared
Gq:__ZN4core20StringStorageDefaultIcE6assignEPKcj
GZj:__ZN15dense_hashtableINSt3__24pairIK10KeyWrapperIP12Il2CppObjectEN6il2cpp2gc9CachedCCWEEES5_NS7_5utils11PointerHashIS3_EEN14dense_hash_mapIS5_S9_SD_NS5_14EqualsComparerINS0_8equal_toIS4_EEEENS0_9allocatorISA_EEE9SelectKeyESI_SK_E3endEv
TIb:__Z14resize_trimmedINSt3__26vectorIi13stl_allocatorIiL18MemLabelIdentifier12ELi16EEEEEvRT_j
IAd:_MouseButtonEventData_ReleasedThisFrame_m482758300
rQj:__ZN15dense_hashtableINSt3__24pairIK10KeyWrapperINS1_IP11Il2CppClassjEEES4_EES6_N6il2cpp8metadata14ArrayClassHashEN14dense_hash_mapIS6_S4_SB_NS6_14EqualsComparerINSA_17ArrayClassCompareEEENS0_9allocatorIS8_EEE9SelectKeyESF_SH_E9copy_fromERKSK_j
BYd:_ReadOnlyArrayListWrapper_set_Item_m2199017141
ifb:__ZN6Camera6SetFarEf
zcj:_DeriveBytes_DeriveIV_m3343375195
jXc:_UNITY_FT_Init_Class_ft_bitmap_glyph_class
Ild:_RNGCryptoServiceProvider_GetBytes_m167497991
ixa:__ZN6prcoreL12RemapGenericI17TexFormatABGR888817TexFormatARGB8888EEvPKNS_9InnerInfoE
npb:__ZN11GameManager17MainThreadCleanupEv
Cbd:__Z50Register_UnityEngine_UISystemProfilerApi_EndSamplev
A$g:__Z60RuntimeInvoker_Boolean_t3825574718_PlayableOutput_t988259697PFvvEPK10MethodInfoPvPS4_
B7f:_TypeBuilder_get_Assembly_m492491492
frj:__ZL25UnresolvedVirtualCall_160P12Il2CppObject23RaycastResult_t21186376PK10MethodInfo
tbf:_Collection_1_InsertItem_m1225429801_gshared
PJc:__ZN10Collider2D12AddToManagerEv
k3c:_UNITY_tt_slot_init
B$a:__ZZ23InitPlayerLoopCallbacksvEN41PostLateUpdateUpdateResolutionRegistrator7ForwardEv
Gjd:_HMACSHA512__cctor_m1167457383
uZb:__Z25scripting_array_class_get17ScriptingClassPtrj
bBc:__ZL22Transfer_ManagedObjectI9JSONWriteLb1EEvRK29SerializationCommandArgumentsR31RuntimeSerializationCommandInfo
EP:__ZNK10SampleClip22GetTypeVirtualInternalEv
VIa:__ZN9GfxDevice20DestroyRenderSurfaceER12ObjectHandleI17RenderSurface_TagP17RenderSurfaceBaseE
Kja:__ZN18SpriteAtlasManagerC2Ev
K8b:__ZL24PrepareSpriteRenderNodesILb1EEvR35RenderNodeQueuePrepareThreadContext
jWa:__ZN9GfxDevice22UpdateComputeResourcesEjPK9TextureIDPK16TextureDimensionPKijPKjjPK15ComputeBufferIDS7_PK20ComputeBufferCounterjSC_S2_S5_S9_SF_
hcc:__ZN12_GLOBAL__N_15qAsinEff
Wte:_Dictionary_2_Do_ICollectionCopyTo_TisKeyValuePair_2_t3749587448_m2536766696_gshared
Tmb:__ZN12TLSAllocatorI14StackAllocatorE13ThreadCleanupEv
R$g:__Z154RuntimeInvoker_RaycastHit2D_t4063908774_Vector2_t2243707579_Vector2_t2243707579_Single_t2076509932_Int32_t2071877448_Single_t2076509932_Single_t2076509932PFvvEPK10MethodInfoPvPS4_
WX:__Z18GetAudioManagerPtrv
Gle:_Array_IndexOf_TisRuntimeObject_m1815604637_gshared
KUe:_List_1_GetEnumerator_m2837081829_gshared
U3j:__ZThn4_N6il2cpp2vm13ComObjectBase16MarshalInterfaceEP13Il2CppIStreamRK10Il2CppGuidPvjS7_j
yCb:__ZN4Mesh27SwizzleVertexColorsIfNeededEb
znb:__Z27FindActiveTransformWithPathPKc
Hzi:_CanvasGroup_get_alpha_m1304564441
rqb:__ZN12BaseRendererD0Ev
wkb:__Z29StdTemplateConversionFunctionIbyEbPvR14SafeBinaryRead
UXg:__Z44RuntimeInvoker_X509KeyUsageFlags_t2461349531PFvvEPK10MethodInfoPvPS4_
Xvi:_AsyncOperation_Finalize_m67522446
Tvf:_SecurityParser_OnEndElement_m2909940377
w7a:__ZNK6Camera7GetNearEv
$Qa:__ZN7ApiGLES11UnmapBufferEjN2gl12BufferTargetE
d4j:__ZN6il2cpp5utilsL24Utf32CharToSurrogatePairEjRA2_Ds
nwb:__Z25GetNextAllowedTextureSizeib13TextureFormat
ema:__ZN20LocalFileSystemWebGL4CopyER13FileEntryDataS1_
v_e:_List_1_CheckIndex_m4231572822_gshared
D3:__ZN19CloudServiceHandler6RetainEv
bck:__ZN6il2cpp2os9Semaphore4WaitEb
tHc:__ZN15b2FrictionJointD0Ev
wqd:_StrongName_Equals_m67226644
Gqb:__ZN12BaseRenderer20FlattenToRenderQueueER15RenderNodeQueueRK20DeprecatedSourceData
D8f:_FieldBuilder_get_Attributes_m2174064290
CLe:_UnmanagedMemoryStream_get_Length_m587008850
Pza:__Z34scripting_liveness_calculation_endPv
E1j:__ZN6il2cpp2os6ThreadC2Ev
lrd:_SecurityFrame_InitFromRuntimeFrame_m45195821
klh:__ZL53TextReader_t1561828458_CustomAttributesCacheGeneratorP21CustomAttributesCache
jRf:_X509Chain_IsSignedWith_m292245392
gy:__ZN21AnimationClipPlayable22ProcessAnimationNoClipEPK35AnimationPlayableEvaluationConstantPK32AnimationPlayableEvaluationInputP33AnimationPlayableEvaluationOutput
B$j:__ZNK6il2cpp2os10SocketImpl12GetLastErrorEv
Rhe:_Array_InternalArray__ICollection_Remove_TisDateTime_t693205669_m1275668216_gshared
U7h:_Dictionary_2__ctor_m871840915_gshared
thf:_ReadOnlyCollection_1_System_Collections_Generic_ICollectionU3CTU3E_Remove_m3751131234_gshared
yCc:__Z18Transfer_BlittableI8JSONReadLb0E8Vector3fEvRK29SerializationCommandArgumentsR31RuntimeSerializationCommandInfo
Et:__ZN13AnimationClip12Vector3Curve8TransferI14SafeBinaryReadEEvRT_
pVi:_ChannelServices__cctor_m3534779830
URj:__ZN6il2cpp2vm6Thread6DetachEP12Il2CppThread
a$c:_Render_Single_Pass
F4d:_Convert_ToInt16_m416789348
$vd:_EncoderExceptionFallback_Equals_m762170768
mpj:__ZL24UnresolvedVirtualCall_59P12Il2CppObjectS0_aPK10MethodInfo
xmj:_EqualityComparer_1__cctor_m2666196678_gshared
g5i:_MovedFromAttribute__ctor_m1535041828
G0h:_Enumerator_get_CurrentValue_m3147984131_AdjustorThunk
ivg:_GUIStyle_Init_m3872198731
HG:__ZN7mecanim8skeleton30SkeletonBuildReverseIndexArrayEPiPKiPKNS0_8SkeletonES6_
Rtc:__Z19GetGUIBlendMaterialv
Z1g:__Z69RuntimeInvoker_Boolean_t3825574718_TextGenerationSettings_t2543476768PFvvEPK10MethodInfoPvPS4_
_$j:__ZN6il2cpp2os10ThreadImpl5SleepEjb
dQi:_InternalEnumerator_1_System_Collections_IEnumerator_Reset_m3669601605_AdjustorThunk
Yej:_X509ExtensionCollection_System_Collections_IEnumerable_GetEnumerator_m2600902401
ecf:_Collection_1_InsertItem_m1073626529_gshared
CH:__ZN18AnimatorController23VirtualRedirectTransferER24GenerateTypeTreeTransfer
bLf:_ListDictionary_FindEntry_m432748847
Drk:_glBindSampler__wrapper
bhj:_UnityAction_1_Invoke_m3523417209_gshared
Tf:_emscripten_set_mouseup_callback
_Va:__ZN9GfxDevice27SetRandomWriteTargetTextureEi9TextureID
T5g:__Z58RuntimeInvoker_Boolean_t3825574718_SpriteState_t1353336012PFvvEPK10MethodInfoPvPS4_
P5i:_SpaceAttribute__ctor_m1444406696
oJa:__ZN9GfxDevice47SwitchColorRenderSurfaceOutOfFastMemoryPlatformEP17RenderSurfaceBaseb
nla:__ZNK18ScreenManagerWebGL8GetWidthEv
cmk:dynCall_iiifii
sCj:__ZN6il2cpp2vm13MetadataCache33GetFieldDefaultValueDataFromIndexEi
KJd:_GridLayoutGroup_set_startAxis_m1635162426
BP:__ZN10SampleClipD2Ev
XXi:_SynchronizationAttribute_EnterContext_m2984912761
Mgh:__ZL73Enum_t2459695545_CustomAttributesCacheGenerator_Enum_ToObject_m2601523252P21CustomAttributesCache
hge:_CultureInfo_construct_internal_locale_from_name_m971766383
Z$j:__ZN6il2cpp2os10ThreadImpl13SetWaitObjectEPNS0_5posix15PosixWaitObjectE
iVd:_Byte_Equals_m368616327_AdjustorThunk
hoe:_Array_InternalArray__ICollection_Add_TisUIVertex_t1204258818_m3869382594_gshared
n3:__ZN11UnityEngine15CloudWebService20WebRequestRestClientC2Ev
G2c:_cff_cmap_unicode_init
J2a:__ZNSt3__224__buffered_inplace_mergeIRN10vector_mapIiN17InstancedPropInfo12PropertyTypeENS_4lessIiEE13stl_allocatorINS_4pairIiS3_EEL18MemLabelIdentifier1ELi16EEE13value_compareENS_11__wrap_iterIPS8_EEEEvT0_SH_SH_T_NS_15iterator_traitsISH_E15difference_typeESL_PNSK_10value_typeE
Ade:_Enum_ToObject_m2460371738
wpf:_PrimalityTests_Test_m1088386156
hda:__ZN14FileCacherRead13GetFileLengthEv
Qvc:__Z36Event_CUSTOM_Internal_SetNativeEvent13Il2Cpp_IntPtr
xik:_readlink
bNj:__ZN15dense_hashtableINSt3__24pairIK10KeyWrapperINS1_IPK9EventInfoP11Il2CppClassEEEjEES9_17ReflectionMapHashIS8_EN14dense_hash_mapIS9_jSD_NS9_14EqualsComparerINS0_8equal_toIS8_EEEENS0_9allocatorISB_EEE9SelectKeyESI_SK_E12resize_deltaEjj
use:_Array_Resize_TisVector3_t2243707580_m893658391_gshared
CIi:_InternalEnumerator_1_System_Collections_IEnumerator_get_Current_m4259662004_AdjustorThunk
Yve:_Array_InternalArray__get_Item_TisKeyframe_t1449471340_m1003508933_gshared
$9j:__ZN6il2cpp8metadata14Il2CppTypeHash4HashEPK10Il2CppType
lVg:__Z50RuntimeInvoker_Double_t4078015681_Int64_t909078037PFvvEPK10MethodInfoPvPS4_
guf:_StrongName_get_PublicKeyToken_m1968460885
qFb:__ZNK6Sprite9GetBoundsE8Vector2fbb
q1a:__ZNK19RenderEventsContext21CleanupCommandBuffersEv
vI:__ZN7mecanim12statemachine13StateConstant8TransferI14SafeBinaryReadEEvRT_
gMa:__ZN11ContextGLES6CreateEi
gFe:_BinaryReader_Dispose_m4249456877
o1g:__Z53RuntimeInvoker_AnimatorControllerPlayable_t1744083903PFvvEPK10MethodInfoPvPS4_
Oej:_X509CrlEntry_get_Extensions_m1330698752
K3d:_Double_ToString_m1085043609
VYb:__Z19TransferField_ArrayI18StreamedBinaryReadILb0EE27Converter_SimpleNativeClassI17AnimationCurveTplIfEEEvRK23StaticTransferFieldInfoR31RuntimeSerializationCommandInfoRT0_
hCf:_CipherSuite_createEncryptionCipher_m1926075645
Emb:__ZN14StackAllocator16FrameMaintenanceEb
dJd:_Graphic_Raycast_m3582517890
fpb:__Z18ReadStringFromFilePN4core17string_with_labelILi1EEERKNS_12basic_stringIcNS_20StringStorageDefaultIcEEEE
S7:__ZNK10GameObject20QueryComponentByTypeEPKN5Unity4TypeE
YSe:_Enumerator_MoveNext_m1367380970_AdjustorThunk
Rag:_OpCode_GetHashCode_m2974727122
D0d:_Enumerator_Reset_m466659019
iCf:_CipherSuite_createDecryptionCipher_m1118350455
D_i:_PatternCompiler_EmitReference_m1381860071
GO:__Z78AnimatorControllerPlayable_CUSTOM_INTERNAL_CALL_IsParameterControlledByCurveIDR9HPlayablei
qce:_Double_System_IConvertible_ToInt16_m4200640326
_$g:__Z84RuntimeInvoker_RuntimeObject_RayU26_t3651946800_Single_t2076509932_Int32_t2071877448PFvvEPK10MethodInfoPvPS4_
CDa:__ZN11TextureData5ResetEv
vnc:__Z53Register_UnityEngine_GameObject_get_activeInHierarchyv
F9f:_GenericTypeParameterBuilder_get_IsGenericType_m1883522222
CPb:__Z35Transfer_Blittable_FixedBufferFieldI17RemapPPtrTransferiEvRK29SerializationCommandArgumentsR31RuntimeSerializationCommandInfo
o9:__ZL30InitializeCoreScriptingClassesv
pcf:_Collection_1_CheckWritable_m3938993573_gshared
Og:_glBlitFramebuffer
e_a:__ZN17ArchiveFileSystem5TouchER13FileEntryData
IGf:_SecurityParameters_set_Cipher_m3888132335
Epf:_BigInteger_GeneratePseudoPrime_m2606361440
Lye:_DateTimeFormatInfo_get_ShortTimePattern_m20923983
xPb:__Z35Transfer_Blittable_SingleValueFieldI14SafeBinaryReadhEvRT_R17GeneralMonoObjectRK23StaticTransferFieldInfo
TWh:__ZL140U3CMouseDragOutsideRectU3Ec__Iterator1_t2599668326_CustomAttributesCacheGenerator_U3CMouseDragOutsideRectU3Ec__Iterator1_Dispose_m2134284531P21CustomAttributesCache
IMh:__ZL90Event_t3028476042_CustomAttributesCacheGenerator_Event_Internal_SetNativeEvent_m1899228752P21CustomAttributesCache
ofd:__ZN22BaseUnityConnectClientC2ERN11UnityEngine7Connect20BasePersistentValuesE
Vsf:_EncryptedPrivateKeyInfo_get_Algorithm_m2779196942
SWf:_RemotingServices_GetRealProxy_m620317996
Q5a:__ZN13dynamic_arrayI11CulledLightLj4EE6insertEPS0_PKS0_S4_
$Fi:_ArrayReadOnlyList_1_RemoveAt_m2270349795_gshared
$ub:__ZNK12CubemapArray22GetTypeVirtualInternalEv
ifj:_Predicate_1_Invoke_m2060780095_gshared
oCj:__ZN6il2cpp2vm13MetadataCache23GetInterfaceOffsetIndexEi
Vn:FUNCTION_TABLE_vif
Wn:FUNCTION_TABLE_vid
Xn:FUNCTION_TABLE_vii
bAa:__Z40scripting_liveness_calculation_from_root18ScriptingObjectPtrPv
lsa:__ZN7Texture23VirtualRedirectTransferER24GenerateTypeTreeTransfer
UUc:_UNITY_FT_Set_Transform
Bac:__ZNK32RendererMaterialAnimationBinding12SetPPtrValueERKN11UnityEngine9Animation10BoundCurveEi
pFi:_ArrayReadOnlyList_1_Contains_m1266627404_gshared
n0g:__Z63RuntimeInvoker_Double_t4078015681_PlayableHandleU26_t4210769902PFvvEPK10MethodInfoPvPS4_
jYg:__Z101RuntimeInvoker_OpFlags_t378191910_SByte_t454417549_SByte_t454417549_SByte_t454417549_SByte_t454417549PFvvEPK10MethodInfoPvPS4_
irk:_glDeleteFramebuffers__wrapper
CKd:_Image_get_overrideSprite_m706080347
g9g:__Z54RuntimeInvoker_Int32_t2071877448_LabelData_t3712112744PFvvEPK10MethodInfoPvPS4_
Ixf:_BigInteger_ModInverse_m1881894572
wFj:__ZN6il2cpp2vm7Runtime17GetDelegateInvokeEP11Il2CppClass
EZh:__ZL79LayoutRebuilder_t2155218138_CustomAttributesCacheGenerator_U3CU3Ef__amU24cache4P21CustomAttributesCache
gYh:__ZL59Slider_t297367283_CustomAttributesCacheGenerator_m_FillRectP21CustomAttributesCache
rXe:_List_1_AddEnumerable_m3541747636_gshared
z5b:__Z22GenerateBoxTilingShapeP22GenerateTilingAreaInfo
zxb:__ZN28EnlightenRendererInformation8TransferI14SafeBinaryReadEEvRT_
AXg:__Z88RuntimeInvoker_RuntimeObject_RuntimeObject_Int32_t2071877448_RuntimeObject_RuntimeObjectPFvvEPK10MethodInfoPvPS4_
pnh:__ZL69DefaultDependencyAttribute_t3858269114_CustomAttributesCacheGeneratorP21CustomAttributesCache
Dt:__Z14resize_trimmedINSt3__26vectorIN13AnimationClip12Vector3CurveE13stl_allocatorIS3_L18MemLabelIdentifier25ELi16EEEEEvRT_j
aXa:__ZNK15Lz4Decompressor16DecompressMemoryEPKvPjPvS2_
nid:__Z67Register_UnityEngine_Networking_UnityWebRequest_get_downloadHandlerv
qJg:_Ray_ToString_m2019179238
EQc:__ZN11Rigidbody2D8TransferI24GenerateTypeTreeTransferEEvRT_
i3i:_Uri_GetOpaqueWiseSchemeDelimiter_m3686606461
Ylb:__ZNSt3__26__treeINS_12__value_typeIN4core12basic_stringIcNS2_20StringStorageDefaultIcEEEEPN16MemoryFileSystem4NodeEEENS_19__map_value_compareIS6_SA_NS_4lessIS6_EELb1EEE13stl_allocatorISA_L18MemLabelIdentifier54ELi16EEE4findIS6_EENS_15__tree_iteratorISA_PNS_11__tree_nodeISA_PvEEiEERKT_
H9d:_Decimal_System_IConvertible_ToType_m3828527724_AdjustorThunk
SMd:_InputField_get_caretPositionInternal_m3011712053
JYc:_UNITY_tt_face_load_os2
xzf:_HMAC_get_Key_m2528863640
bdf:_Collection_1_IsSynchronized_m1366278230_gshared
Osh:__ZL93StringBuilder_t1221177846_CustomAttributesCacheGenerator_StringBuilder_AppendLine_m1686706871P21CustomAttributesCache
vN:__Z90Register_UnityEngine_Animations_AnimationOffsetPlayable_INTERNAL_CALL_CreateHandleInternalv
_Ob:__Z29Transfer_Blittable_ArrayFieldI14SafeBinaryRead8Vector4fEvRT_R9ArrayInfoRK23StaticTransferFieldInfo
kge:_Array_get_swapper_TisInt32_t2071877448_m2837069166_gshared
fLj:__ZN6il2cpp2gc19AppendOnlyGCHashMapINSt3__24pairIPK10MethodInfoP11Il2CppClassEEP22Il2CppReflectionMethod17ReflectionMapHashIS9_ENS2_8equal_toIS9_EEE3AddERKS9_SB_
Soh:__ZL62IDynamicMessageSink_t3056162262_CustomAttributesCacheGeneratorP21CustomAttributesCache
d7g:__Z77RuntimeInvoker_Boolean_t3825574718_AspectModeU26_t218518220_Int32_t2071877448PFvvEPK10MethodInfoPvPS4_
MKg:_RectTransform_INTERNAL_get_rect_m1177342209
u8e:_Collection_1_Clear_m268154422_gshared
aAd:_PointerEventData_IsScrolling_m1971908975
Wbh:__Z56RuntimeInvoker_ContentType_t1028629049_Int32_t2071877448PFvvEPK10MethodInfoPvPS4_
s$a:__ZZ23InitPlayerLoopCallbacksvEN51PostLateUpdateUpdateCustomRenderTexturesRegistrator7ForwardEv
vLh:__ZL53UILineInfo_t3621277874_CustomAttributesCacheGeneratorP21CustomAttributesCache
T9d:_Decimal_System_IConvertible_ToInt16_m3159038792
Ey:__ZN7mecanim9animation12EvaluateClipEPKNS0_4ClipEPKNS0_9ClipInputEPNS0_10ClipMemoryEPNS0_10ClipOutputE
Kxb:__ZN4PPtrI11LightProbesE8TransferI18StreamedBinaryReadILb0EEEEvRT_
RTi:_ComVisibleAttribute__ctor_m1789587486
deg:_MonoMethodInfo_GetReturnType_m2864247130
dWg:__Z39RuntimeInvoker_DateTimeKind_t2186819611PFvvEPK10MethodInfoPvPS4_
Jbb:__ZN13RenderManager29SetCurrentCameraAndStackStateEP6CameraP25CameraStackRenderingState
GRj:__ZN15dense_hashtableINSt3__24pairIK10KeyWrapperINS1_IP11Il2CppClassjEEES4_EES6_N6il2cpp8metadata14ArrayClassHashEN14dense_hash_mapIS6_S4_SB_NS6_14EqualsComparerINSA_17ArrayClassCompareEEENS0_9allocatorIS8_EEE9SelectKeyESF_SH_E12resize_deltaEjj
Zh:_JS_WebRequest_Release
tGe:_DirectoryNotFoundException__ctor_m2242202556
C1:__ZN11UnityEngine15CloudWebService14DataErrorEventD0Ev
w$g:__Z64RuntimeInvoker_RuntimeObject_PlayableOutputHandleU26_t2649796401PFvvEPK10MethodInfoPvPS4_
Mud:_String_CreateString_m2448464375
QSf:_X509SubjectKeyIdentifierExtension__ctor_m2959112706
H0h:_Enumerator_Reset_m1147555085_AdjustorThunk
js:__ZN14SafeBinaryRead21TransferSTLStyleArrayINSt3__26vectorIN13AnimationClip12Vector3CurveE13stl_allocatorIS4_L18MemLabelIdentifier25ELi16EEEEEEvRT_17TransferMetaFlags
uPh:__ZL105UnityWebRequest_t254341728_CustomAttributesCacheGenerator_UnityWebRequest_get_downloadHandler_m2794451840P21CustomAttributesCache
i9i:_Vector3_get_zero_m1527993324
Hwh:__ZL68Math_t2022911894_CustomAttributesCacheGenerator_Math_Max_m2671311541P21CustomAttributesCache
QYj:__ZN6il2cpp8metadata15GenericMetadata7InflateEPK19Il2CppGenericMethodPK20Il2CppGenericContext
A0a:__ZN19ShaderPropertySheet16SetArrayPropertyEN9ShaderLab16FastPropertyNameENS_12PropertyTypeEPKvj
Ydg:_MonoGenericCMethod_get_ReflectedType_m2689239043
vzf:_CryptoConvert_ToHex_m3804747475
cdf:_Collection_1_IsFixedSize_m499196375_gshared
UEd:_ColorTween_set_startColor_m3546206870_AdjustorThunk
shh:__ZL67RuntimeArray_CustomAttributesCacheGenerator_Array_IndexOf_m77084779P21CustomAttributesCache
vfh:__ZL63String_t_CustomAttributesCacheGenerator_String_Split_m394273024P21CustomAttributesCache
T6c:__ZN2UI11CanvasGroup23VirtualRedirectTransferER19StreamedBinaryWriteILb0EE
pLi:_InternalEnumerator_1_get_Current_m4083613828_gshared
$uc:__ZN8GUIState8EndOnGUIEv
Rig:_UnicodeEncoding_GetString_m542738941
fVj:__ZN6il2cpp6icalls8mscorlib6System2IO6MonoIO16get_ConsoleErrorEv
r3c:_UNITY_TT_Get_VMetrics
UFe:_Path_InsecureGetFullPath_m2635272425
y1d:_Enumerator_Clone_m1124749523
D7d:_DateTime_System_IConvertible_ToUInt32_m1363211018
B0f:_RuntimeMethodHandle__ctor_m1162528746
M3e:_Enumerator_Dispose_m3300818037_AdjustorThunk
c1e:_List_1_AsReadOnly_m4108578222_gshared
Pih:__ZL65DebuggerHiddenAttribute_t638884887_CustomAttributesCacheGeneratorP21CustomAttributesCache
V2f:_DSA__ctor_m613430209
lje:_SetPropertyUtility_SetStruct_TisSingle_t2076509932_m3849235084_gshared
HOa:__ZN7Texture21GetMasterTextureLimitEv
mgb:__Z12CanAddScriptR10GameObject17ScriptingClassPtrPS1_S2_
aQj:__ZN6il2cpp2vm10Reflection12HasAttributeEP12Il2CppObjectP11Il2CppClass
oEh:__ZL81Mesh_t1356156583_CustomAttributesCacheGenerator_Mesh_get_subMeshCount_m1945011773P21CustomAttributesCache
KEc:__ZN8JSONRead21TransferSTLStyleArrayI13dynamic_arrayI4AABBLj4EEEEvRT_18MemLabelIdentifier17TransferMetaFlags
Cgj:_InvokableCall_1__ctor_m121193486_gshared
$7:__ZN9ShaderLabL25StaticInitializeShaderLabEPv
u9h:_Dictionary_2_ContainsKeyValuePair_m3818021458_gshared
U:Math_max
ldf:_Collection_1_System_Collections_IList_Insert_m1511106741_gshared
Tpj:__ZL24UnresolvedVirtualCall_92P12Il2CppObjectPK10MethodInfo
iGj:_il2cpp_class_get_methods
XFe:_Path_CanonicalizePath_m383914732
O$h:_Enumerator_System_Collections_IEnumerator_get_Current_m1631145297_gshared
FXd:_ArrayList_Synchronized_m2395071980
K1j:__ZN6il2cpp2os6Thread16GetCurrentThreadEv
ihh:__ZL81RuntimeArray_CustomAttributesCacheGenerator_Array_SetValue_m169741241____indices1P21CustomAttributesCache
Ccc:__ZN10GameObject13ComponentPair15SetComponentPtrEPN5Unity9ComponentE
wLe:_UnexceptionalStreamWriter_Write_m3206913035
m6b:__Z13RegisterClassI10MeshFilterEvv
mM:__ZNK26AnimatorControllerPlayable24GetAnimatorClipInfoCountEib
lqb:__ZN10TagManager8TransferI19StreamedBinaryWriteILb0EEEEvRT_
JLb:__ZN11PreloadData23VirtualRedirectTransferER18StreamedBinaryReadILb0EE
YAb:__ZN13sorted_vectorI4PPtrI11SpriteAtlasENSt3__24lessIS2_EE13stl_allocatorIS2_L18MemLabelIdentifier1ELi16EEE21sort_clear_duplicatesEv
Ksi:_AnimatorControllerPlayable_GetAnimatorTransitionInfo_m2080024628_AdjustorThunk
T2f:_DESTransform_ProcessBlock_m2826669227
OBe:_Int16_CompareTo_m3493496879
Xbj:_GeneralNames_get_IPAddresses_m1712556836
nFh:__ZL56RenderTexture_t2666733923_CustomAttributesCacheGeneratorP21CustomAttributesCache
lKj:__ZN15dense_hashtableINSt3__24pairIK10KeyWrapperINS1_IPK9FieldInfoP11Il2CppClassEEEjEES9_17ReflectionMapHashIS8_EN14dense_hash_mapIS9_jSD_NS9_14EqualsComparerINS0_8equal_toIS8_EEEENS0_9allocatorISB_EEE9SelectKeyESI_SK_E16reset_thresholdsEv
jQh:__ZL56ColorWriteMask_t926634530_CustomAttributesCacheGeneratorP21CustomAttributesCache
lui:_AnimatorControllerPlayable_Play_m3296663958_AdjustorThunk
Qzb:__ZN6Sprite17MainThreadCleanupEv
Eyh:__ZL56OidCollection_t3790243618_CustomAttributesCacheGeneratorP21CustomAttributesCache
Irh:__ZL61SignatureDescription_t89145500_CustomAttributesCacheGeneratorP21CustomAttributesCache
RKi:_InternalEnumerator_1_MoveNext_m3389738333_AdjustorThunk
FU:__ZN10AudioMixer14UpdateMuteSoloEv
f1a:__Z17GetMonoManagerPtrv
KTj:__ZN6il2cpp2vm9Exception27RaiseNullReferenceExceptionEv
b5e:_Stack_1_System_Collections_ICollection_get_SyncRoot_m3151629354_gshared
NMc:__ZNK16CircleCollider2D22GetCompositeCapabilityEv
Efi:_MaskableGraphic_UnityEngine_UI_IClippable_get_gameObject_m954171032
Zsa:__ZN9ShaderLab10SubProgram7CompileEv
wGa:__ZNSt3__218__insertion_sort_3IRNS_4lessIN22BuiltinResourceManager8ResourceEEEPS3_EEvT0_S7_T_
UIe:_MonoIOStat_t1621921065_marshal_pinvoke
A_a:__ZN10MemoryFileC2E18MemLabelIdentifierP14MemoryFileData14FilePermission
_Xf:_TrackingServices_NotifyUnmarshaledObject_m1794048369
mvj:__ZN6il2cpp2vm5Class20FromGenericParameterEPK22Il2CppGenericParameter
Qph:__ZL59RemotingServices_t2399536837_CustomAttributesCacheGeneratorP21CustomAttributesCache
a4:__ZN19CloudServiceHandler11FlushEventsEv
via:__ZN15GlobalCallbacksC2Ev
Uqe:_Array_InternalArray__set_Item_TisLabelFixup_t4090909514_m565370771_gshared
RMc:__ZN7b2World10CreateBodyEPK9b2BodyDef
iP:__Z82Register_UnityEngine_Animations_AnimatorControllerPlayable_INTERNAL_CALL_SetBoolIDv
sWc:_UNITY_FT_New_Memory_Face
szh:__ZL74X509Crl_t1699034837_CustomAttributesCacheGenerator_U3CU3Ef__switchU24map13P21CustomAttributesCache
R$f:_SerializationEntry__ctor_m1619256036_AdjustorThunk
aO:__Z81AnimatorControllerPlayable_CUSTOM_INTERNAL_CALL_GetAnimatorTransitionInfoInternalR9HPlayablei
lUc:__ZN20TextRenderingPrivate21TextMeshGeneratorImpl5FlushEv
WGa:__ZN26VertexDeclarationCacheGLES24DestroyVertexDeclarationEP17VertexDeclaration
oqd:__Z15CastclassSealedP12Il2CppObjectP11Il2CppClass
I5b:__ZN15ApplicationInfo14GetSandboxTypeEv
nCg:_Material_HasProperty_m3175512802
EPb:__Z18Transfer_BlittableI17RemapPPtrTransferLb1EhEvRK29SerializationCommandArgumentsR31RuntimeSerializationCommandInfo
b2j:__ZNSt3__26vectorIjNS_9allocatorIjEEE26__swap_out_circular_bufferERNS_14__split_bufferIjRS2_EE
Heb:__ZN16ReflectionProbes40UpdateRealtimeReflectionProbesTimeslicedEv
Njj:_ListPool_1_Get_m529219189_gshared
XXj:__ZNSt3__26__treeINS_12__value_typeIP24Il2CppReflectionAssemblyPvEENS_19__map_value_compareIS3_S5_NS_4lessIS3_EELb1EEENS_9allocatorIS5_EEE16__insert_node_atEPNS_16__tree_node_baseIS4_EERSF_SF_
cag:_MethodBuilder_GetBaseDefinition_m774166361
_Zf:_FormatterConverter__ctor_m3958982477
HIb:__ZNK30RuntimeInitializeOnLoadManager22GetTypeVirtualInternalEv
Wzj:__ZN15dense_hashtableINSt3__24pairIK10KeyWrapperIN6il2cpp5utils13dynamic_arrayIPK10Il2CppTypeLj4EEEEPFvvEEESA_NS3_8metadata19Il2CppSignatureHashEN14dense_hash_mapISA_SD_SG_NSA_14EqualsComparerINSF_22Il2CppSignatureCompareEEENS0_9allocatorISE_EEE9SelectKeyESK_SM_E12resize_deltaEjj
gac:__ZN16ReflectionProbes15InitializeClassEv
p9j:__ZN6il2cpp5utils5MatchENSt3__212basic_stringIcNS1_11char_traitsIcEENS1_9allocatorIcEEEEjRKS7_j
QWc:_UNITY_FT_Destroy_Class_psnames_module_class
YIc:__ZNK12b2WheelJoint17GetReactionTorqueEf
jBj:__ZNK15dense_hashtableINSt3__24pairIK10KeyWrapperIPK11Il2CppClassEPKcEES6_N6il2cpp5utils11PointerHashIS3_EEN14dense_hash_mapIS6_S9_SE_NS6_14EqualsComparerINS0_8equal_toIS5_EEEENS0_9allocatorISA_EEE9SelectKeyESJ_SL_E12test_deletedEj
f_i:_MRUList_Evict_m2430323183
Xhf:_ReadOnlyCollection_1_System_Collections_Generic_ICollectionU3CTU3E_Remove_m1060547576_gshared
N3g:__Z68RuntimeInvoker_Boolean_t3825574718_Rect_t3681755626_SByte_t454417549PFvvEPK10MethodInfoPvPS4_
Bve:_Array_InternalArray__get_Item_TisRuntimeObject_m371871810_gshared
jLe:_NullTextWriter_Write_m2306984725
RD:__ZN8Animator13BatchedFKPassERK13dynamic_arrayIP14PlayableOutputLj4EE
qHf:_RecordProtocol_ProcessChangeCipherSpec_m3233959862
iBi:_Component_GetComponent_m4225719715
bqc:__Z75Register_UnityEngine_Playables_PlayableHandle_INTERNAL_CALL_SetTimeInternalv
oId:_Graphic_set_raycastTarget_m1229173591
qte:_Array_Sort_TisVector4_t2243707581_m474199742_gshared
EXe:_List_1_CheckIndex_m2247532995_gshared
JOh:__ZL93GUIUtility_t3275770671_CustomAttributesCacheGenerator_GUIUtility_set_guiIsExiting_m2362636745P21CustomAttributesCache
eLe:_TextWriter_Write_m576684782
vaj:_Vector3_Max_m2105825185
Uj:_glIsVertexArray
kJb:__ZNSt3__26vectorIN4core12basic_stringIcNS1_20StringStorageDefaultIcEEEE13stl_allocatorIS5_L18MemLabelIdentifier12ELi16EEEC2INS_11__wrap_iterIPS5_EEEET_SE_RKS8_PNS_9enable_ifIXaasr21__is_forward_iteratorISE_EE5valuesr16is_constructibleIS5_NS_15iterator_traitsISE_E9referenceEEE5valueEvE4typeE
JXa:__ZN25SingleBlockMemoryFileDataC2E18MemLabelIdentifierPvjb
Unb:__ZN5Unity9Component8TransferI18StreamedBinaryReadILb0EEEEvRT_
fa:invoke_fff
wmi:_Text_get_fontSize_m3105730761
mok:b14
HGf:_TlsServerHello_Update_m1740270635
c6c:__ZN2UI6Canvas17MainThreadCleanupEv
Swa:__ZN6prcoreL12RemapGenericI17TexFormatARGB155517TexFormatRGBA8888EEvPKNS_9InnerInfoE
cji:_ScrollRect_Rebuild_m3423824761
g1e:_List_1_Find_m3862454845_gshared
pDd:_CanvasScaler_get_physicalUnit_m3637173174
Jxh:__ZL85Locale_t4255929015_CustomAttributesCacheGenerator_Locale_GetText_m1445803604____args1P21CustomAttributesCache
WZi:_MatchCollection_get_Item_m2609281578
AUa:__ZN7ApiGLES13CreateProgramEv
esb:__ZN11HaloManager7AddHaloEv
Ljg:_UTF8Encoding__ctor_m100325490
TOa:__ZN4crnd12crn_unpackerD2Ev
$li:_StencilMaterial_ClearAll_m1372779118
ek:_emscripten_glTexImage2D
sWf:_ObjRefSurrogate_SetObjectData_m1873902916
c3c:_tt_driver_class_pic_init
e9:__ZN18ScriptingArguments9AddStringEPKc
s7j:_setup_header
yff:_ReadOnlyCollection_1_System_Collections_IList_get_IsReadOnly_m1367736517_gshared
vBh:__ZL116Component_t3819376471_CustomAttributesCacheGenerator_Component_GetComponentsInParent_m1920178904____includeInactive1P21CustomAttributesCache
Rkk:runPostSets
ZSh:__ZL93AxisEventData_t1524870173_CustomAttributesCacheGenerator_AxisEventData_set_moveDir_m254243794P21CustomAttributesCache
NCa:__ZL23stbir__resize_arbitraryPvPKviiiS_iiiffffPfiij14stbir_datatype12stbir_filterS4_10stbir_edgeS5_16stbir_colorspace
_Ye:_List_1_System_Collections_IList_Insert_m848656350_gshared
JRb:__Z18Transfer_BlittableI24GenerateTypeTreeTransferLb1E8Vector4fEvRK29SerializationCommandArgumentsR31RuntimeSerializationCommandInfo
mCe:_Int16_ToString_m3971652088_AdjustorThunk
pk:_pthread_detach
VCj:__ZN6il2cpp2vm19SocketPollingThread7RunLoopEv
qQe:_KeyValuePair_2__ctor_m1640124561_AdjustorThunk
GVf:_MethodDictionary_AllocInternalProperties_m3261295876
cdc:__ZN15DirectorManager20ScheduleGraphDestroyERK14HPlayableGraph
IFa:__ZNSt3__213__stable_sortIRN10vector_mapI17ScriptingClassPtrPKN5Unity4TypeENS_4lessIS2_EENS_9allocatorINS_4pairIS2_S6_EEEEE13value_compareENS_11__wrap_iterIPSB_EEEEvT0_SJ_T_NS_15iterator_traitsISJ_E15difference_typeEPNSM_10value_typeEi
Fzh:__ZL77U3CPrivateImplementationDetailsU3E_t1486305139_CustomAttributesCacheGeneratorP21CustomAttributesCache
Y0b:__ZN9ShaderLab25SerializedTextureProperty8TransferI24GenerateTypeTreeTransferEEvRT_
Nsj:_Comparison_1_Invoke_m2645957248_gshared
Ovk:_emscripten_glIsShader__wrapper
UNj:__ZN6il2cpp2gc19AppendOnlyGCHashMapINSt3__24pairIPK14Il2CppAssemblyP11Il2CppClassEEP24Il2CppReflectionAssembly17ReflectionMapHashIS9_ENS2_8equal_toIS9_EEEC2Ev
s_c:_tt_cmap14_char_next
nmh:__ZL69AssemblyTrademarkAttribute_t3740556705_CustomAttributesCacheGeneratorP21CustomAttributesCache
LKa:__ZN13GfxDeviceGLES28GetNativeVertexBufferPointerEP9GfxBuffer
lra:__ZN11NamedObject8TransferI18StreamedBinaryReadILb0EEEEvRT_
wTa:__ZNK17GPUSkinPoseBuffer12GetBoneCountEv
Xwc:__Z32GUIStyle_Get_Custom_PropFontSizeP12Il2CppObject
I$f:_DelegatePInvokeWrapper_CallbackHandler_t362827733
bxh:__ZL59ResolveEventArgs_t1859808873_CustomAttributesCacheGeneratorP21CustomAttributesCache
khj:_UnityAction_1_BeginInvoke_m3462722079_gshared
nWj:__ZNK15dense_hashtableINSt3__24pairIK10KeyWrapperIP14Il2CppIUnknownEjEES5_N6il2cpp5utils11PointerHashIS3_EEN14dense_hash_mapIS5_jSB_NS5_14EqualsComparerINS0_8equal_toIS4_EEEENS0_9allocatorIS7_EEE9SelectKeyESG_SI_E12test_deletedEj
Mbg:_EventInfo_get_MemberType_m3337516651
oDc:__Z18Transfer_BlittableI8JSONReadLb1EyEvRK29SerializationCommandArgumentsR31RuntimeSerializationCommandInfo
Mk:_emscripten_glMatrixMode
yw:__ZN8Animator23VirtualRedirectTransferER18StreamedBinaryReadILb0EE
Slh:__ZL93TypeBuilder_t3308873219_CustomAttributesCacheGenerator_TypeBuilder_GetConstructors_m774120094P21CustomAttributesCache
hHe:_NotSupportedException__ctor_m836173213
cWf:_MethodReturnDictionary__ctor_m756139344
Y0:__ZN11UnityEngine15CloudWebService14DataDispatcher16PrepareDataBlockERNS0_16SessionContainerE
RUa:__ZN18GfxFramebufferGLES5ClearE13GfxClearFlagsRK10ColorRGBAffib
Z6g:__Z70RuntimeInvoker_Void_t1841601450_Playable_t1896841784_Int32_t2071877448PFvvEPK10MethodInfoPvPS4_
f2e:_List_1_GetIndex_m2513359832_gshared
EVg:__Z52RuntimeInvoker_Single_t2076509932_Double_t4078015681PFvvEPK10MethodInfoPvPS4_
iYb:__ZL26Transfer_SimpleNativeClassI18StreamedBinaryReadILb0EE10RectOffsetLb0EEvRK29SerializationCommandArgumentsR31RuntimeSerializationCommandInfo
NWc:_UNITY_ft_destroy_default_module_classes
Qtf:_SymmetricTransform_FinalDecrypt_m3674669784
FVe:_List_1_CheckMatch_m1772343151_gshared
j5a:__ZL12DepthPassJobPN21GfxDeviceAsyncCommand10ArgScratchEPKNS_3ArgE
z$b:__ZNSt3__26vectorIN9ShaderLab20SerializedSubProgram16TextureParameterENS_9allocatorIS3_EEE6assignINS_11__wrap_iterIPS3_EEEENS_9enable_ifIXaasr21__is_forward_iteratorIT_EE5valuesr16is_constructibleIS3_NS_15iterator_traitsISC_E9referenceEEE5valueEvE4typeESC_SC_
GEe:_IntPtr_Equals_m1214967011_AdjustorThunk
_$e:_List_1_Add_m3591975577_gshared
T9c:__Z55Register_UnityEngine_CanvasGroup_get_ignoreParentGroupsv
O6b:__Z13RegisterClassI19LowerResBlitTextureEvv
dTh:__ZL100PointerEventData_t1599784723_CustomAttributesCacheGenerator_U3CpointerPressRaycastU3Ek__BackingFieldP21CustomAttributesCache
Qm:FUNCTION_TABLE_iiiiiiiiiiii
Irb:__ZN16GraphicsSettingsD0Ev
bkb:__Z29StdTemplateConversionFunctionIshEbPvR14SafeBinaryRead
idb:__ZN15LODGroupManager21CalculateLODDataArrayERK13LODParametersPK6Cameraf
n:cttz_i8
X0c:_UNITY_FT_GlyphLoader_Add
MHh:__ZL108Physics2D_t2540166467_CustomAttributesCacheGenerator_Physics2D_GetRayIntersectionAll_m253330691____distance1P21CustomAttributesCache
Pye:_DateTimeFormatInfo_get_FullDateTimePattern_m2607507656
fHf:_HttpsClientStream_RaiseServerCertificateValidation_m3356770426
ube:_DelegateSerializationHolder__ctor_m3915060553
nJb:__ZN15SerializeTraitsINSt3__26vectorIN30RuntimeInitializeOnLoadManager9ClassInfoE13stl_allocatorIS3_L18MemLabelIdentifier12ELi16EEEEE8TransferI24GenerateTypeTreeTransferEEvRS7_RT_
Kte:_Array_swap_TisUIVertex_t1204258818_TisUIVertex_t1204258818_m1163375424_gshared
Il:_emscripten_glViewport
n5b:__Z21GenerateTilingAreaJobP22GenerateTilingAreaInfoj
H3j:__ZN6il2cpp6icalls8mscorlib6System15MonoCustomAttrs17IsDefinedInternalEP12Il2CppObjectP20Il2CppReflectionType
iCb:__ZN4Mesh21UnswizzleVertexColorsEb
Aja:__ZN30dense_hashtable_const_iteratorINSt3__24pairIKN4core12basic_stringIcNS2_20StringStorageDefaultIcEEEEP11AssetBundleEES6_20StringHash32FunctionIS6_EN14dense_hash_mapIS6_S9_SC_NS0_8equal_toIS6_EENS0_9allocatorISA_EEE9SelectKeyESF_SH_EppEv
wGf:_TlsServerSettings_set_CertificateTypes_m264196087
$Ii:_InternalEnumerator_1__ctor_m4150855019_gshared
w8d:_DateTime_ToString_m2276663647_AdjustorThunk
$2c:_cff_parse_font_bbox
okc:__Z35Application_Get_Custom_PropIsEditorv
dw:__GLOBAL__sub_I_runtime_animation2_lump_cpp
bHb:__ZN14PlayerSettings23VirtualRedirectTransferER18StreamedBinaryReadILb0EE
EPe:_KeyValuePair_2__ctor_m3201181706_AdjustorThunk
wck:__ZN6il2cpp2os5Event5ResetEv
Qef:_ReadOnlyCollection_1_System_Collections_IList_Insert_m1130110335_gshared
Ykj:_AesManaged__ctor_m2322442838
CYj:__ZN6il2cpp8metadata15GenericMetadata17InflateParametersEPK13ParameterInfohPK20Il2CppGenericContextb
RDe:_Int64_System_IConvertible_ToUInt32_m850395426_AdjustorThunk
haa:__ZN18AwakeFromLoadQueue28InvokePersistentManagerAwakeEPNS_4ItemEj17AwakeFromLoadMode
p8f:_TypeBuilder_GetMethodsByName_m229541072
Jxi:_PCMReaderCallback_Invoke_m3610389815
Djd:_HMACSHA512__ctor_m2390736870
BC:__ZNK17AnimationPlayable27GetNextCompatibleDescendantEi
sak:__ZNSt3__26__treeINS_12__value_typeIPvxEENS_19__map_value_compareIS2_S3_NS_4lessIS2_EELb1EEENS_9allocatorIS3_EEE16__insert_node_atEPNS_16__tree_node_baseIS2_EERSD_SD_
Hob:__ZN4PPtrI6SpriteE8TransferI18StreamedBinaryReadILb0EEEEvRT_
l8f:_TypeBuilder_GetInterfaces_m1818658502
KIf:_TlsException_get_Alert_m4022765752
wxf:_BigInteger_op_Equality_m2683055762
Gna:__Z25SetNeedToPerformRenderingb
reg:_MonoMethod_GetPseudoCustomAttributes_m466965107
z0i:__ZN21InterfaceFuncInvoker0IP19LinkRef_t2090853131E6InvokeEjP11Il2CppClassP12Il2CppObject
_4h:_ValueCollection_System_Collections_Generic_IEnumerableU3CTValueU3E_GetEnumerator_m1604400448_gshared
S8a:__ZNSt3__227__insertion_sort_incompleteIR23CompareReflectionProbesP31RuntimeReflectionProbeBlendInfoEEbT0_S5_T_
y5a:__ZN14qsort_internal30FindAndMovePivotToLastPositionIP15RODataDepthPassi17ROSorterDepthPassEEvT_S4_T0_T1_
xgd:__ZN20UnityWebRequestProtoI19TransportJavaScript16AtomicRefCounter14RedirectHelper14ResponseHelper15DownloadHandler13UploadHandler12HeaderHelper14AsyncOperationE35Task_FinalizeAfterDHCompleteContentEPv
F4i:_ResourceRequest_t2560315377_marshal_pinvoke
v1h:_Enumerator_System_Collections_IDictionaryEnumerator_get_Value_m3005608231_gshared
Hoj:__ZL24UnresolvedVirtualCall_26P12Il2CppObjectS0_iiPK10MethodInfo
Vei:_MaskUtilities_NotifyStencilStateChanged_m1527407683
yRg:__Z94RuntimeInvoker_Void_t1841601450_RuntimeObject_Int32_t2071877448_RuntimeObject_SByte_t454417549PFvvEPK10MethodInfoPvPS4_
udb:__ZN12CullingGroup10SendEventsEPK17CullingGroupEventj
erf:_DSAManaged_GenerateKeyPair_m2711647034
djb:__ZN13sorted_vectorINSt3__24pairIN4core12basic_stringIcNS2_20StringStorageDefaultIcEEEES6_EEN10vector_mapIS6_S6_27compare_tstring_insensitiveIS6_E13stl_allocatorIS7_L18MemLabelIdentifier37ELi16EEE13value_compareESD_E9erase_oneIS6_EEjRKT_
qyb:__ZThn32_NK8Renderer8GetLayerEv
Lne:_Array_InternalArray__ICollection_Add_TisResourceCacheItem_t333236149_m1151081240_gshared
ych:__Z39RuntimeInvoker_RaycastHit2D_t4063908774PFvvEPK10MethodInfoPvPS4_
Dif:_ReadOnlyCollection_1_System_Collections_Generic_ICollectionU3CTU3E_get_IsReadOnly_m2197226755_gshared
xX:__ZN17AudioClipPlayable12PrepareFrameERK19DirectorVisitorInfo
V4d:_Convert_ToInt32_m2209788057
AXj:__ZN30dense_hashtable_const_iteratorINSt3__24pairIK10KeyWrapperINS1_IPKcS4_EEEiEES6_24NamespaceAndNamePairHashN14dense_hash_mapIS6_iS9_NS6_14EqualsComparerI26NamespaceAndNamePairEqualsEENS0_9allocatorIS8_EEE9SelectKeyESD_SF_E30advance_past_empty_and_deletedEv
uZf:_SoapServices_GetXmlTypeForInteropType_m3821579913
zmj:_EqualityComparer_1_System_Collections_IEqualityComparer_Equals_m3601790950_gshared
yOh:__ZL117GUIStyle_t1799908754_CustomAttributesCacheGenerator_GUIStyle_INTERNAL_CALL_Internal_GetCursorPixelPosition_m562482816P21CustomAttributesCache
Stk:_emscripten_glTexParameterfv__wrapper
Hfk:_Score__ctor_m4081798671
wGg:_Physics2D_INTERNAL_CALL_Internal_Raycast_m489831109
x$h:__ZL77Tile_t4036905256_CustomAttributesCacheGenerator_Tile_set_occupied_m2866260695P21CustomAttributesCache
$Gj:_il2cpp_method_get_param_count
V4b:__ZN10systeminfo19ISOToSystemLanguageERN4core12basic_stringIcNS0_20StringStorageDefaultIcEEEE
NMj:__ZNK15dense_hashtableINSt3__24pairIK10KeyWrapperINS1_IPK12PropertyInfoP11Il2CppClassEEEjEES9_17ReflectionMapHashIS8_EN14dense_hash_mapIS9_jSD_NS9_14EqualsComparerINS0_8equal_toIS8_EEEENS0_9allocatorISB_EEE9SelectKeyESI_SK_E3endEv
GQc:__ZN11Rigidbody2D8TransferI19StreamedBinaryWriteILb0EEEEvRT_
j4g:__Z34RuntimeInvoker_LogType_t1559732862PFvvEPK10MethodInfoPvPS4_
Joi:_AnimationClipPlayable_op_Explicit_m1819456049
a8i:_TouchScreenKeyboard_get_active_m1442597648
Oyh:__ZL68Uri_t19570940_CustomAttributesCacheGenerator_U3CU3Ef__switchU24map15P21CustomAttributesCache
r$c:_ps_dimension_done
wCd:_LayoutRebuilder_MarkLayoutForRebuild_m640589351
U5c:__Z46Register_UnityEngine_TextGenerator_Dispose_cppv
cAd:_PointerEventData_get_pressEventCamera_m724559964
pPh:__ZL96UnityWebRequest_t254341728_CustomAttributesCacheGenerator_UnityWebRequest_get_isDone_m3929051890P21CustomAttributesCache
Cpd:_String_IndexOfUnchecked_m3356721554
exb:__ZN16LightmapSettings8TransferI14SafeBinaryReadEEvRT_
aQa:__ZN17BufferManagerGLES13ReleaseBufferEP14DataBufferGLES
vPh:__ZL105UnityWebRequest_t254341728_CustomAttributesCacheGenerator_UnityWebRequest_set_downloadHandler_m1587492897P21CustomAttributesCache
lDc:__Z18Transfer_BlittableI8JSONReadLb1EjEvRK29SerializationCommandArgumentsR31RuntimeSerializationCommandInfo
EXh:__ZL63ScrollRect_t1199013257_CustomAttributesCacheGenerator_m_InertiaP21CustomAttributesCache
tcj:_PKCS12_Decrypt_m1557069392
Omi:_VertexHelper_AddUIVertexQuad_m280792808
lOf:_WebHeaderCollection_ToString_m1246460752
oJi:_InternalEnumerator_1_System_Collections_IEnumerator_get_Current_m2842514953_AdjustorThunk
op:stackSave
N$c:_ps_dimension_end
Zoc:__Z41Register_UnityEngine_Mesh_Internal_Createv
Ulb:__ZN16MemoryFileSystem5TouchER13FileEntryData
EEb:__ZN14SpriteRenderer23VirtualRedirectTransferER24GenerateTypeTreeTransfer
AYj:__ZNK15dense_hashtableI10KeyWrapperIP18Il2CppGenericClassES3_N6il2cpp8metadata22Il2CppGenericClassHashEN14dense_hash_setIS3_S6_NS3_14EqualsComparerINS5_25Il2CppGenericClassCompareEEENSt3__29allocatorIS3_EEE8IdentityESA_SD_E12test_deletedERK30dense_hashtable_const_iteratorIS3_S3_S6_SF_SA_SD_E
kPc:__ZNSt3__27__sort3IRN18Overlap2DQueryBase29ColliderHitsByDepthComparitorEPP10Collider2DEEjT0_S7_S7_T_
_Nf:_ServicePointManager_get_SecurityProtocol_m1445189298
Ujd:_MACTripleDES_Initialize_m1318099802
jAf:_MD5SHA1_VerifySignature_m507888141
vUd:_Byte_System_IConvertible_ToChar_m4188836679
xye:_NumberFormatter_InitDecHexDigits_m2036076025
ABi:_Component_SendMessageUpwards_m2041012277
_1h:_Enumerator_get_CurrentKey_m3839846791_AdjustorThunk
_Dc:__ZN8JSONRead21TransferSTLStyleArrayI13dynamic_arrayIaLj1EEEEvRT_18MemLabelIdentifier17TransferMetaFlags
pfb:__ZN6Camera9SetAspectEf
Mgd:__ZN19TransportJavaScript9DoRequestERKN4core12basic_stringIcNS0_20StringStorageDefaultIcEEEEm21UnityWebRequestMethodS6_bbP12HeaderHelperP13UploadHandlerP15DownloadHandlerP14ResponseHelperP15UnityWebRequest
bFd:_ColorTween_get_ignoreTimeScale_m641454126_AdjustorThunk
wa:invoke_viiffiii
a5g:__Z144RuntimeInvoker_Void_t1841601450_RuntimeObject_Vector2_t2243707579_Vector2_t2243707579_Color32_t874517518_Vector2_t2243707579_Vector2_t2243707579PFvvEPK10MethodInfoPvPS4_
Zef:_ReadOnlyCollection_1_Contains_m1800950533_gshared
rUh:__ZL79TouchInputModule_t2561058385_CustomAttributesCacheGenerator_m_ForceModuleActiveP21CustomAttributesCache
ivk:_emscripten_glBindVertexArray__wrapper
X5g:__Z52RuntimeInvoker_Vector2_t2243707579_Int32_t2071877448PFvvEPK10MethodInfoPvPS4_
Nzf:_MD4__ctor_m2366413460
QCi:_Display__ctor_m563295973
EOh:__ZL97GUIStyle_t1799908754_CustomAttributesCacheGenerator_GUIStyle_Internal_CalcMinMaxWidth_m3660306863P21CustomAttributesCache
d9h:_Dictionary_2_InitArrays_m435313205_gshared
yP:__ZN10ObjectPoolIN4FMOD3DSPENS0_4DSPIEE7GetFreeEi
fwi:_AttributeHelperEngine_GetDefaultExecutionOrderFor_m451063166
fgb:__ZN9Transform37InitializeTransformHierarchyRecursiveER18TransformHierarchyRii
e8b:__Z34DefaultPrepareDispatchBoundsUpdateR13RendererScene18MemLabelIdentifier
pId:_Graphic_get_useLegacyMeshGeneration_m1366444625
ZNf:_ServicePointManager_get_CheckCertificateRevocationList_m4009410230
nWh:__ZL65InputField_t1631627530_CustomAttributesCacheGenerator_m_InputTypeP21CustomAttributesCache
Fpj:__ZL24UnresolvedVirtualCall_78P12Il2CppObjectPK10MethodInfo
tpf:_ModulusRing_Pow_m1137250399
RPi:_InternalEnumerator_1_MoveNext_m2410670600_AdjustorThunk
F1a:__ZN17MeshRenderingData4InitEP4MeshS1_iP15SharedGfxBufferS3_
Vgj:_InvokableCall_2_Find_m1763382885_gshared
Ihf:_ReadOnlyCollection_1_System_Collections_ICollection_get_SyncRoot_m2779904122_gshared
Pdi:_EqualityComparer_1_System_Collections_IEqualityComparer_Equals_m1682986002_gshared
b$d:_Hashtable__cctor_m2952659675
ySf:_X509ChainStatus__ctor_m3628359961_AdjustorThunk
PZh:__ZL77LayoutUtility_t4076838048_CustomAttributesCacheGenerator_U3CU3Ef__amU24cache4P21CustomAttributesCache
Tpd:_Evidence_get_HostEvidenceList_m2095478124
Gsc:__Z57Register_UnityEngine_Transform_INTERNAL_set_localPositionv
oDf:_Context_Clear_m4000337070
_Ka:__ZN13GfxDeviceGLES26SetRandomWriteTargetBufferEi15ComputeBufferID
iVf:_IntervalCollection_Normalize_m538796191
f$a:__ZZ23InitPlayerLoopCallbacksvEN49EarlyUpdateResetFrameStatsAfterPresentRegistrator7ForwardEv
D1d:_Console_SetEncodings_m342145566
k8i:_TrackedReference_op_Equality_m3491334086
gId:_FontUpdateTracker_UntrackText_m3827316510
PLj:__ZN6il2cpp2gc19AppendOnlyGCHashMapINSt3__24pairIPK11Il2CppImageP11Il2CppClassEEP22Il2CppReflectionModule17ReflectionMapHashIS9_ENS2_8equal_toIS9_EEE10CopyValuesEPv
Nve:_Array_InternalArray__get_Item_TisSingle_t2076509932_m1495809753_gshared
hre:_Array_InternalArray__set_Item_TisAnimatorClipInfo_t3905751349_m978873279_gshared
ihc:__ZNK11ICallString6ToUTF8Ev
j1i:_CaptureAssertion_get_Alternate_m2729005740
x5j:_GC_number_stack_black_listed
AWj:__ZN24dense_hashtable_iteratorINSt3__24pairIK10KeyWrapperIP14Il2CppIUnknownEjEES5_N6il2cpp5utils11PointerHashIS3_EEN14dense_hash_mapIS5_jSB_NS5_14EqualsComparerINS0_8equal_toIS4_EEEENS0_9allocatorIS7_EEE9SelectKeyESG_SI_E30advance_past_empty_and_deletedEv
z5a:__ZNSt3__211__sift_downIR17ROSorterDepthPassP15RODataDepthPassEEvT0_S5_T_NS_15iterator_traitsIS5_E15difference_typeES5_
_4f:_Default_SelectMethod_m3081239996
wua:__ZN18UnityPropertySheet11UnityTexEnvC2Ev
ujc:__ZNSt3__214__split_bufferIPN9BlobWrite11TypeContextENS_9allocatorIS3_EEE10push_frontERKS3_
iE:__ZN8Animator17ApplyOnAnimatorIKEiRNS_11AnimatorJobE
pda:__ZN12FileAccessor4ReadEyyPvPy
Wsa:__ZN13dynamic_arrayI16ShaderKeywordSetLj4EE6insertEPS0_PKS0_S4_
mZb:__Z29Transfer_Blittable_ArrayFieldI18StreamedBinaryReadILb0EE11QuaternionfEvRT_R9ArrayInfoRK23StaticTransferFieldInfo
IVf:_MethodDictionary_IsOverridenKey_m3922224650
q0d:_SyncHashtable_Contains_m3042906549
Vgc:__ZN15dense_hashtableINSt3__24pairIKiiEEi21InstanceIDHashFunctorN14dense_hash_mapIiiS4_NS0_8equal_toIiEE13stl_allocatorIS3_L18MemLabelIdentifier136ELi16EEE9SelectKeyES7_SA_E12maybe_shrinkEv
Q2e:_List_1_System_Collections_IList_set_Item_m4016273526_gshared
PSf:_X509KeyUsageExtension_CopyFrom_m931530012
mpi:_AnimationLayerMixerPlayable_IsLayerAdditiveInternal_m3902226808
Reb:__ZN13RenderTexture9SetHeightEi
Rx:__ZN7mecanim9animation17ClearMotionOutputEPNS0_18AnimationNodeStateE
vtb:__ZN16LevelGameManager8TransferI24GenerateTypeTreeTransferEEvRT_
Jei:_LayoutUtility_U3CGetMinHeightU3Em__4_m1769295917
dBi:_Color32__ctor_m1932627809_AdjustorThunk
VJf:_SslStreamBase_Read_m1036897444
Yti:_AnimatorControllerPlayable_INTERNAL_CALL_PlayInFixedTimeInternal_m44271350
Jgi:_RectMask2D_PerformClipping_m1232012832
u0g:__Z66RuntimeInvoker_AudioMixerPlayable_t1831808911_Playable_t1896841784PFvvEPK10MethodInfoPvPS4_
O2h:_Transform_1_Invoke_m4020530914_gshared
ZZc:_tt_cmap8_char_index
C9:__Z24scripting_class_get_name17ScriptingClassPtr
zfa:__ZN13RuntimeStaticI15GUIEventManagerLb0EE13StaticDestroyEPv
uwg:_GUILayoutGroup_ResetCursor_m3160916532
U1j:__ZN6il2cpp2os6Thread15CurrentThreadIdEv
jOb:__Z29Transfer_Blittable_ArrayFieldI14SafeBinaryReadjEvRT_R9ArrayInfoRK23StaticTransferFieldInfo
OMc:__ZN16CircleCollider2D13PrepareShapesER13dynamic_arrayIP7b2ShapeLj4EERK10Matrix4x4f
Rji:_ScrollRect_get_minWidth_m3151814267
re:_emscripten_set_keydown_callback
N$d:_Enumerator_get_Value_m3684748062
mqb:__ZN19StreamedBinaryWriteILb0EE21TransferSTLStyleArrayINSt3__26vectorI17SortingLayerEntryNS2_9allocatorIS4_EEEEEEvRT_17TransferMetaFlags
bqg:_UInt32_Parse_m3371984903
xda:__ZN12FileAccessorC2Ev
Ydj:_X509CertificateCollection_Compare_m1014334435
ehb:__ZN9Transform35SetLocalPositionWithoutNotificationERKN4math7_float3E
pch:__Z33RuntimeInvoker_TypeTag_t141209596PFvvEPK10MethodInfoPvPS4_
Z_i:_PatternLinkStack_GetCurrent_m2994645935
hrb:__ZN6Camera8TransferI19StreamedBinaryWriteILb0EEEEvRT_
Rlf:_Comparison_1__ctor_m2929820459_gshared
UOg:__Z59RuntimeInvoker_RuntimeObject_RuntimeObject_SByte_t454417549PFvvEPK10MethodInfoPvPS4_
jYi:_AsyncResult__ctor_m1183194429
tFj:__ZN6il2cpp2vm7Runtime12GetConfigDirEv
rJ:__ZN4PPtrI13MonoBehaviourE8TransferI18StreamedBinaryReadILb0EEEEvRT_
KVf:_MethodDictionary_set_Item_m3475146889
e9g:__Z71RuntimeInvoker_Int32_t2071877448_CustomAttributeNamedArgument_t94157543PFvvEPK10MethodInfoPvPS4_
Wph:__ZL62WellKnownObjectMode_t2630225581_CustomAttributesCacheGeneratorP21CustomAttributesCache
cni:_Toggle_PlayEffect_m3950629415
Fle:_Array_IndexOf_TisRuntimeObject_m214763038_gshared
Cah:__Z79RuntimeInvoker_Void_t1841601450_Int32_t2071877448_ParameterModifier_t1820634920PFvvEPK10MethodInfoPvPS4_
TKb:__Z39WriteQueueForTransferSignatureIntoCacheRK31TransferFunctionScriptingTraitsRK24TransferRequestSignature17ScriptingClassPtrR23CachedSerializationDataRb
aBa:__ZN13RenderManager18UpdateAllRenderersEv
kJ:__ZN18AnimatorController19TransferRuntimeDataI18StreamedBinaryReadILb0EEEEvRT_
Obd:__ZN22BaseUnityConnectClient30OnEnteringStatePausedOrStoppedEv
LLc:__ZN10ClipperLib7Clipper18SwapPositionsInAELEPNS_5TEdgeES2_
Sbf:_Collection_1_System_Collections_ICollection_get_SyncRoot_m2157752542_gshared
wMj:__ZN15dense_hashtableINSt3__24pairIK10KeyWrapperINS1_IPK12PropertyInfoP11Il2CppClassEEEjEES9_17ReflectionMapHashIS8_EN14dense_hash_mapIS9_jSD_NS9_14EqualsComparerINS0_8equal_toIS8_EEEENS0_9allocatorISB_EEE9SelectKeyESI_SK_E12resize_deltaEjj
cy:__ZN7mecanim5human12HumanPoseAddERNS0_9HumanPoseERKS1_S4_
ihj:_UnityAction_1__ctor_m2836997866_gshared
Hui:_Animator_ResetTrigger_m865269317
Rt:__Z14resize_trimmedINSt3__26vectorI24CompressedAnimationCurve13stl_allocatorIS2_L18MemLabelIdentifier25ELi16EEEEEvRT_j
juh:__ZL64AssemblyLoadEventArgs_t4233815743_CustomAttributesCacheGeneratorP21CustomAttributesCache
Waf:_Collection_1_IsFixedSize_m218241296_gshared
ahb:__Z24MergeTransformComponentsR9TransformS0_b
jti:_AnimatorControllerPlayable_IsInTransition_m3708059860
Wxi:_DelegatePInvokeWrapper_AudioConfigurationChangeHandler_t3743753033
SIe:_MonoIO_get_PathSeparator_m2635828107
FZf:_TypeInfo_get_TypeName_m1722081275
PGc:__ZN15b2CircleContactD0Ev
$Ne:_MonoType_get_Name_m865859211
Kfe:_CultureInfo__cctor_m2290268677
yFi:_ArrayReadOnlyList_1_System_Collections_IEnumerable_GetEnumerator_m3039869667_gshared
r$:__Z71Register_UnityEngine_Audio_AudioClipPlayable_INTERNAL_CALL_ValidateTypev
CYf:_RemotingConfiguration__cctor_m2129988840
l9e:_Collection_1_Insert_m44548038_gshared
tQi:_InternalEnumerator_1_MoveNext_m4175772187_AdjustorThunk
IOh:__ZL87GUIUtility_t3275770671_CustomAttributesCacheGenerator_U3CguiIsExitingU3Ek__BackingFieldP21CustomAttributesCache
J3j:__ZN6il2cpp2vm13ComObjectBase19GetRuntimeClassNameEPP15Il2CppHString__
sYb:__Z35Transfer_Blittable_FixedBufferFieldI18StreamedBinaryReadILb0EEyEvRK29SerializationCommandArgumentsR31RuntimeSerializationCommandInfo
Sj:_emscripten_glVertexAttribPointer
Wsb:__ZNK20IntermediateRenderer12GetSceneMaskEv
fza:__ZN14PreloadManager26UpdatePreloadingSingleStepENS_21UpdatePreloadingFlagsEi
gCg:_Material__ctor_m1440882780
xnd:_SHA512Managed_Initialize_m891287980
fqd:_SecurityException__ctor_m1484114982
PVi:_SinkProviderData_get_Children_m100594762
Dej:_X509Crl_GetHashName_m183504634
eRd:_Array_GetValue_m1507415734
Fqc:__Z57Register_UnityEngine_RectTransform_INTERNAL_set_anchorMinv
lxe:_Object_MemberwiseClone_m2655589444
bgf:_ReadOnlyCollection_1_System_Collections_IList_get_Item_m375043207_gshared
zwa:__ZN6prcoreL25inner_stretch_i8_bilinearEPKNS_9InnerInfoE
Hza:__ZL30RegisterFilteredObjectCallbackPP12Il2CppObjectiPv
sGe:_DirectoryInfo_ToString_m4208086799
Aeg:_MonoMethod_get_IsGenericMethod_m4276550811
l3h:_Transform_1_BeginInvoke_m3826027984_gshared
qoi:_AnimationEvent_set_time_m2162176572
s1:__ZN11UnityEngine15CloudWebService16SessionContainer24GetSessionHeaderJsonDataERKN4core12basic_stringIcNS2_20StringStorageDefaultIcEEEERNS2_13StringBuilderE
X3d:_Decimal_op_Implicit_m2149927308
kfa:__ZN13RuntimeStaticI21AssetReferenceStorageLb0EE13StaticDestroyEPv
Qpg:_UInt16_System_IConvertible_ToUInt32_m1864968312
w$j:__ZN6il2cpp6icalls8mscorlib6System9AppDomain22InternalGetProcessGuidEP12Il2CppString
LH:__ZNK25RuntimeAnimatorController30GetAnimationClipOverrideVectorEv
Crf:_KeyPairPersistence_get_UseMachineKeyStore_m560802076
E5e:_Collection_1_CopyTo_m1840908033_gshared
uY:__ZN19AudioPlayableOutput19DeallocateResourcesEv
W$h:_Enumerator_System_Collections_IDictionaryEnumerator_get_Entry_m345330700_AdjustorThunk
erk:_glBindRenderbuffer__wrapper
lEj:__ZNSt3__214__split_bufferIP9FieldInfoRNS_9allocatorIS2_EEEC2EjjS5_
kwd:_AbstractEventData__ctor_m3586111519
cSb:__Z18Transfer_BlittableI24GenerateTypeTreeTransferLb1EjEvRK29SerializationCommandArgumentsR31RuntimeSerializationCommandInfo
Izf:_MD2Managed_Padding_m410163267
jMj:__ZNK15dense_hashtableINSt3__24pairIK10KeyWrapperINS1_IPK11Il2CppImageP11Il2CppClassEEEjEES9_17ReflectionMapHashIS8_EN14dense_hash_mapIS9_jSD_NS9_14EqualsComparerINS0_8equal_toIS8_EEEENS0_9allocatorISB_EEE9SelectKeyESI_SK_E10test_emptyERK30dense_hashtable_const_iteratorISB_S9_SD_SM_SI_SK_E
xni:_Toggle_UnityEngine_UI_ICanvasElement_get_transform_m4177274032
Psb:__ZN11ColorRGBA328TransferI14SafeBinaryReadEEvRT_
G1h:_Enumerator_Dispose_m401572848_AdjustorThunk
BDh:__ZL85Input_t1785128008_CustomAttributesCacheGenerator_Input_get_touchSupported_m3352846145P21CustomAttributesCache
Vf:_emscripten_glClearDepth
Ebc:__ZNK8GUILayer22GetTypeVirtualInternalEv
jub:__ZN8Playable12SetPlayStateE9PlayState
szb:__ZN14SafeBinaryRead21TransferSTLStyleArrayINSt3__26vectorIN15QualitySettings14QualitySettingENS1_9allocatorIS4_EEEEEEvRT_17TransferMetaFlags
Nte:_Array_swap_TisVector2_t2243707579_m3359959735_gshared
HGe:_File_OpenText_m4058508963
OGb:__ZNSt3__26vectorINS_4pairIPKN5Unity4TypeE7Hash128EENS_9allocatorIS7_EEE8__appendEj
GZf:_WellKnownClientTypeEntry__ctor_m670594074
yCh:__ZL99GameObject_t1756533147_CustomAttributesCacheGenerator_GameObject_FindGameObjectsWithTag_m2154478296P21CustomAttributesCache
AVh:__ZL61FontData_t2614388407_CustomAttributesCacheGenerator_m_MinSizeP21CustomAttributesCache
PQj:__ZN15dense_hashtableINSt3__24pairIK10KeyWrapperIP11Il2CppClassES4_EES5_N6il2cpp8metadata16SZArrayClassHashEN14dense_hash_mapIS5_S4_SA_NS5_14EqualsComparerINS9_19SZArrayClassCompareEEENS0_9allocatorIS7_EEE9SelectKeyESE_SG_EC2ERKSJ_j
s7d:_DateTime_System_IConvertible_ToSingle_m3927769066_AdjustorThunk
l2c:_cff_font_load
X8i:_Enumerator_Reset_m950879083
nHf:_RecordProtocol_SendRecord_m2977889250
dkc:__Z13IsPathCreatedRKN4core12basic_stringIcNS_20StringStorageDefaultIcEEEE
RK:__ZN13ProduceHelperI13AnimationClipLb0EE7ProduceE18MemLabelIdentifier18ObjectCreationMode
TCa:__ZL22stbir__encode_scanlineP11stbir__infoiPvPfiii
vTg:__Z136RuntimeInvoker_Void_t1841601450_Byte_t3683104436_RuntimeObject_Int64U26_t763825331_ObjectU26_t597476745_SerializationInfoU26_t4051840202PFvvEPK10MethodInfoPvPS4_
dTc:__ZN20QuadTreeNodeRenderer13StaticDestroyEPv
o2:__ZN11UnityEngine15CloudWebService20WebRequestRestClient5AbortEv
T7b:__ZN9Transform12CleanupClassEv
SNg:__Z50RuntimeInvoker_Void_t1841601450_Double_t4078015681PFvvEPK10MethodInfoPvPS4_
K8j:__ZN6il2cpp6icalls8mscorlib6System9Threading16NativeEventCalls19CloseEvent_internalE12Il2CppIntPtr
QD:__ZN11UnityEngine9Animation33SetGenericTransformPropertyValuesERKNS0_30AnimatorGenericBindingConstantERKN7mecanim10ValueArrayEP9Transformb
mDf:_ClientContext_set_ClientHelloProtocol_m2246603449
vWc:_UNITY_FT_Set_Pixel_Sizes
BOd:_U3CMouseDragOutsideRectU3Ec__Iterator1_MoveNext_m2845491958
m0b:__ZNSt3__26vectorIN9ShaderLab19SerializedSubShaderENS_9allocatorIS2_EEE26__swap_out_circular_bufferERNS_14__split_bufferIS2_RS4_EE
zte:_Array_swap_TisAnimatorClipInfo_t3905751349_TisAnimatorClipInfo_t3905751349_m1375833338_gshared
tu:__ZN11UnityEngine9Animation28AnimationClipBindingConstant8TransferI24GenerateTypeTreeTransferEEvRT_
nBd:_StandaloneInputModule_IsModuleSupported_m623598506
TRj:__ZN6il2cpp2vmL24thread_cleanup_on_cancelEPv
qgg:_ResourceReader_Close_m3256966401
K1f:_SByte_ToString_m4105923225_AdjustorThunk
K$f:_StreamingContext_t1417235061_marshal_pinvoke_cleanup
Ofe:_CultureInfo_ConstructCurrentUICulture_m3363349599
sAb:__ZN13dynamic_arrayI7SubMeshLj4EE18resize_initializedEjRKS0_12ResizePolicy
PYh:__ZL75CanvasScaler_t2574720772_CustomAttributesCacheGenerator_m_FallbackScreenDPIP21CustomAttributesCache
yNe:_MonoType_GetEvent_m4160342003
tgi:_RawImage_set_texture_m2400157626
Lnj:_PrimeHelper_ToPrime_m1606935350_gshared
ctb:__Z30ProcessDynamicBatchGeometryJobP25DynamicVBOGeometryJobDataj
Mdi:_EqualityComparer_1__ctor_m81618677_gshared
X5a:__ZNSt3__27__sort4IRNS_6__lessI11CulledLightS2_EEPS2_EEjT0_S6_S6_S6_T_
YHj:__ZN6il2cpp2vm14TypeNameParser26ParseArrayModifierOptionalEv
Bwi:_AudioClipPlayable_INTERNAL_CALL_GetLoopedInternal_m3082735156
Pmf:_MSCompatUnicodeTable_Level3_m260824928
cPd:_LayoutElement_OnEnable_m3478706401
Paa:__Z26scripting_object_get_class18ScriptingObjectPtr
Ctj:_Func_3__ctor_m3917225629_gshared
Gfk:_U3CReadScoresFromDBU3Ec__Iterator2_MoveNext_m2193982753
q7b:__ZNK28MonoBehaviourPropertyBinding15GenerateBindingERKN4core12basic_stringIcNS0_20StringStorageDefaultIcEEEEbRN11UnityEngine9Animation14GenericBindingE
Zzg:_GUIStyle_CalcMinMaxWidth_m2027503105
gCe:_Int32_FindExponent_m3187554672
Orf:_KeyPairPersistence_Load_m1355205585
Qii:_ScrollRect_get_horizontalScrollbarVisibility_m4152068235
iDe:_Int32_ToString_m2960866144_AdjustorThunk
yfj:_Predicate_1_Invoke_m3539717340_gshared
coj:_HashSet_1_Contains_m3626542335_gshared
z8g:__Z104RuntimeInvoker_Int32_t2071877448_AnimatorClipInfo_t3905751349_AnimatorClipInfo_t3905751349_RuntimeObjectPFvvEPK10MethodInfoPvPS4_
jsd:_Single_CompareTo_m2081476257_AdjustorThunk
U0j:__ZN6il2cpp6icalls8mscorlib6System11Environment15internalGetHomeEv
znk:dynCall_iiiiiiffiiiiiiiiiffffiiii
Ycj:_PKCS12_get_Keys_m288413492
Vdk:_U3CShowGameOverScreenU3Ec__Iterator1_Reset_m601404735
Hnb:__ZNK5Unity9Component7GetNameEv
QEj:__ZNSt3__214__split_bufferIN6il2cpp6icalls8mscorlib6System12PropertyPairERNS_9allocatorIS5_EEEC2EjjS8_
Cvh:__ZL79Convert_t2607082565_CustomAttributesCacheGenerator_Convert_ToUInt16_m2130758075P21CustomAttributesCache
r$f:__ZN21InterfaceFuncInvoker4IP12Il2CppObjectS1_P28SerializationInfo_t22898743028StreamingContext_t1417235061S1_E6InvokeEjP11Il2CppClassS1_S1_S3_S4_S1_
ywh:__ZL58IFormatProvider_t2849799027_CustomAttributesCacheGeneratorP21CustomAttributesCache
nah:__Z75RuntimeInvoker_Void_t1841601450_Int32_t2071877448_KeyValuePair_2_t888819835PFvvEPK10MethodInfoPvPS4_
okj:_ObjectPool_1_Get_m3724675538_gshared
zib:__ZN13ScreenManagerD0Ev
DIc:__ZNK11b2RopeJoint16GetReactionForceEf
bF:__ZN7mecanim8skeleton26SkeletonPoseComputeGlobalQEPKNS0_8SkeletonEPKNS0_13SkeletonPoseTIN4math4trsXEEEPS7_ii
ZEc:__ZN8JSONRead21TransferSTLStyleArrayI13dynamic_arrayIfLj4EEEEvRT_18MemLabelIdentifier17TransferMetaFlags
xsj:__ZL25UnresolvedVirtualCall_232P12Il2CppObject20UIVertex_t1204258818PK10MethodInfo
vZe:_List_1_GetEnumerator_m2672519407_gshared
DE:__ZN9BlobWrite8TransferI22OffsetPtrArrayTransferIiEEEvRT_PKc17TransferMetaFlags
KTg:__Z82RuntimeInvoker_Boolean_t3825574718_SByte_t454417549_RuntimeObject_SByte_t454417549PFvvEPK10MethodInfoPvPS4_
zmf:_ContractionComparer_Compare_m314873025
tab:__ZN14qsort_internal18QSortSingleJobDataIP16RenderObjectDatai26RenderDeferredObjectSorterE7SortJobEPS4_
yQb:__Z18Transfer_BlittableI17RemapPPtrTransferLb1EjEvRK29SerializationCommandArgumentsR31RuntimeSerializationCommandInfo
OAg:_GUIUtility_EndGUIFromException_m2091524531
ADe:_Int64_System_IConvertible_ToDouble_m638786774
PT:__ZN4FMOD6System7releaseEv
R$d:_HashKeys_get_IsSynchronized_m4207641174
OTb:__Z18Transfer_BlittableI19StreamedBinaryWriteILb0EELb1E8BitFieldEvRK29SerializationCommandArgumentsR31RuntimeSerializationCommandInfo
Uca:__Z18PathToAbsolutePathRKN4core12basic_stringIcNS_20StringStorageDefaultIcEEEE
eZg:__Z44RuntimeInvoker_HashAlgorithmType_t1654661965PFvvEPK10MethodInfoPvPS4_
JQe:_Enumerator_MoveNext_m3078170540_AdjustorThunk
Tr:__ZN13AnimationClip23VirtualRedirectTransferER17RemapPPtrTransfer
$nd:_SymmetricAlgorithm_get_Padding_m718051685
O8j:__ZN6il2cpp6icalls8mscorlib6System10Reflection16MonoPropertyInfo16GetTypeModifiersEPvb
Qkj:_Action_Invoke_m3801112262
cOg:__Z79RuntimeInvoker_Decimal_t724701077_RuntimeObject_Int32_t2071877448_RuntimeObjectPFvvEPK10MethodInfoPvPS4_
XAi:_Color_Lerp_m3323752807
yCa:__ZL13BlitImageImplR14ImageReferenceiiRKS_NS_10ColorSpaceENS_8BlitModeEb
Wt:__ZNSt3__26vectorI24CompressedAnimationCurve13stl_allocatorIS1_L18MemLabelIdentifier25ELi16EEE7reserveEj
zuh:__ZL76Convert_t2607082565_CustomAttributesCacheGenerator_Convert_ToChar_m541258017P21CustomAttributesCache
sNg:__Z64RuntimeInvoker_RuntimeObject_Int16_t4041245914_Int16_t4041245914PFvvEPK10MethodInfoPvPS4_
GKh:__ZL157AnimatorControllerPlayable_t1744083903_CustomAttributesCacheGenerator_AnimatorControllerPlayable_INTERNAL_CALL_IsParameterControlledByCurveString_m3721812988P21CustomAttributesCache
pDa:__ZN29SerializeTraitsForStringTypesIN4core12basic_stringIcNS0_20StringStorageDefaultIcEEEEE8TransferI24GenerateTypeTreeTransferEEvRS4_RT_
Dzg:_GUIUtility_Internal_GetHotControl_m2510727642
WR:__ZN12AudioManager29ShutdownReinitializeAndReloadEv
dcj:_NetscapeCertTypeExtension_Decode_m2210025005
C6g:__Z56RuntimeInvoker_Void_t1841601450_KeyValuePair_2_t38854645PFvvEPK10MethodInfoPvPS4_
iLg:_RectTransform_GetLocalCorners_m1836626405
PZf:_BaseFixupRecord_DoFixup_m1821597450
pvj:__ZN15dense_hashtableINSt3__24pairIK10KeyWrapperIPK22Il2CppGenericParameterEP11Il2CppClassEES6_N6il2cpp5utils11PointerHashIS4_EEN14dense_hash_mapIS6_S9_SE_NS6_14EqualsComparerINS0_8equal_toIS5_EEEENS0_9allocatorISA_EEE9SelectKeyESJ_SL_E6insertERKSA_
LGe:_FileLoadException__ctor_m1356374414
rCf:_TlsStream_Reset_m1504601050
ETe:__ZN23InterfaceActionInvoker2IP23Int32U5BU5D_t3030399641iE6InvokeEjP11Il2CppClassP12Il2CppObjectS1_i
nNa:__ZN14DataBufferGLES16RecreateWithDataEjPKv
zjc:__Z29GetGlobalAllowNameConversionsv
Uhb:__ZN8Material8SetColorEN9ShaderLab16FastPropertyNameERK10ColorRGBAf
Kcg:_Module_GetCustomAttributes_m3581287913
iih:__ZL67Type_t_CustomAttributesCacheGenerator_Type_IsSubclassOf_m2450899481P21CustomAttributesCache
IV:__ZN11AudioSource23VirtualRedirectTransferER18StreamedBinaryReadILb0EE
pfa:__ZN21AssetReferenceStorageC2Ev
tUb:__ZN10RectOffset8TransferI19StreamedBinaryWriteILb0EEEEvRT_
KTc:__ZNSt3__26vectorIN4core12basic_stringIcNS1_20StringStorageDefaultIcEEEE13stl_allocatorIS5_L18MemLabelIdentifier34ELi16EEEC2INS_11__wrap_iterIPS5_EEEET_SE_RKS8_PNS_9enable_ifIXaasr21__is_forward_iteratorISE_EE5valuesr16is_constructibleIS5_NS_15iterator_traitsISE_E9referenceEEE5valueEvE4typeE
G9:__ZL41AssemblyNameMatchesWithOrWithoutExtensionPKcS0_
k8g:__Z53RuntimeInvoker_Boolean_t3825574718_Color32_t874517518PFvvEPK10MethodInfoPvPS4_
Ivi:_AssemblyIsEditorAssembly__ctor_m2639706522
FRa:__ZN14GfxContextGLES43AddRenderSurfaceToDeferredFBOInvalidateListEPK17RenderSurfaceGLES
RSj:__ZN6il2cpp6icalls8mscorlib6System9Threading6Thread15Thread_internalEP12Il2CppThreadP14Il2CppDelegate
esa:__ZN11NamedObject23VirtualRedirectTransferER14SafeBinaryRead
jhh:__ZL74RuntimeArray_CustomAttributesCacheGenerator_Array_BinarySearch_m3522310993P21CustomAttributesCache
lWc:__ZNSt3__26vectorIN20TextRenderingPrivate8FontImpl13CharacterInfoE13stl_allocatorIS3_L18MemLabelIdentifier1ELi16EEE6insertENS_11__wrap_iterIPKS3_EERS9_
pza:__ZN23PreloadManagerOperation6IsDoneEv
dFh:__ZL102DataUtility_t4181890362_CustomAttributesCacheGenerator_DataUtility_INTERNAL_CALL_GetOuterUV_m121019172P21CustomAttributesCache
CFj:__ZN6il2cpp2vm7Runtime15InvokeWithThrowEPK10MethodInfoPvPS5_
tvf:_X509Certificate_get_RawData_m3000055075
Vvj:__ZNSt3__26vectorIPK10Il2CppTypeNS_9allocatorIS3_EEE21__push_back_slow_pathIRKS3_EEvOT_
qec:__Z33GetHasChangedDeprecatedSystemMaskv
DNc:__ZN10Effector2D10EndContactEP9b2Contact
l3j:__ZN6il2cpp5utils11StringUtils11Utf16ToUtf8ERKNSt3__212basic_stringIDsNS2_11char_traitsIDsEENS2_9allocatorIDsEEEE
cch:__Z30RuntimeInvoker_Link_t865133271PFvvEPK10MethodInfoPvPS4_
f1h:_Enumerator_VerifyState_m1165543189_AdjustorThunk
_7d:_DateTime_AddSeconds_m722082155_AdjustorThunk
cZd:_SynchronizedArrayListWrapper_CopyTo_m956887031
bBj:__ZNSt3__213__lower_boundIRN6il2cpp5utils11collections13ArrayValueMapIPK10Il2CppType17Il2CppInteropData26InteropDataToTypeConverterNS1_8metadata14Il2CppTypeLessENSA_26Il2CppTypeEqualityComparerEE22LowerBoundFindComparerEPKS8_S7_EET0_SI_SI_RKT1_T_
zRi:_Comparer_1__ctor_m1202126643_gshared
MGh:__ZL92Transform_t3275118058_CustomAttributesCacheGenerator_Transform_get_parentInternal_m927919099P21CustomAttributesCache
QDa:__ZN21LightProbeProxyVolume18HasHardwareSupportEv
AOc:__ZNK20b2SeparationFunction17FindMinSeparationEPiS0_f
uwa:__ZN6prcoreL31inner_stretch_argb8888_bilinearEPKNS_9InnerInfoE
EVb:__Z18Transfer_BlittableI18StreamedBinaryReadILb1EELb1E8BitFieldEvRK29SerializationCommandArgumentsR31RuntimeSerializationCommandInfo
nYc:_UNITY_FT_Outline_Decompose
yFf:_TlsClientCertificate_get_ClientCertificate_m3062440489
Jpd:_StrongNamePublicKeyBlob_ToString_m3721281223
ZQh:__ZL80UnityEvent_t408735097_CustomAttributesCacheGenerator_UnityEvent__ctor_m588741179P21CustomAttributesCache
GIi:_InternalEnumerator_1_get_Current_m198513457_AdjustorThunk
kIh:__ZL116AudioClipPlayable_t192218916_CustomAttributesCacheGenerator_AudioClipPlayable_INTERNAL_CALL_ValidateType_m1977251214P21CustomAttributesCache
CMi:_InternalEnumerator_1__ctor_m1240086835_AdjustorThunk
X3a:__Z20scripting_object_new17ScriptingClassPtr
cAe:_TextInfo__ctor_m2782608694
pmc:__Z31Display_CUSTOM_GetSystemExtImpl13Il2Cpp_IntPtrPiS0_
a4e:_Queue_1_System_Collections_ICollection_CopyTo_m772787461_gshared
ptc:__Z58Register_UnityEngine_Object_Internal_CloneSingleWithParentv
wKj:__ZN24dense_hashtable_iteratorINSt3__24pairIK10KeyWrapperINS1_IPK9FieldInfoP11Il2CppClassEEEjEES9_17ReflectionMapHashIS8_EN14dense_hash_mapIS9_jSD_NS9_14EqualsComparerINS0_8equal_toIS8_EEEENS0_9allocatorISB_EEE9SelectKeyESI_SK_E30advance_past_empty_and_deletedEv
lAe:_TextInfo_ToUpper_m299550697
hqi:_AnimationOffsetPlayable_INTERNAL_CALL_SetRotationInternal_m2809009466
MBc:__ZN9JSONWrite8TransferI13dynamic_arrayI8BitFieldLj4EEEEvRT_PKc17TransferMetaFlags
nab:__ZN18ShadowMapJobHeaderD0Ev
vId:_Graphic_OnRectTransformDimensionsChange_m1610753363
Z5d:_Convert_ToUInt16_m3265369225
P:Math_exp
dNe:_MonoEnumInfo_get_Cache_m3551569711
Ro:FUNCTION_TABLE_iiifi
k$j:__ZN6il2cpp2os5posix13PosixAutoLockD2Ev
Ahe:_Array_InternalArray__ICollection_Contains_TisVector3_t2243707580_m3625701788_gshared
oGa:__ZNSt3__26vectorINS_4pairIyP17VertexDeclarationEENS_9allocatorIS4_EEE6insertENS_11__wrap_iterIPKS4_EERS9_
EXi:__ZN21InterfaceFuncInvoker0IP6Type_tE6InvokeEjP11Il2CppClassP12Il2CppObject
Jhh:__ZL66RuntimeArray_CustomAttributesCacheGenerator_Array_Sort_m1999601238P21CustomAttributesCache
G3e:_Enumerator__ctor_m1424070651_AdjustorThunk
aWb:__Z30TransferField_LinearCollectionI18StreamedBinaryReadILb1EEEvRK29SerializationCommandArgumentsR31RuntimeSerializationCommandInfo
Rfb:__ZN13MonoBehaviour9SetScriptERK4PPtrI10MonoScriptE18ScriptingObjectPtr
qhe:_Array_InternalArray__ICollection_Contains_TisPlayableBinding_t2498078091_m4267109606_gshared
VQc:__ZN13ProduceHelperI13BoxCollider2DLb0EE7ProduceE18MemLabelIdentifier18ObjectCreationMode
VXc:_UNITY_FT_Create_Class_sfnt_module_class
Pmi:_Text_CalculateLayoutInputHorizontal_m1578553982
RFh:__ZL87Object_t1021602117_CustomAttributesCacheGenerator_Object_DestroyObject_m282495858____t1P21CustomAttributesCache
fWj:__ZNSt3__218uninitialized_copyIPNS_4pairIK10KeyWrapperIP14Il2CppIUnknownEjEES8_EET0_T_SA_S9_
sae:_Decimal_IsZero_m3557909184_AdjustorThunk
JWd:_Char_ToString_m1401375624
akd:_MD5CryptoServiceProvider__cctor_m3309191799
Dma:__ZNK10FileSystem16LastErrorMessageEv
HIg:_ScriptPlayableOutput__ctor_m3107656159
GUf:_InterpreterFactory_get_NamesMapping_m3186583301
S3g:__Z74RuntimeInvoker_Vector2_t2243707579_Vector2_t2243707579_Vector2_t2243707579PFvvEPK10MethodInfoPvPS4_
EDh:__ZL87Input_t1785128008_CustomAttributesCacheGenerator_Input_get_compositionString_m636835668P21CustomAttributesCache
uSe:_Enumerator_System_Collections_IEnumerator_Reset_m3052395060_gshared
n8e:_Collection_1_System_Collections_ICollection_get_SyncRoot_m1997144145_gshared
Rxf:_Kernel_DwordDivMod_m3728402123
CJb:__ZN13MonoBehaviour13AwakeFromLoadE17AwakeFromLoadMode
rQb:__ZL26Transfer_SimpleNativeClassI17RemapPPtrTransfer8GradientLb1EEvRK29SerializationCommandArgumentsR31RuntimeSerializationCommandInfo
Eec:__ZN12CachedWriter9InitWriteER15CacheWriterBase
Zcc:__Z21UnsignedInt64ToStringy
Ejg:_UTF7Decoder__ctor_m549434986
ePi:_InternalEnumerator_1_get_Current_m1025321669_AdjustorThunk
lPh:__ZL95UnityWebRequest_t254341728_CustomAttributesCacheGenerator_UnityWebRequest_get_error_m1819765147P21CustomAttributesCache
EFg:_Object_t1021602117_marshal_pinvoke
ppc:__Z36MonoBehaviour_CUSTOM_InvokeRepeatingP12Il2CppObjectP12Il2CppStringff
Ssc:__Z66Register_UnityEngine_Transform_INTERNAL_CALL_InverseTransformPointv
Tha:__ZZN15DirectorManager15InitializeClassEvEN41FixedUpdateDirectorFixedUpdateRegistrator7ForwardEv
cKi:_InternalEnumerator_1_MoveNext_m2720582493_gshared
G9j:__ZN6il2cpp2os9MutexImpl7TryLockEjb
ATf:_Group__ctor_m4103922028
l0a:__ZN6Camera26ClearIntermediateRenderersEj
yDj:__ZNSt3__214__split_bufferI6pollfdRNS_9allocatorIS1_EEEC2EjjS4_
Tuk:_glLinkProgram__wrapper
cxa:__ZN6prcoreL12RemapGenericI17TexFormatARGB888815TexFormatBGR888EEvPKNS_9InnerInfoE
OSd:_BitConverter_ToUInt16_m2715119381
gkd:_MD5CryptoServiceProvider_ProcessFinalBlock_m1052610785
eO:__Z79AnimatorControllerPlayable_CUSTOM_INTERNAL_CALL_GetNextAnimatorClipInfoInternalR9HPlayablei
sZd:_BitArray_Set_m2878881714
kcf:_Collection_1_get_Item_m4215988522_gshared
fki:_Selectable_get_colors_m3501193396
OWj:__ZN6il2cpp6icalls8mscorlib6System13Globalization11CultureInfo35construct_internal_locale_from_nameEP17Il2CppCultureInfoP12Il2CppString
rSb:__ZL22Transfer_ManagedObjectI24GenerateTypeTreeTransferLb1EEvRK29SerializationCommandArgumentsR31RuntimeSerializationCommandInfo
xGh:__ZL72SceneManager_t90660965_CustomAttributesCacheGenerator_activeSceneChangedP21CustomAttributesCache
xnh:__ZL55COMException_t1790481504_CustomAttributesCacheGeneratorP21CustomAttributesCache
jqf:_ASN1_get_Count_m404940548
zXi:_ContextAttribute_Equals_m53324298
Czi:_Canvas_ForceUpdateCanvases_m2446828475
_j:_emscripten_set_main_loop_timing
qmc:__Z34Display_CUSTOM_GetRenderingExtImpl13Il2Cpp_IntPtrPiS0_
utg:_WeakReference_AllocateHandle_m1783929473
iNa:__ZN14DataBufferGLES12RecordRenderEv
Gse:_Array_Sort_TisRuntimeObject_m3674422195_gshared
rhb:__ZN14ImageReference10FlipImageYEv
drb:__Z32TransferEnumWithNameForceIntSizeI14SafeBinaryRead13TargetEyeMaskEvRT_RT0_PKc17TransferMetaFlags
rvc:__Z14GetDefaultSkini
Qfe:_CultureInfo_get_Name_m3316229893
Q7d:_DateTime_get_Ticks_m310281298_AdjustorThunk
vP:__ZN4FMOD3DSP9setBypassEb
rdf:_Collection_1_System_Collections_IList_get_Item_m287847793_gshared
imb:__Z19NormalizeWheelInputf
mTf:_CaptureCollection_CopyTo_m1982767892
ckb:__Z29StdTemplateConversionFunctionIsaEbPvR14SafeBinaryRead
Ihe:_Array_InternalArray__ICollection_Remove_TisLink_t865133271_m1984184141_gshared
aFc:__Z29Transfer_Blittable_ArrayFieldI8JSONReadhEvRT_R9ArrayInfoRK23StaticTransferFieldInfo
LPd:_LayoutRebuilder_IsDestroyed_m3442208294
khc:__ZN11MonoManager25GetImageFromAssemblyIndexEi
I0h:_Enumerator_VerifyState_m1547102902_AdjustorThunk
eck:__ZN6il2cpp2os20ThreadLocalValueImpl8SetValueEPv
w1a:__ZN22RenderingCommandBuffer20CleanupCommandBufferEv
_Tg:__Z165RuntimeInvoker_Void_t1841601450_UInt32U26_t2197289955_Int32_t2071877448_UInt32U26_t2197289955_Int32_t2071877448_Int32_t2071877448_Int32_t2071877448_Int32_t2071877448PFvvEPK10MethodInfoPvPS4_
Yah:__Z99RuntimeInvoker_Void_t1841601450_CustomAttributeTypedArgumentU5BU5DU26_t4216645529_Int32_t2071877448PFvvEPK10MethodInfoPvPS4_
qAc:__Z18Transfer_BlittableI9JSONWriteLb1EtEvRK29SerializationCommandArgumentsR31RuntimeSerializationCommandInfo
MGe:_FileLoadException__ctor_m918124939
rk:___syscall85
Rrj:__ZL25UnresolvedVirtualCall_198P12Il2CppObjectfPK10MethodInfo
kIg:_PlayableHandle_GetHashCode_m1983839661_AdjustorThunk
k3a:__ZNSt3__26__sortIRPFbP10GUIElementS2_EPS2_EEvT0_S7_T_
yyf:_SequentialSearchPrimeGeneratorBase_GenerateSearchBase_m2930465198
Jbc:__ZN16GraphicsSettings12CleanupClassEv
Goj:__ZL24UnresolvedVirtualCall_25P12Il2CppObjectS0_aPK10MethodInfo
V1j:__ZN6il2cpp2os6Thread19DetachCurrentThreadEv
Kvj:__ZN6il2cpp2vmL21SetupInterfacesLockedEP11Il2CppClassRKNS_2os12FastAutoLockE
WLb:__ZN11MonoManager23VirtualRedirectTransferER24GenerateTypeTreeTransfer
zRg:__Z102RuntimeInvoker_Int32_t2071877448_RuntimeObject_Int32_t2071877448_Int32_t2071877448_Int32U26_t455636984PFvvEPK10MethodInfoPvPS4_
NC:__ZN23AnimationPlayableOutput17SetSourcePlayableEP8Playable
aTf:_Capture__ctor_m885749277
$yg:_GUIStyle_set_clipOffset_m3871613343
CLd:_SubmitEvent__ctor_m222860306
o1:__ZN11UnityEngine15CloudWebService14DataDispatcher15SetupWebRequestEv
XKe:_TextWriter__cctor_m4047845042
KHf:_ReceiveRecordAsyncResult_get_Record_m1336421357
Mcd:__ZN11UnityEngine15PlatformWrapper13GetShaderCapsEv
tbb:__ZNSt3__211__sift_downIR26RenderDeferredObjectSorterP16RenderObjectDataEEvT0_S5_T_NS_15iterator_traitsIS5_E15difference_typeES5_
Uoi:_AnimationClipPlayable_SetApplyFootIK_m4007156901_AdjustorThunk
wuh:__ZL76Convert_t2607082565_CustomAttributesCacheGenerator_Convert_ToByte_m509311047P21CustomAttributesCache
q7h:_Dictionary_2_System_Collections_Generic_IEnumerableU3CSystem_Collections_Generic_KeyValuePairU3CTKeyU2CTValueU3EU3E_GetEnumerator_m1742521661_gshared
P3g:__Z87RuntimeInvoker_Void_t1841601450_RuntimeObject_StringU26_t638738783_StringU26_t638738783PFvvEPK10MethodInfoPvPS4_
WLd:_InputField_CaretBlink_m3960486606
bk:_emscripten_glGetProgramiv
msf:_SmallXmlParser_ReadCharacters_m1966365555
tJf:_InternalAsyncResult_get_CompletedWithError_m3993955322
scc:__ZN21FixedBehaviourManager6UpdateEv
Ojc:__ZN9Transform9SetParentEPS_NS_15SetParentOptionE
ugf:_ReadOnlyCollection_1_System_Collections_IList_Add_m527174473_gshared
B7:__ZN19ShaderPropertySheet8SetFloatEN9ShaderLab16FastPropertyNameEfNS_8SetFlagsE
oWh:__ZL68InputField_t1631627530_CustomAttributesCacheGenerator_m_AsteriskCharP21CustomAttributesCache
DAa:__ZN19RuntimeSceneManager24BeginIntegrateMainThreadEP10UnityScene
bkk:__ZNSt3__212basic_stringIcNS_11char_traitsIcEENS_9allocatorIcEEE6__initEPKcjj
P8i:_Transform_TransformPoint_m3272254198
y0j:__ZNSt3__2plIcNS_11char_traitsIcEENS_9allocatorIcEEEENS_12basic_stringIT_T0_T1_EERKS9_S6_
OLe:_LocalDataStoreSlot__cctor_m1192669356
T$b:__ZN9ShaderLab20SerializedSubProgramaSERKS0_
ilk:_roundf
Oud:_String_CreateString_m2556700934
kqb:__ZN18StreamedBinaryReadILb0EE21TransferSTLStyleArrayINSt3__26vectorI17SortingLayerEntryNS2_9allocatorIS4_EEEEEEvRT_17TransferMetaFlags
lki:_Selectable_get_targetGraphic_m137842753
Gw:__ZN8Animator15SetPrepareStageEv
Ali:_Slider_get_axis_m162140813
zdg:_MonoEventInfo_t2190036573_marshal_pinvoke
Lvj:__ZN6il2cpp2vmL24SetupTypeHierarchyLockedEP11Il2CppClassRKNS_2os12FastAutoLockE
pmb:__ZL11TextHandleriPK23EmscriptenKeyboardEventPv
VPd:_LayoutRebuilder_U3Cs_RebuildersU3Em__0_m3768099182
Yji:_ScrollRect_SetLayoutHorizontal_m3486408020
LVc:_destroy_face
tnj:_GenericEqualityComparer_1_GetHashCode_m116190842_gshared
p0h:_Enumerator_VerifyState_m1547102902_gshared
ilh:__ZL55StreamWriter_t3858580635_CustomAttributesCacheGeneratorP21CustomAttributesCache
BSc:__ZN5physx19PxAllocatorCallbackD2Ev
H_a:__ZN24dense_hashtable_iteratorINSt3__24pairIKN4core12basic_stringIcNS2_20StringStorageDefaultIcEEEEP20ArchiveStorageReaderEES6_20StringHash32FunctionIS6_EN14dense_hash_mapIS6_S9_SC_NS0_8equal_toIS6_EE13stl_allocatorISA_L18MemLabelIdentifier54ELi16EEE9SelectKeyESF_SI_EC2EPK15dense_hashtableISA_S6_SC_SK_SF_SI_EPSA_SQ_b
f9j:__ZN6il2cpp6icalls8mscorlib6System8Security12Cryptography24RNGCryptoServiceProvider13RngInitializeEP11Il2CppArray
R0e:_List_1_System_Collections_ICollection_get_IsSynchronized_m227393674_gshared
cNf:_IPAddress__cctor_m3624830012
RV:__ZN20SoundChannelInstance7setMuteEb
Xtb:__ZN4PPtrI5LightE8TransferI19StreamedBinaryWriteILb0EEEEvRT_
PKh:__ZL115AnimatorStateInfo_t2577870592_CustomAttributesCacheGenerator_AnimatorStateInfo_t2577870592____nameHash_PropertyInfoP21CustomAttributesCache
WOf:_AsnEncodedData_EnhancedKeyUsageExtension_m1452131166
S_h:__ZL74Score_t486597240_CustomAttributesCacheGenerator_U3CscoreU3Ek__BackingFieldP21CustomAttributesCache
DWb:__Z19TransferField_ArrayI18StreamedBinaryReadILb1EE27Converter_SimpleNativeClassI17AnimationCurveTplIfEEEvRK23StaticTransferFieldInfoR31RuntimeSerializationCommandInfoRT0_
TQc:__ZN7b2World18SetContactListenerEP17b2ContactListener
HTf:_GroupCollection_get_IsSynchronized_m1100663675
ONa:__ZN18GfxFramebufferGLES22MakeCurrentFramebufferENS_7BuiltinE
V8j:__ZN6il2cpp2vm12MarshalAlloc4FreeEPv
gUf:_Interpreter_Close_m1500459069
vk:_JS_SystemInfo_GetWidth
kDa:__ZN12CachedReader4ReadEPvj
R0c:_cf2_blues_init
KIi:_InternalEnumerator_1_System_Collections_IEnumerator_get_Current_m3600601141_gshared
Nmd:_SHA1Internal_HashFinal_m3188468925
Faj:_Vector3_op_Inequality_m799191452
U7a:__Z24CalculateLightShadowFadeRK6CamerafffR8Vector4f
L9:__ZN19RuntimeSceneManagerD2Ev
yxh:__ZL55HeaderHandler_t324204131_CustomAttributesCacheGeneratorP21CustomAttributesCache
kVi:_ChannelData_get_CustomProperties_m1470957369
Xte:_Dictionary_2_Do_ICollectionCopyTo_TisRuntimeObject_m545661084_gshared
E2:__ZN11UnityEngine15CloudWebService25WebRequestDownloadHandler17OnCompleteContentEv
twa:__ZN6prcore17GetIntegerBlitterE13TextureFormatS0_N14ImageReference8BlitModeE
Syi:_Camera_INTERNAL_CALL_ScreenPointToRay_m2752248646
CJc:__ZN13BoxCollider2DD0Ev
LLj:__ZN6il2cpp2gc19AppendOnlyGCHashMapINSt3__24pairIPK11Il2CppImageP11Il2CppClassEEP22Il2CppReflectionModule17ReflectionMapHashIS9_ENS2_8equal_toIS9_EEE11TryGetValueERKS9_PSB_
E1h:_Enumerator_VerifyState_m3173176371_AdjustorThunk
DTh:__ZL109PointerEventData_t1599784723_CustomAttributesCacheGenerator_PointerEventData_get_eligibleForClick_m2497780621P21CustomAttributesCache
gMf:_TypeConverterAttribute__cctor_m506796812
Mgg:_Encoding_get_IsReadOnly_m3729101432
yjc:__ZN9BlobWrite14ReduceCopyImplERK14ReduceCopyDataj
Qsg:_ValueType_t3507792607_marshal_pinvoke_back
FRi:_Comparer_1_System_Collections_IComparer_Compare_m1790257529_gshared
i9g:__Z55RuntimeInvoker_Int32_t2071877448_ILTokenInfo_t149559338PFvvEPK10MethodInfoPvPS4_
Dcg:_MethodInfo_get_ContainsGenericParameters_m572340060
VIc:__ZNK12b2WheelJoint10GetAnchorAEv
Ypk:_glShaderSource__wrapper
fYa:__ZN25MultiBlocksMemoryFileData17AdjustBlocksCountEj
vTj:__ZNSt3__214__split_bufferIN6il2cpp2vm22EmbeddedResourceRecordERNS_9allocatorIS3_EEED2Ev
tDf:_TlsClientHello__ctor_m1699671541
$ac:__ZZN12MeshRenderer15InitializeClassEvEN29FunctorImpl_134kDidModifyMesh4CallEPviR11MessageData
TTc:__ZN13TextRendering4Font8TransferI24GenerateTypeTreeTransferEEvRT_
eqi:_AnimationOffsetPlayable_GetRotation_m3608800497_AdjustorThunk
P_a:__ZN23ManagedAttributeManager15InitializeClassEv
dmc:__Z27CullingGroup_CUSTOM_DisposeP12Il2CppObject
KSj:__ZN6il2cpp6icalls8mscorlib6SystemL23CheckWideningConversionEjjj
z3g:__Z69RuntimeInvoker_Color_t2020392075_Color_t2020392075_Single_t2076509932PFvvEPK10MethodInfoPvPS4_
P1a:__ZN13ComputeShader15SetTextureParamEjRKN9ShaderLab16FastPropertyNameE9TextureID16TextureDimension
Rki:_Shadow_set_effectDistance_m1951993364
Yvg:_GUILayoutEntry_ApplyStyleSettings_m371609721
l9h:_Dictionary_2_ContainsKey_m416495915_gshared
Laf:_Collection_1_Remove_m1798559666_gshared
Bm:_glStencilMask
mUg:__Z70RuntimeInvoker_Boolean_t3825574718_Int16_t4041245914_Int32_t2071877448PFvvEPK10MethodInfoPvPS4_
a0j:__ZN6il2cpp2os10ThreadImpl16GetCurrentThreadEv
fEf:_TlsServerHelloDone__ctor_m2125611008
Z_d:_Hashtable__ctor_m2337481811
j1h:_Enumerator_System_Collections_IEnumerator_get_Current_m2010873149_gshared
qGd:_Resources_t2975512894_marshal_pinvoke_cleanup
roi:_AnimationEvent_get_messageOptions_m3547411650
nih:__ZL88Type_t_CustomAttributesCacheGenerator_Type_MakeGenericType_m2765875033____typeArguments0P21CustomAttributesCache
oYh:__ZL74SpriteState_t1353336012_CustomAttributesCacheGenerator_m_HighlightedSpriteP21CustomAttributesCache
jYf:_RealProxy__ctor_m2505535530
K6j:_GC_push_conditional_with_exclusions
Nqg:_UInt32_System_IConvertible_ToUInt16_m2798641702_AdjustorThunk
k_f:_BinaryFormatter_get_DefaultSurrogateSelector_m219714691
$y:__ZN21AnimationPosePlayableD0Ev
CF:__ZN12_GLOBAL__N_121ProcessAnimationBeginER35AnimationPlayableEvaluationConstantR32AnimationPlayableEvaluationInputR33AnimationPlayableEvaluationOutput
Dti:_AnimatorControllerPlayable_CrossFadeInFixedTime_m3016214003
tQg:__Z136RuntimeInvoker_Void_t1841601450_Int32_t2071877448_RuntimeObject_RuntimeObject_RuntimeObject_RuntimeObject_RuntimeObject_SByte_t454417549PFvvEPK10MethodInfoPvPS4_
gga:__ZN15dense_hashtableINSt3__24pairIKiiEEi21InstanceIDHashFunctorN14dense_hash_mapIiiS4_NS0_8equal_toIiEE13stl_allocatorIS3_L18MemLabelIdentifier65ELi16EEE9SelectKeyES7_SA_E9copy_fromERKSD_j
pdf:_Collection_1_System_Collections_IList_get_IsFixedSize_m3252091801_gshared
xFd:_FloatTween_get_ignoreTimeScale_m4161298485_AdjustorThunk
dfg:_MonoProperty_GetOptionalCustomModifiers_m3827844355
uik:_strrchr
jWi:__ZN21InterfaceFuncInvoker1IP8String_tS1_E6InvokeEjP11Il2CppClassP12Il2CppObjectS1_
esi:_AnimatorControllerPlayable_IsParameterControlledByCurve_m3990583163_AdjustorThunk
vnf:_SimpleCollator_GetSortKey_m2188419329
gZh:__ZL56LayoutElement_t2808691390_CustomAttributesCacheGeneratorP21CustomAttributesCache
phi:_Scrollbar_Set_m244028386
jtc:__Z27Object_CUSTOM_DestroyObjectP12Il2CppObjectf
aub:__ZN14RenderSettings27UpdateIndirectSpecularColorEv
beh:__Z102RuntimeInvoker_RuntimeObject_UILineInfo_t3621277874_UILineInfo_t3621277874_RuntimeObject_RuntimeObjectPFvvEPK10MethodInfoPvPS4_
yHb:__ZN14PlayerSettings8TransferI18StreamedBinaryReadILb0EEEEvRT_
wTi:_FixedBufferAttribute__ctor_m2048050068
wEj:__ZN6il2cpp6icalls8mscorlib6System8MonoType16GetMethodsByNameEP20Il2CppReflectionTypeP12Il2CppStringibS5_
WTi:_GCHandle__ctor_m2952050298
_ue:_LayoutGroup_SetProperty_TisAxis_t1431825778_m2174054513_gshared
Gyb:__ZN4PPtrI10GameObjectE8TransferI14SafeBinaryReadEEvRT_
Zei:_Mask_IsRaycastLocationValid_m62488857
tGa:__ZNSt3__27__sort3IRNS_4lessIN22BuiltinResourceManager8ResourceEEEPS3_EEjT0_S7_S7_T_
TQi:_DefaultComparer_Compare_m3472472212_gshared
hch:__Z31RuntimeInvoker_Slot_t2022531261PFvvEPK10MethodInfoPvPS4_
kHe:_MonoIO_GetLength_m2812344043
z$c:_ps_hints_t2mask
aSh:__ZL68UsedByNativeCodeAttribute_t3212052468_CustomAttributesCacheGeneratorP21CustomAttributesCache
Z8i:_RequestAtlasCallback_Invoke_m2414509569
wDb:__ZN10BlendShape8TransferI19StreamedBinaryWriteILb0EEEEvRT_
S8i:_Transform_IsChildOf_m10844547
$P:__Z32TransferEnumWithNameForceIntSizeI14SafeBinaryReadN10SampleClip8LoadTypeEEvRT_RT0_PKc17TransferMetaFlags
DEe:__Z21il2cpp_codegen_sizeofP11Il2CppClass
goa:__Z19GetTimeSinceStartupv
rrd:_SecurityFrame_get_Assembly_m2816566490
S$j:__ZN6il2cpp2os10ThreadImpl11SetPriorityENS0_14ThreadPriorityE
Q4c:_TT_Load_Composite_Glyph
Gbj:_NetFxCoreExtensions_CreateDelegate_m2492743074
Ghh:__ZL66RuntimeArray_CustomAttributesCacheGenerator_Array_Sort_m2323017822P21CustomAttributesCache
FRd:_Array_Sort_m2994254654
A2e:_List_1__ctor_m593058937_gshared
rke:_Array_InternalArray__IEnumerable_GetEnumerator_TisColor32_t874517518_m2198639025_gshared
m6a:__ZN29RenderNodeQueuePrepareContextC2Ev
cZ:__ZN10SampleClipC2E18MemLabelIdentifier18ObjectCreationMode
T0b:__ZN9ShaderLab20SerializedSubProgram16TextureParameter8TransferI24GenerateTypeTreeTransferEEvRT_
Blg:_Thread_set_Name_m1343706609
Jak:__ZN6il2cpp2os11MutexHandle4WaitEj
zic:__ZL34GetComponentsImplementationRecurseILb1ELi1ELi1EEbR10GameObjectbRK17CompareParametersRK39GetComponentsImplementation_ReturnValue
M0g:__Z75RuntimeInvoker_Playable_t1896841784_AnimationLayerMixerPlayable_t3057952312PFvvEPK10MethodInfoPvPS4_
Iak:__ZN6il2cpp2os11MutexHandle4WaitEv
cXd:_ArrayList_set_Capacity_m592558035
mya:__ZN6prcoreL17RemapGenericFloatI15TexFormatRGHalf18TexFormatARGBFloatEEvPKNS_9InnerInfoE
XMe:_MonoEnumInfo_t2335995564_marshal_pinvoke_cleanup
eqa:__ZNK13RenderTexture13GetDataHeightEv
_na:__Z18SimulateMouseInputi
M0a:__ZN13RenderManager23AddRemoveCamerasDelayedEv
uBc:__ZN9JSONWrite8TransferI13dynamic_arrayIdLj8EEEEvRT_PKc17TransferMetaFlags
rza:__ZN23PreloadManagerOperation11GetPriorityEv
oee:_Exception_get_InnerException_m3722561235
bie:_Array_InternalArray__ICollection_Remove_TisILTokenInfo_t149559338_m1523907845_gshared
kek:_PlayerController_ResetDestination_m3882061945
NBi:_ContactFilter2D_CheckConsistency_m1391185667
n2g:__Z105RuntimeInvoker_Void_t1841601450_Vector2U26_t3911752445_RuntimeObject_RuntimeObject_Vector2U26_t3911752445PFvvEPK10MethodInfoPvPS4_
p$e:_List_1_GetEnumerator_m4053501645_gshared
cDj:__ZN6il2cpp2gc9AllocatorIP17Il2CppAsyncResultE10deallocateEPvj
q$d:_Hashtable_Rehash_m2877670513
T3e:_Enumerator_System_Collections_IEnumerator_get_Current_m1853064751_gshared
Qeb:__ZN13RenderTexture8SetWidthEi
UNd:_InputField_Insert_m1593238693
G7b:__ZNK28RectTransformPropertyBinding12SetPPtrValueERKN11UnityEngine9Animation10BoundCurveEi
wXb:__Z18Transfer_BlittableI18StreamedBinaryReadILb0EELb0EfEvRK29SerializationCommandArgumentsR31RuntimeSerializationCommandInfo
KDb:__ZN10MeshFilterD0Ev
S4c:_UNITY_FT_GlyphLoader_CheckSubGlyphs
eDj:__ZN6il2cpp2vm21ThreadPoolCompartment20SpawnNewWorkerThreadEv
Gne:_Array_InternalArray__ICollection_Add_TisCustomAttributeTypedArgument_t1498197914_m3260005285_gshared
w8a:__Z25SetupObjectBakedOcclusionbRK15SharedLightDataRK26SharedLightmapSettingsDataRK15LightmapIndicesR17ShaderPassContext
f0d:_SyncHashtable_GetObjectData_m3774367030
OZi:__ZN21InterfaceFuncInvoker4IP17Match_t3164245899P17Regex_t1803876613P8String_tiiE6InvokeEjP11Il2CppClassP12Il2CppObjectS3_S5_ii
TAe:_Guid_GetHashCode_m1401300871
akj:_ListPool_1_U3Cs_ListPoolU3Em__0_m1243609651_gshared
byc:__Z42Register_UnityEngine_GUIStyle_set_fontSizev
kP:__Z82Register_UnityEngine_Animations_AnimatorControllerPlayable_INTERNAL_CALL_GetBoolIDv
moj:__ZL23UnresolvedVirtualCall_5P12Il2CppObjectsPK10MethodInfo
gH:__ZN4PPtrI6AvatarE8TransferI19StreamedBinaryWriteILb0EEEEvRT_
UD:__ZN8Animator9BuildJobsERK13dynamic_arrayIP14PlayableOutputLj4EERS0_INS_11AnimatorJobELj4EEPS7_bb
X7h:_Dictionary_2_System_Collections_IDictionary_set_Item_m115188189_gshared
T6:__ZN9ShaderLab16FastPropertyName4InitEPKc
CHc:__ZN11b2GearJointD0Ev
K6b:__Z13RegisterClassIN2UI13RectTransformEEvv
Tmf:_MSCompatUnicodeTable_ToWidthCompat_m2299599532
Muj:__ZN13Il2CppHashMapIPK22Il2CppGenericParameterP11Il2CppClassN6il2cpp5utils11PointerHashIS1_EENSt3__28equal_toIS2_EENS9_9allocatorINS9_4pairIK10KeyWrapperIS2_ES4_EEEEEC2EjRKS8_RKSB_
QOe:_NumberFormatter_get_IsFloatingSource_m2830957202
CAb:__ZN10VertexData8TransferI17RemapPPtrTransferEEvRT_
Jpa:__ZN13RenderTexture9SetMipMapEb
Ixj:__ZN15dense_hashtableINSt3__24pairIK10KeyWrapperIPK11Il2CppClassEPKcEES6_N6il2cpp5utils11PointerHashIS3_EEN14dense_hash_mapIS6_S9_SE_NS6_14EqualsComparerINS0_8equal_toIS5_EEEENS0_9allocatorISA_EEE9SelectKeyESJ_SL_E13set_empty_keyERKSA_
Yii:_ScrollRect_set_verticalScrollbarSpacing_m2356851539
Pna:__Z18GetDirectorManagerv
aIg:_PlayableHandle_INTERNAL_CALL_SetTimeInternal_m3873000891
xPe:_OperatingSystem_GetObjectData_m2276196875
G4i:_ResourceRequest_t2560315377_marshal_pinvoke_back
bTh:__ZL92PointerEventData_t1599784723_CustomAttributesCacheGenerator_U3CpointerDragU3Ek__BackingFieldP21CustomAttributesCache
nsc:__Z38Transform_CUSTOM_INTERNAL_get_rotationP12Il2CppObjectP11Quaternionf
GIj:__ZNSt3__26vectorIN6il2cpp2vm17TypeNameParseInfoENS_9allocatorIS3_EEE8allocateEj
snh:__ZL66CriticalFinalizerObject_t1920899984_CustomAttributesCacheGeneratorP21CustomAttributesCache
Jrj:__ZL25UnresolvedVirtualCall_190P12Il2CppObject20TimeSpan_t3430258949S1_PK10MethodInfo
ALj:__ZNK15dense_hashtableINSt3__24pairIK10KeyWrapperINS1_IPK10MethodInfoP11Il2CppClassEEEjEES9_17ReflectionMapHashIS8_EN14dense_hash_mapIS9_jSD_NS9_14EqualsComparerINS0_8equal_toIS8_EEEENS0_9allocatorISB_EEE9SelectKeyESI_SK_E5beginEv
$Pa:__ZN7ApiGLES19UploadBufferSubDataEjN2gl12BufferTargetEllPKv
cka:__ZNSt3__216__rotate_forwardINS_11__wrap_iterIPN4core12basic_stringIcNS2_20StringStorageDefaultIcEEEEEEEET_S9_S9_S9_
Rsd:_String_System_IConvertible_ToInt32_m1927223638
yie:_Array_InternalArray__ICollection_Remove_TisContentType_t1028629049_m3085152315_gshared
kI:__ZN7mecanim12statemachine20StateMachineConstant8TransferI14SafeBinaryReadEEvRT_
a3h:_Transform_1_EndInvoke_m4121732147_gshared
rzi:_Canvas_set_sortingOrder_m2922819993
Wdk:_U3CShowReadyScreenU3Ec__Iterator0_MoveNext_m1122652240
Jtg:_FailedToLoadScriptObject_t3605283378_marshal_pinvoke_back
YAi:_Color_get_red_m2410286591
Adk:_GameGUINavigation_H_ShowGameOverScreen_m432439124
gxi:_AudioMixerPlayable_Create_m3525453973
bvd:_ASCIIEncoding__ctor_m4127831672
RNb:__Z19TransferField_ArrayI14SafeBinaryRead27Converter_SimpleNativeClassI8GUIStyleEEvRK23StaticTransferFieldInfoR31RuntimeSerializationCommandInfoRT0_
PTg:__Z63RuntimeInvoker_Void_t1841601450_RuntimeObject_Int16_t4041245914PFvvEPK10MethodInfoPvPS4_
Dhg:_UTF8Encoding__ctor_m3336862259
MVj:__ZN15dense_hashtableINSt3__24pairIK10KeyWrapperIP14Il2CppIUnknownEjEES5_N6il2cpp5utils11PointerHashIS3_EEN14dense_hash_mapIS5_jSB_NS5_14EqualsComparerINS0_8equal_toIS4_EEEENS0_9allocatorIS7_EEE9SelectKeyESG_SI_ED2Ev
m9j:__ZN6il2cpp5utils10MemoryPoolC2Ej
pRf:_X509Chain_GetAuthorityKeyIdentifier_m2607407678
i9j:__ZN6il2cpp5utils10MemoryPoolC2Ev
Ftb:__ZN14RenderSettings5ResetEv
h5b:__ZN6Sprite9BindAtlasERK4PPtrI11SpriteAtlasE
RTj:__ZNSt3__212basic_stringIDsNS_11char_traitsIDsEENS_9allocatorIDsEEE6appendEPKDsj
fL:__ZZN8Animator15InitializeClassEvEN37FunctorImpl_421kDidModifyOverrideClip4CallEPviR11MessageData
QAd:_RaycastResult_set_gameObject_m1138581891_AdjustorThunk
ryi:_Bounds_get_extents_m4077324178_AdjustorThunk
kK:__ZN19StreamedBinaryWriteILb0EE21TransferSTLStyleArrayI22OffsetPtrArrayTransferIN7mecanim8skeleton19SkeletonMaskElementEEEEvRT_17TransferMetaFlags
QNi:_InternalEnumerator_1_get_Current_m3724267862_AdjustorThunk
oue:_Dictionary_2_Do_ICollectionCopyTo_TisKeyValuePair_2_t3716250094_m1740410536_gshared
Eai:_DefaultComparer__ctor_m580747638_gshared
Tug:_GUI_CallWindowDelegate_m2039577415
LJh:__ZL137AnimatorControllerPlayable_t1744083903_CustomAttributesCacheGenerator_AnimatorControllerPlayable_CrossFade_m3391147919____normalizedTime3P21CustomAttributesCache
stf:_RSAManaged_Dispose_m3018788098
WHc:__ZN12b2MouseJoint23InitVelocityConstraintsERK12b2SolverData
bzc:__ZN8Gradient8TransferI9JSONWriteEEvRT_
Pkg:_Monitor_Monitor_pulse_m2135582245
PEf:_Context_get_ReceivedConnectionEnd_m3369356276
Ocj:_X509CertificateEnumerator_MoveNext_m1422952050
ELf:_NameObjectCollectionBase_get_Count_m2353593692
Pmb:__ZNK12TLSAllocatorI14StackAllocatorE22GetAllocatedMemorySizeEv
aw:__ZN7mecanim6memory16ChainedAllocator8AllocateEjj
k6d:_Convert_ToUInt32_m3394039268
Tgb:__ZN17RemapPPtrTransfer12PushMetaFlagE17TransferMetaFlags
PW:__ZNK7WeakPtrI20SoundChannelInstanceE10SharedData9GetRawPtrEv
WYa:__ZN12HandlerChain4NameEv
_Fb:__ZNSt3__26vectorI9InputAxisNS_9allocatorIS1_EEE10deallocateEv
RBe:_Int16_Equals_m3925135434_AdjustorThunk
Ead:__Z44Register_UnityEngine_CanvasRenderer_get_cullv
F4h:_Enumerator_Dispose_m2532362830_AdjustorThunk
$jh:__ZL60IHashCodeProvider_t1980576455_CustomAttributesCacheGeneratorP21CustomAttributesCache
f7b:__ZN13ProduceHelperI13MonoBehaviourLb0EE7ProduceE18MemLabelIdentifier18ObjectCreationMode
KRe:_Enumerator_VerifyState_m1677639504_AdjustorThunk
Ekb:__Z29StdTemplateConversionFunctionIbbEbPvR14SafeBinaryRead
K2j:__ZNK15dense_hashtableINSt3__24pairIK10KeyWrapperIPK19Il2CppGenericMethodEP10MethodInfoEES6_N6il2cpp8metadata23Il2CppGenericMethodHashEN14dense_hash_mapIS6_S9_SD_NS6_14EqualsComparerINSC_26Il2CppGenericMethodCompareEEENS0_9allocatorISA_EEE9SelectKeyESH_SJ_E12test_deletedEj
DCf:_CipherSuiteCollection_get_Item_m280627160
nMb:__Z44InitializeTransferFunctionScriptingTraitsForI17RemapPPtrTransferEvR31TransferFunctionScriptingTraits
DXf:_SerializationInfoEnumerator_MoveNext_m1876990879
gng:_TimeSpan_Duration_m4205681645
lib:__ZN14UnityWebStream24UpdateAllUnityWebStreamsEv
E7e:_Collection_1_System_Collections_IList_get_IsReadOnly_m2329986891_gshared
Bih:__ZL60ObsoleteAttribute_t3878847927_CustomAttributesCacheGeneratorP21CustomAttributesCache
q$g:__Z79RuntimeInvoker_Playable_t1896841784_PlayableGraph_t1041204988_Int32_t2071877448PFvvEPK10MethodInfoPvPS4_
aEf:_Context_get_HandshakeState_m3443153737
gpe:_Array_InternalArray__ICollection_CopyTo_TisRaycastHit2D_t4063908774_m3837098618_gshared
qfk:_Point_Update_m800149140
BAa:__ZN18LoadSceneOperation21MustCompleteNextFrameEv
SV:__ZNK12AudioManager16GetAudioListenerEv
Gdg:_MonoField_get_FieldType_m598011426
D7e:_Collection_1_System_Collections_IList_get_IsFixedSize_m1624702704_gshared
OAh:__ZL48Camera_t189460977_CustomAttributesCacheGeneratorP21CustomAttributesCache
oeb:__ZNSt3__26vectorI11CameraStackNS_9allocatorIS1_EEE8__appendEj
pTj:__ZNSt3__212basic_stringIcNS_11char_traitsIcEENS_9allocatorIcEEE6__initINS_11__wrap_iterIPcEEEENS_9enable_ifIXsr21__is_forward_iteratorIT_EE5valueEvE4typeESB_SB_
sJc:__ZNK11Rigidbody2D20GetAttachedCollidersER13dynamic_arrayIP10Collider2DLj4EE
bNd:_InputField_OnDisable_m1865339380
Kqg:_UInt32_System_IConvertible_ToType_m747769316
Xx:__ZN7mecanim9animation12GetHumanPoseERKNS0_18ClipMuscleConstantEPKNS0_10ValueDeltaERNS_5human9HumanPoseE
xve:_Array_InternalArray__get_Item_TisInt16_t4041245914_m2533263979_gshared
Cz:__ZN22AnimationMixerPlayable17ProcessRootMotionEP35AnimationPlayableEvaluationConstantP32AnimationPlayableEvaluationInputP33AnimationPlayableEvaluationOutput
yUb:__Z29Transfer_Blittable_ArrayFieldI19StreamedBinaryWriteILb0EEjEvRT_R9ArrayInfoRK23StaticTransferFieldInfo
_ca:__Z13GetFileSystemv
pea:__ZNK5Unity4Type21FindAllDerivedClassesER13dynamic_arrayIPKS0_Lj4EENS0_17TypeFilterOptionsE
yfa:__ZN13RuntimeStaticI15GUIEventManagerLb0EE16StaticInitializeEPv
$Eb:__ZN14SafeBinaryRead8TransferIfEEvRT_PKc17TransferMetaFlags
yYb:__ZL12InvokeMethodI18StreamedBinaryReadILb0EEEvRK29SerializationCommandArgumentsR31RuntimeSerializationCommandInfo
gze:_DaylightTime_get_Delta_m2316831491
ZOc:__ZNSt3__27__sort5IR24RayHitsByDepthComparitorP12RaycastHit2DEEjT0_S5_S5_S5_S5_T_
whe:_Array_InternalArray__ICollection_Contains_TisUILineInfo_t3621277874_m1175659630_gshared
wmg:_WaitHandle_WaitOne_m370363697
ATh:__ZL114PointerEventData_t1599784723_CustomAttributesCacheGenerator_PointerEventData_set_pointerCurrentRaycast_m2431897513P21CustomAttributesCache
vTf:_FactoryCache_Lookup_m1681894361
s8d:_DateTime_Subtract_m698282245_AdjustorThunk
JEb:__ZThn32_N14SpriteRenderer15AddAsRenderNodeER15RenderNodeQueueRK20DeprecatedSourceData
X4b:__Z7OpenURLRKN4core12basic_stringIcNS_20StringStorageDefaultIcEEEE
Ikh:__ZL55BinaryReader_t2491843768_CustomAttributesCacheGeneratorP21CustomAttributesCache
nef:_Collection_1_InsertItem_m724820684_gshared
ewh:__ZL79Convert_t2607082565_CustomAttributesCacheGenerator_Convert_ToUInt64_m1896191125P21CustomAttributesCache
b2a:__ZN19ShaderPropertySheet9SetMatrixEN9ShaderLab16FastPropertyNameERK10Matrix4x4fNS_8SetFlagsE
eld:_RIPEMD160Managed_Initialize_m3365407578
hfc:__Z29GetTextureSizeAllowedMultiple13TextureFormat
bNf:_IPAddress_HostToNetworkOrder_m1092199707
Aje:_SetPropertyUtility_SetStruct_TisSpriteState_t1353336012_m2898060836_gshared
EKh:__ZL141AnimatorControllerPlayable_t1744083903_CustomAttributesCacheGenerator_AnimatorControllerPlayable_INTERNAL_CALL_ResetTriggerString_m2112584758P21CustomAttributesCache
__a:__ZZ23InitPlayerLoopCallbacksvEN52InitializationAsyncUploadTimeSlicedUpdateRegistrator7ForwardEv
vpd:_SecurityAttribute__ctor_m3425755778
Rcc:__ZN21IntermediateRenderers3AddEP20IntermediateRenderer
YFj:_il2cpp_array_element_size
YDi:_InvokableCall__ctor_m738302370
gg:_glCheckFramebufferStatus
cLh:__ZL55TextGenerator_t647235000_CustomAttributesCacheGeneratorP21CustomAttributesCache
Rke:_Array_compare_TisInt32_t2071877448_m840310202_gshared
qQi:_InternalEnumerator_1_System_Collections_IEnumerator_get_Current_m442726479_AdjustorThunk
O3:__ZN19CloudServiceHandler20StartEventDispatcherERKN11UnityEngine15CloudWebService18CloudServiceConfigERNS1_23WebRequestRestHeaderMapE
yOi:_InternalEnumerator_1_System_Collections_IEnumerator_get_Current_m790514740_AdjustorThunk
Yt:__ZNSt3__26vectorI24CompressedAnimationCurve13stl_allocatorIS1_L18MemLabelIdentifier25ELi16EEE6resizeEj
B7g:__Z78RuntimeInvoker_Boolean_t3825574718_TransitionU26_t3012618447_Int32_t2071877448PFvvEPK10MethodInfoPvPS4_
Hmf:__Z37il2cpp_codegen_get_executing_assemblyPK10MethodInfo
p4b:__ZN9Transform23VirtualRedirectTransferER17RemapPPtrTransfer
K_g:__Z72RuntimeInvoker_Boolean_t3825574718_Bounds_t3033363703_Bounds_t3033363703PFvvEPK10MethodInfoPvPS4_
UI:__ZN15SerializeTraitsINSt3__24pairI8StateKey10StateRangeEEE8TransferI24GenerateTypeTreeTransferEEvRS4_RT_
AJ:__ZN15SerializeTraitsI9OffsetPtrIN7mecanim12statemachine21SelectorStateConstantEEE8TransferI18StreamedBinaryReadILb0EEEEvRS4_RT_
Xle:_Array_InternalArray__IndexOf_TisByte_t3683104436_m3605266236_gshared
rAg:_GUIStyle_set_richText_m1853532836
Ydf:_Collection_1_System_Collections_IList_Insert_m435904526_gshared
mbj:_WWW_get_error_m3092701216
PIh:__ZL135AnimationMixerPlayable_t1343787797_CustomAttributesCacheGenerator_AnimationMixerPlayable_INTERNAL_CALL_CreateHandleInternal_m4073934737P21CustomAttributesCache
ahi:_RaycastAllCallback_Invoke_m981876639
phg:_UnicodeEncoding__ctor_m72484327
PVj:__ZN14dense_hash_mapI10KeyWrapperIP14Il2CppIUnknownEjN6il2cpp5utils11PointerHashIS1_EENS3_14EqualsComparerINSt3__28equal_toIS2_EEEENS9_9allocatorINS9_4pairIKS3_jEEEEE15set_deleted_keyERSF_
gfa:__ZN22BuiltinResourceManager16StaticInitializeEPv
Mv:__ZN7mecanim4hand8HandPose8TransferI19StreamedBinaryWriteILb0EEEEvRT_
jye:_NumberFormatter_ScaleOrder_m1915154678
YRj:__ZN6il2cpp2gc9AllocatorIP12Il2CppThreadE10deallocateEPvj
bOj:__ZN13Il2CppHashMapIPK14Il2CppAssemblyPK22Il2CppMonoAssemblyNameN6il2cpp5utils11PointerHashIS1_EENSt3__28equal_toIS2_EENSA_9allocatorINSA_4pairIK10KeyWrapperIS2_ES5_EEEEEC2EjRKS9_RKSC_
Aij:_UnityEvent_1_GetDelegate_m2720691419_gshared
mMi:_InternalEnumerator_1_System_Collections_IEnumerator_get_Current_m3576641073_AdjustorThunk
v0i:_Alternation_get_Alternatives_m1445219249
yEf:_ClientSessionInfo_SetContext_m2649357891
ICe:_Int32_System_IConvertible_ToInt64_m3790029067_AdjustorThunk
VJc:__ZN13BoxCollider2D13PrepareShapesER13dynamic_arrayIP7b2ShapeLj4EERK10Matrix4x4f
rs:__ZN14AnimationEvent8TransferI14SafeBinaryReadEEvRT_
Qxd:_RaycasterManager_GetRaycasters_m1154876874
LJf:_SslStreamBase_InternalReadCallback_m2524917586
Vda:__ZN8Remapper6RemoveEi
JWe:_List_1_CheckCollection_m2608305187_gshared
lYa:__ZN10MemoryFile4ReadEyPvPy
Wog:_Type_get_ContainsGenericParameters_m505913180
rWc:__ZL36CleanupTextRenderingScriptingClassesv
qOg:__Z52RuntimeInvoker_UInt32_t2149682021_Decimal_t724701077PFvvEPK10MethodInfoPvPS4_
NEh:__ZL82Material_t193706927_CustomAttributesCacheGenerator_Material_SetIntImpl_m4157631275P21CustomAttributesCache
Thf:_ReadOnlyCollection_1__ctor_m3532148437_gshared
lRd:_Array_BinarySearch_m3270245097
Roc:__Z34Mesh_CUSTOM_SetArrayForChannelImplP12Il2CppObject30InternalScriptingShaderChannel34InternalScriptingVertexChannelTypeiP11Il2CppArrayi
yGe:_MonoIO_DeleteFile_m3273821223
tNi:_InternalEnumerator_1_Dispose_m3642485841_AdjustorThunk
Dof:_BigInteger_GenerateRandom_m2507308768
i7d:_DateTime_System_IConvertible_ToDouble_m1431748426_AdjustorThunk
hhe:_Array_InternalArray__ICollection_Contains_TisUInt16_t986882611_m510319131_gshared
kqe:_Array_InternalArray__Insert_TisRaycastHit2D_t4063908774_m3174907903_gshared
Iae:_Decimal_ToString_m541380585
iUf:_RepeatContext_get_Previous_m808449037
j5g:__Z46RuntimeInvoker_CharacterValidation_t3437478890PFvvEPK10MethodInfoPvPS4_
acg:_MemberFilter__ctor_m1775909550
iqi:_AnimationOffsetPlayable_SetRotation_m1448934280_AdjustorThunk
oGj:_il2cpp_class_is_valuetype
HK:__ZN11UnityEngine9Animation28GenericAnimationBindingCache25RegisterIAnimationBindingEPKN5Unity4TypeEiP17IAnimationBinding
Iad:__Z70RectTransformUtility_CUSTOM_INTERNAL_CALL_RectangleContainsScreenPointP12Il2CppObjectRK13Vector2fIcallS0_
Mde:_Enum_ToObject_m2601523252
Llk:dynCall_viiffiii
kJf:_InternalAsyncResult_get_FromWrite_m2893408424
Cvj:__ZN6il2cpp2vm5Class15GetElementClassEP11Il2CppClass
CPd:_U3CDelayedSetDirtyU3Ec__Iterator0_System_Collections_IEnumerator_get_Current_m851854792
f5a:__Z20RenderSceneDepthPassRK19SharedRendererSceneRK17ShaderReplaceDatabR17ShaderPassContext
RJh:__ZL124AnimatorControllerPlayable_t1744083903_CustomAttributesCacheGenerator_AnimatorControllerPlayable_PlayInFixedTime_m3726932292P21CustomAttributesCache
L6g:__Z37RuntimeInvoker_Enumerator_t1593300101PFvvEPK10MethodInfoPvPS4_
Pcb:__Z40ProcessCameraIndexListIsNodeVisibleInOutRK22SceneCullingParametersPK9SceneNodePK4AABBR9IndexList
Bsb:__ZN16GraphicsSettings8TransferI17RemapPPtrTransferEEvRT_
ryf:_BigInteger_op_LessThanOrEqual_m3528380540
GJe:_StreamReader__ctor_m2654332332
g8c:__ZN2UI6Canvas13UpdateBatchesEb
KC:__ZNK23AnimationPlayableOutput11DerivesFromE17ScriptingClassPtr
Cvb:__ZN7Texture19SupportsAsyncUploadI19StreamedBinaryWriteILb0EEEEbRT_
PUe:_List_1_CheckCollection_m3968030679_gshared
huj:_Predicate_1_BeginInvoke_m3556950370_gshared
kig:_StringBuilder_ToString_m617673931
THa:__ZNK13GfxDeviceGLES12GetWireframeEv
Nif:_ReadOnlyCollection_1_System_Collections_ICollection_get_IsSynchronized_m3127987432_gshared
jdd:__ZN11UnityEngine7Connect13ConfigHandler12GetListenersERKN4core12basic_stringIcNS2_20StringStorageDefaultIcEEEE
kJa:__ZN9GfxDevice18AllocRenderSurfaceEb
b5b:__ZN10TagManager32GetSortingLayerUniqueIDFromValueEi
K0i:_AnchorInfo_get_IsComplete_m1247624133
YGd:_Dropdown_Show_m324374589
p9:__ZL27CleanupCoreScriptingClassesv
FBh:__ZL85Component_t3819376471_CustomAttributesCacheGenerator_Component_SendMessage_m913946877P21CustomAttributesCache
KQg:__Z68RuntimeInvoker_RuntimeObject_RuntimeObject_DSAParameters_t1872138834PFvvEPK10MethodInfoPvPS4_
ixi:_AudioMixerPlayable_INTERNAL_CALL_CreateAudioMixerPlayableInternal_m3355685531
wff:_ReadOnlyCollection_1_System_Collections_ICollection_get_SyncRoot_m769863805_gshared
k6g:__Z101RuntimeInvoker_Void_t1841601450_RuntimeObject_Int32_t2071877448_Single_t2076509932_Single_t2076509932PFvvEPK10MethodInfoPvPS4_
fui:_AnimatorControllerPlayable_PlayInFixedTime_m1932606764_AdjustorThunk
hAd:_RaycastResult_get_isValid_m2482925612
Goc:__Z26AnimationCurve_CUSTOM_InitP12Il2CppObjectP11Il2CppArray
ztk:_glUniform1uiv__wrapper
kGc:__ZNK14b2PolygonShape5CloneEP16b2BlockAllocator
ONj:__ZN6il2cpp2vm10Reflection7IsEventEP12Il2CppObject
Vbk:__ZNSt3__26__treeINS_12__value_typeIPFvvEPK10MethodInfoEENS_19__map_value_compareIS3_S7_NS_4lessIS3_EELb1EEENS_9allocatorIS7_EEE16__insert_node_atEPNS_16__tree_node_baseIPvEERSI_SI_
vaa:__ZN17PersistentManager26GetStreamNameSpaceInternalEi
hQ:__ZN4FMOD6System11createSoundEPKcjP22FMOD_CREATESOUNDEXINFOPPNS_5SoundE
Mch:__Z72RuntimeInvoker_Int32_t2071877448_Vector2_t2243707579_Vector2_t2243707579PFvvEPK10MethodInfoPvPS4_
jAi:_CanvasRenderer_get_cull_m3577089379
Kaf:__ZN23InterfaceActionInvoker2Ii22UICharInfo_t3056636800E6InvokeEjP11Il2CppClassP12Il2CppObjectiS0_
ho:FUNCTION_TABLE_iiifiiii
QFg:_Object_Destroy_m4145850038
fJj:__ZN6il2cpp2vm4Type14IsSystemDBNullEPK10Il2CppType
Y7:__ZN9ShaderLab19CommonPropertyNames13StaticCleanupEPv
dqi:_AnimationOffsetPlayable_INTERNAL_CALL_GetRotationInternal_m3411582030
Cba:__Z31scripting_method_get_returntype18ScriptingMethodPtr
eji:_ScrollRect_UpdateBounds_m3266596336
Cxb:__ZN15SerializeTraitsI12LightmapDataE8TransferI24GenerateTypeTreeTransferEEvRS0_RT_
BEd:_ColorBlock_GetHashCode_m649325222
_pk:_glStencilOpSeparate__wrapper
rfc:__ZN4Mesh5SetUvEiPKfjj
dBa:__ZN7Texture13SetAnisoLimitENS_20AnisotropicFilteringE
wBa:__ZN28LightProbeProxyVolumeManager25UpdateSHCoeffsTextureDataER21LightProbeProxyVolume
YWa:__Z18CreateDecompressor15CompressionType18MemLabelIdentifier
_Z:__ZN11AudioModule16SetListenerPauseEb
Wh:_emscripten_glCompressedTexSubImage2D
tRa:__ZN13GfxDeviceGLES22MemoryBarrierImmediateEyN2gl17MemoryBarrierTypeE
Pja:__ZZN18SpriteAtlasManagerC1EvEN46EarlyUpdateSpriteAtlasManagerUpdateRegistrator7ForwardEv
BUj:__ZN6il2cpp6icalls8mscorlib6System4Type18internal_from_nameEP12Il2CppStringbb
Aya:__ZN6prcoreL26RemapGenericFloatToIntegerI18TexFormatARGBFloat17TexFormatARGB8888EEvPKNS_9InnerInfoE
cfc:__Z46GetShaderModelNumericValueFromRequirementsMask18ShaderRequirements
S5b:__ZN6Object27GetOffsetOfInstanceIdMemberEv
Z2c:_cff_ps_has_glyph_names
Ngj:_InvokableCall_1__ctor_m2837611051_gshared
Y2g:__Z89RuntimeInvoker_Void_t1841601450_RuntimeObject_SingleU26_t4173844468_SingleU26_t4173844468PFvvEPK10MethodInfoPvPS4_
wci:_EqualityComparer_1__ctor_m1389939323_gshared
C3h:_Transform_1_EndInvoke_m1025924012_gshared
Jjf:_ReadOnlyCollection_1_System_Collections_Generic_ICollectionU3CTU3E_get_IsReadOnly_m2873538493_gshared
w_i:_PatternCompiler_EmitPosition_m3013268572
TSf:_X509SubjectKeyIdentifierExtension__ctor_m1109455121
_oj:__ZL24UnresolvedVirtualCall_45P12Il2CppObject19DateTime_t693205669PK10MethodInfo
iJd:_Graphic_CreateColorFromAlpha_m2614574534
Yig:_UnicodeEncoding_GetHashCode_m2443440683
nyc:__Z44Register_UnityEngine_GUIStyle_SetDefaultFontv
c9f:_GenericTypeParameterBuilder_GetPropertyImpl_m3566422383
UUb:__Z18Transfer_BlittableI18StreamedBinaryReadILb1EELb1EiEvRK29SerializationCommandArgumentsR31RuntimeSerializationCommandInfo
BE:__ZN9BlobWrite8TransferI22OffsetPtrArrayTransferIKN4math7_float3EEEEvRT_PKc17TransferMetaFlags
qod:_TripleDES_IsWeakKey_m483013953
L4h:_Enumerator__ctor_m3819430617_AdjustorThunk
DMj:__ZN15dense_hashtableINSt3__24pairIK10KeyWrapperINS1_IPK12PropertyInfoP11Il2CppClassEEEjEES9_17ReflectionMapHashIS8_EN14dense_hash_mapIS9_jSD_NS9_14EqualsComparerINS0_8equal_toIS8_EEEENS0_9allocatorISB_EEE9SelectKeyESI_SK_E12maybe_shrinkEv
dXg:__Z75RuntimeInvoker_RuntimeObject_RuntimeObject_Single_t2076509932_RuntimeObjectPFvvEPK10MethodInfoPvPS4_
nVb:__Z18Transfer_BlittableI18StreamedBinaryReadILb1EELb1EsEvRK29SerializationCommandArgumentsR31RuntimeSerializationCommandInfo
kB:__ZN26AnimatorControllerPlayable17IsMultithreadableEv
K5g:__Z54RuntimeInvoker_Void_t1841601450_ColorBlock_t2652774230PFvvEPK10MethodInfoPvPS4_
Vrd:_Single_System_IConvertible_ToSByte_m3757385387
yHe:_StreamAsyncResult_SetComplete_m2141125667
jBa:__ZL21SetAnisoLimitEnumImplN7Texture20AnisotropicFilteringEb
Lbd:__ZN22BaseUnityConnectClient17OnEnterStateReadyEv
I7:__Z21GetManagerFromContexti
RXe:_List_1_get_Count_m634584594_gshared
aEa:__ZN14GrowableBufferD2Ev
PBg:_Keyframe_get_tangentMode_m1869200796_AdjustorThunk
Znc:__Z29Input_CUSTOM_GetMouseButtonUpi
WEj:__ZN6il2cpp6icalls8mscorlib6System8MonoType16InternalGetEventEP20Il2CppReflectionTypeP12Il2CppStringi
Oqg:_UInt32_System_IConvertible_ToUInt32_m1257480358_AdjustorThunk
$bh:__Z55RuntimeInvoker_CustomAttributeTypedArgument_t1498197914PFvvEPK10MethodInfoPvPS4_
Mkg:_Interlocked_CompareExchange_m3339239614
IYc:_UNITY_tt_face_load_maxp
ioc:__Z46Input_CUSTOM_INTERNAL_set_compositionCursorPosRK13Vector2fIcall
bx:__ZN7mecanim5human12FullBodyMaskEv
Vth:__ZL98Activator_t1850728717_CustomAttributesCacheGenerator_Activator_CreateInstance_m1465989661____args1P21CustomAttributesCache
prj:__ZL25UnresolvedVirtualCall_170P12Il2CppObject19Vector3_t2243707580PK10MethodInfo
w7:__ZN19ShaderPropertySheet11ComputeHashEv
pzj:__ZN30dense_hashtable_const_iteratorI10KeyWrapperIPK19Il2CppGenericMethodES4_N6il2cpp8metadata23Il2CppGenericMethodHashEN14dense_hash_setIS4_S7_NS4_14EqualsComparerINS6_26Il2CppGenericMethodCompareEEENSt3__29allocatorIS4_EEE8IdentityESB_SE_EppEv
NGc:__ZN12b2EPCollider24ComputePolygonSeparationEv
hWb:__ZN4PPtrI6ObjectE8TransferI18StreamedBinaryReadILb1EEEEvRT_
n2:__ZN11UnityEngine15CloudWebService20WebRequestRestClient6IsDoneEv
XEd:_ColorTween_get_tweenMode_m2919867230_AdjustorThunk
Qi:_llvm_fabs_f32
FDd:_CanvasScaler_HandleScaleWithScreenSize_m80056230
S1:__ZN11UnityEngine15CloudWebService16SessionContainer16GetJsonDataBlockEjRKN4core12basic_stringIcNS2_20StringStorageDefaultIcEEEERS6_PjSA_
v1f:_SByte_System_IConvertible_ToUInt64_m2174352876_AdjustorThunk
jKh:__ZL132AnimatorControllerPlayable_t1744083903_CustomAttributesCacheGenerator_AnimatorControllerPlayable_Play_m2828212586____normalizedTime2P21CustomAttributesCache
Es:__ZN7mecanim9animation18ClipMuscleConstant8TransferI14SafeBinaryReadEEvRT_
p9f:_GenericTypeParameterBuilder_get_AssemblyQualifiedName_m902593295
zOj:__ZN15dense_hashtableINSt3__24pairIK10KeyWrapperIPK14Il2CppAssemblyEPK22Il2CppMonoAssemblyNameEES6_N6il2cpp5utils11PointerHashIS4_EEN14dense_hash_mapIS6_SA_SF_NS6_14EqualsComparerINS0_8equal_toIS5_EEEENS0_9allocatorISB_EEE9SelectKeyESK_SM_E13set_empty_keyERKSB_
vjg:_UTF7Encoding_InternalGetBytes_m2772055844
eei:_EqualityComparer_1__ctor_m831468288_gshared
e7h:_Dictionary_2_System_Collections_IDictionary_set_Item_m2290664072_gshared
RSg:__Z76RuntimeInvoker_Void_t1841601450_Int64_t909078037_ResourceInfoU26_t3126209420PFvvEPK10MethodInfoPvPS4_
dnf:_SimpleCollator__cctor_m2693747668
Bae:_Decimal_CompareTo_m2454501434_AdjustorThunk
Jaa:__ZN14SafeBinaryReadD2Ev
vpg:_UInt16_System_IConvertible_ToChar_m4055364664
pdk:_Energizer_OnTriggerEnter2D_m3573700544
D6b:__Z13RegisterClassI7TextureEvv
O1i:_ExpressionCollection_OnValidate_m1703610065
lwe:_Component_GetComponentInChildren_TisRuntimeObject_m2461586036_gshared
BWb:__ZN8Gradient8TransferI18StreamedBinaryReadILb1EEEEvRT_
_3h:_Enumerator_Dispose_m2369319718_AdjustorThunk
Avh:__ZL79Convert_t2607082565_CustomAttributesCacheGenerator_Convert_ToUInt16_m3991499696P21CustomAttributesCache
Zxc:__Z45Register_UnityEngine_GUIStyle_SetFontInternalv
X4e:_Enumerator_Dispose_m1520016780_AdjustorThunk
EUj:__ZN6il2cpp6icalls8mscorlib6System4Type15MakeGenericTypeEP20Il2CppReflectionTypeP11Il2CppArray
oj:_SDL_PauseAudio
tGj:_il2cpp_class_from_type
TRd:_Array_Sort_m2323017822
Ihi:_Scrollbar_UpdateDrag_m3839695926
Qwg:_GUILayoutUtility__cctor_m2957755459
Zxi:_AudioConfigurationChangeHandler_EndInvoke_m2237100787
X7:__ZN9ShaderLab19CommonPropertyNames16StaticInitializeEPv
kMe:_MissingMemberException__ctor_m3710131950
Lza:__ZN13MemoryManager31DisallowAllocationsOnThisThreadEv
AG:__ZN7mecanim9animation18CreateAvatarOutputEPKNS0_14AvatarConstantEbbRNS_6memory9AllocatorE
xyc:__Z45GUIUtility_CUSTOM_Internal_GetKeyboardControlv
mZg:__Z91RuntimeInvoker_Void_t1841601450_RuntimeObject_Int32_t2071877448_RuntimeObject_RuntimeObjectPFvvEPK10MethodInfoPvPS4_
u2f:_CspParameters__ctor_m2546931874
KV:__ZN11AudioSource23VirtualRedirectTransferER24GenerateTypeTreeTransfer
Tfc:__ZN7Texture11SetWrapModeE15TextureWrapMode
CBb:__ZN14Texture2DArray23VirtualRedirectTransferER14SafeBinaryRead
P7a:__ZNK6Camera21CalculateCanDoShadowsEv
W9h:_Dictionary_2_make_pair_m2631942124_gshared
mJd:_Graphic__cctor_m1643894470
O1j:__ZN6il2cpp2os6Thread12SetStackSizeEj
aNg:__Z99RuntimeInvoker_Void_t1841601450_Int32_t2071877448_RuntimeObject_Int32_t2071877448_Int32_t2071877448PFvvEPK10MethodInfoPvPS4_
CQf:_X509ChainElementEnumerator_get_Current_m2232618221
JSg:__Z54RuntimeInvoker_CallingConventions_t1097349142_IntPtr_tPFvvEPK10MethodInfoPvPS4_
bDd:_U3COnFinishSubmitU3Ec__Iterator0_Reset_m2080388334
Mfc:__ZNK8Renderer16IsVisibleInSceneEv
cyi:_Behaviour_get_isActiveAndEnabled_m3838334305
_ii:_ScrollRect_set_onValueChanged_m3957749575
M6:__Z13VFormatBufferPciPKcz
uXb:__Z18Transfer_BlittableI18StreamedBinaryReadILb0EELb1EhEvRK29SerializationCommandArgumentsR31RuntimeSerializationCommandInfo
Mtj:_U3CCreateWhereIteratorU3Ec__Iterator1D_1_Dispose_m1879652802_gshared
Wnh:__ZL90SafeHandle_t2733794115_CustomAttributesCacheGenerator_SafeHandle_get_IsInvalid_m3910183075P21CustomAttributesCache
fLd:_Image_GenerateSimpleSprite_m4275440988
WCi:_Display_get_systemHeight_m3377672024
kqg:_UInt16_ToString_m3280699191
tij:_UnityEvent_1_GetDelegate_m2566156550_gshared
Eya:__ZN6prcoreL27StretchGenericFloatBilinearI15TexFormatRFloatEEvPKNS_9InnerInfoE
roh:__ZL56_PropertyInfo_t1567586598_CustomAttributesCacheGeneratorP21CustomAttributesCache
Fje:_Array_InternalArray__IEnumerable_GetEnumerator_TisBoolean_t3825574718_m798244337_gshared
i0e:_List_1_CopyTo_m158925060_gshared
Hz:__Z24ProcessAnimationMixBeginP35AnimationPlayableEvaluationConstantP32AnimationPlayableEvaluationInputP33AnimationPlayableEvaluationOutput
Oah:__Z77RuntimeInvoker_Void_t1841601450_Int32_t2071877448_PlayableBinding_t2498078091PFvvEPK10MethodInfoPvPS4_
Hle:_Array_IndexOf_TisCustomAttributeNamedArgument_t94157543_m745056346_gshared
DPa:__Z14PadImageBorderR14ImageReferenceii
uzh:__ZL92ExtendedKeyUsageExtension_t3816993686_CustomAttributesCacheGenerator_U3CU3Ef__switchU24map14P21CustomAttributesCache
gLj:__ZN15dense_hashtableINSt3__24pairIK10KeyWrapperINS1_IPK10MethodInfoP11Il2CppClassEEEjEES9_17ReflectionMapHashIS8_EN14dense_hash_mapIS9_jSD_NS9_14EqualsComparerINS0_8equal_toIS8_EEEENS0_9allocatorISB_EEE9SelectKeyESI_SK_E4findERSA_
L2g:__Z116RuntimeInvoker_Void_t1841601450_Rect_t3681755626_SByte_t454417549_SByte_t454417549_SByte_t454417549_SByte_t454417549PFvvEPK10MethodInfoPvPS4_
wFi:_ArrayReadOnlyList_1_ReadOnlyError_m2289309720_gshared
iA:__ZN27AnimationLayerMixerPlayableD2Ev
iFj:__ZN6il2cpp2vm8basepathEPKc
Lbi:_DefaultComparer_GetHashCode_m320514092_gshared
uAf:_PKCS1_Verify_v15_m478274703
$R:__ZN12AudioManager39HandlePendingAudioConfigurationCallbackEv
Feh:__ZL79RuntimeObject_CustomAttributesCacheGenerator_Object_ReferenceEquals_m3900584722P21CustomAttributesCache
kk:_emscripten_glIsFramebuffer
gcc:__ZN12_GLOBAL__N_16qAtan2Eff
p5d:_Convert_ToInt64_m954367741
_qj:__ZL25UnresolvedVirtualCall_153P12Il2CppObject40CustomAttributeTypedArgument_t1498197914S1_PK10MethodInfo
ok:_JS_Sound_SetLoopPoints
WWd:_ArrayList__ctor_m1467563650
XW:__ZN12AudioManager17ShouldSourcePauseEb
D9j:__ZN6il2cpp2vm26MetadataAllocGenericMethodEv
TTa:__ZN19ConstantBuffersGLES12RecordRenderEv
nBc:__ZN9JSONWrite8TransferI10RectOffsetEEvRT_PKc17TransferMetaFlags
jPa:__ZN4crnd12symbol_codec11decode_bitsEj
OGc:__ZN15b2CircleContact8EvaluateEP10b2ManifoldRK11b2TransformS4_
Wse:_Array_Sort_TisRaycastResult_t21186376_TisRaycastResult_t21186376_m38820193_gshared
Iui:_Animator_ResetTriggerString_m1445965342
rcc:__ZN21FixedBehaviourManagerD0Ev
sHh:__ZL55RaycastHit2D_t4063908774_CustomAttributesCacheGeneratorP21CustomAttributesCache
IGe:_StreamReader__ctor_m3454466728
dS:__ZN4FMOD6System12createReverbEPPNS_6ReverbE
oOj:__ZN15dense_hashtableINSt3__24pairIK10KeyWrapperIPK14Il2CppAssemblyEPK22Il2CppMonoAssemblyNameEES6_N6il2cpp5utils11PointerHashIS4_EEN14dense_hash_mapIS6_SA_SF_NS6_14EqualsComparerINS0_8equal_toIS5_EEEENS0_9allocatorISB_EEE9SelectKeyESK_SM_E8min_sizeEjj
g4i:_Vector2_get_Item_m2792130561
aA:__ZN7mecanim19ValueArrayBlendNodeILb1EEEvRKNS_10ValueArrayERKNS_14ValueArrayMaskERS1_RS4_RNS_16ValueArrayWeightEf
Nza:__Z16MarkDependenciesR27GarbageCollectorThreadStatej
uSf:_X509ChainElementEnumerator_Reset_m3832280427
mri:_AnimatorControllerPlayable_SetBoolString_m4011560969
vSh:__ZL75EventSystem_t3466835263_CustomAttributesCacheGenerator_U3CU3Ef__mgU24cache0P21CustomAttributesCache
sOe:_MulticastDelegate_RemoveImpl_m2024746777
PDd:_CanvasUpdateRegistry_ParentCount_m2367607495
mOe:_MulticastDelegate_Equals_m3064081489
irj:__ZL25UnresolvedVirtualCall_163P12Il2CppObject22UILineInfo_t3621277874S1_PK10MethodInfo
owf:_Activator_CreateInstance_m1465989661
T7:__ZNK9Transform11GetPositionEv
j2i:_PositionAssertion_GetWidth_m2294218483
ZHg:_PlayableHandle_SetPlayStateInternal_m3829195293
PRh:__ZL111PlayerConnection_t3517219175_CustomAttributesCacheGenerator_PlayerConnection_MessageCallbackInternal_m267902474P21CustomAttributesCache
Qdk:_U3CAddScoreU3Ec__Iterator2_Reset_m3746258358
T2a:__ZN23SharedMeshRenderingData18UnloadVertexStreamEi
Maj:_Vector4_set_Item_m3077071044
Qcc:__ZN31CanvasBatchIntermediateRenderer11AddSubBatchERK16DrawBuffersRangePK19ShaderPropertySheet
WTh:__ZL104PointerEventData_t1599784723_CustomAttributesCacheGenerator_PointerEventData_set_scrollDelta_m4002219844P21CustomAttributesCache
qbc:__ZN19RenderEventsContextC2Ei
e0:__Z6simd4fRKf
ape:_Array_InternalArray__ICollection_CopyTo_TisColor32_t874517518_m379086718_gshared
yli:_Slider_ClampValue_m2851810895
Rk:_emscripten_glEnable
oxg:_GUISkin_set_font_m4009958323
sij:_UnityEvent_1_FindMethod_Impl_m3813546_gshared
Gsj:__ZL25UnresolvedVirtualCall_241P12Il2CppObjectiPK10MethodInfo
Ppb:__ZN10TagManager23VirtualRedirectTransferER14SafeBinaryRead
rUi:_MarshalAsAttribute__ctor_m1892084128
cYc:_UNITY_FT_Init_Class_ft_grays_raster
Hab:__Z15InitLightMeshesv
Qth:__ZL97WaitHandle_t677569169_CustomAttributesCacheGenerator_WaitHandle_t677569169____Handle_PropertyInfoP21CustomAttributesCache
MPe:_KeyValuePair_2_ToString_m1391611625_AdjustorThunk
Gn:FUNCTION_TABLE_iifiii
C_e:_List_1_Sort_m4156683373_gshared
REh:__ZL108Material_t193706927_CustomAttributesCacheGenerator_Material_Internal_CreateWithMaterial_m2907597451____mono0P21CustomAttributesCache
t4d:_Double_Parse_m1617409931
gtj:_Comparison_1_BeginInvoke_m4056757384_gshared
Gja:__ZN13RuntimeStaticI15ApplicationInfoLb0EE7DestroyEv
bWe:_List_1_System_Collections_Generic_IEnumerableU3CTU3E_GetEnumerator_m1503548298_gshared
pTb:__Z18Transfer_BlittableI19StreamedBinaryWriteILb0EELb1E8Vector2fEvRK29SerializationCommandArgumentsR31RuntimeSerializationCommandInfo
Z0c:_cf2_arrstack_init
Anh:__ZL65ClassInterfaceAttribute_t910653559_CustomAttributesCacheGeneratorP21CustomAttributesCache
uJj:__ZN15dense_hashtableINSt3__24pairIK10KeyWrapperINS1_IPK14Il2CppAssemblyP11Il2CppClassEEEjEES9_17ReflectionMapHashIS8_EN14dense_hash_mapIS9_jSD_NS9_14EqualsComparerINS0_8equal_toIS8_EEEENS0_9allocatorISB_EEE9SelectKeyESI_SK_E15insert_noresizeERKSB_
y6:__Z15CleanLogHandler7LogTypePKcz
u1b:__ZN9ShaderLab19SerializedSubShader8TransferI19StreamedBinaryWriteILb0EEEEvRT_
qX:__ZN14AudioBehaviour15ThreadedCleanupEv
ajg:_UTF32Encoding_GetBytes_m2290150495
ZJb:__ZN6Camera17RemoveImageFilterERK11ImageFilter
RQa:__ZNSt3__218__insertion_sort_3IR25ValueParameterArraySorterPN20GpuProgramParameters14ValueParameterEEEvT0_S6_T_
uLc:__ZN10ClipperLib7Clipper27ProcessEdgesAtTopOfScanbeamEx
G3g:__Z74RuntimeInvoker_Boolean_t3825574718_HitInfo_t1761367055_HitInfo_t1761367055PFvvEPK10MethodInfoPvPS4_
_8c:__ZZN2UI11CanvasGroup15InitializeClassEvEN38FunctorImpl_117kTransformParentChanged4CallEPviR11MessageData
wei:_LayoutUtility_GetLayoutProperty_m4052007472
Rgj:_InvokableCall_1_Invoke_m3239892614_gshared
A2a:__ZNSt3__214__split_bufferI20ComputeShaderVariantRNS_9allocatorIS1_EEED2Ev
HTc:__ZNSt3__26vectorIN4core12basic_stringIcNS1_20StringStorageDefaultIcEEEE13stl_allocatorIS5_L18MemLabelIdentifier34ELi16EEE7reserveEj
gNj:__ZNK10KeyWrapperINSt3__24pairIPK9EventInfoP11Il2CppClassEEE14EqualsComparerINS0_8equal_toIS7_EEEclERKS8_SE_
WEf:_Context_set_WriteSequenceNumber_m3356252710
O8c:__ZN2UI26InitializeDeviceForOverlayEi
RAe:_Guid_Equals_m2389236871
m8:__Z27LogRepeatingStringWithFlagsRKN4core12basic_stringIcNS_20StringStorageDefaultIcEEEE15LogMessageFlagsi
MSe:_Enumerator_MoveNext_m3483405135_gshared
Idk:_GameGUINavigation_Md5Sum_m912557190
Cx:__ZN17AnimationPlayable28ComputeNeedsBindingRebuildedEv
z_h:__ZL165U3CShowReadyScreenU3Ec__Iterator0_t4161106453_CustomAttributesCacheGenerator_U3CShowReadyScreenU3Ec__Iterator0_System_Collections_IEnumerator_get_Current_m2666549854P21CustomAttributesCache
RTe:_List_1_CheckIndex_m3609163576_gshared
qGh:__ZL62PlayableOutputHandle_t551742311_CustomAttributesCacheGeneratorP21CustomAttributesCache
LHb:__ZN15ResourceManagerD0Ev
cQf:_X509ExtensionCollection__ctor_m1324282194
Tdd:__ZN18UnityConnectClient33OnPlayerSessionStateChangedStaticEPS_jyy
RL:__ZN25RuntimeAnimatorController12CleanupClassEv
Fjh:__ZL74CaseInsensitiveHashCodeProvider_t2307530285_CustomAttributesCacheGeneratorP21CustomAttributesCache
esg:_UIntPtr__ctor_m3900568171_AdjustorThunk
X2:__ZNK11UnityEngine15CloudWebService23WebRequestUploadHandler11GetProgressEv
CMa:__ZN7ApiGLES4LoadE16GfxDeviceLevelGL
Pxb:__ZN18StreamedBinaryReadILb0EE21TransferSTLStyleArrayI13dynamic_arrayI31EnlightenSystemAtlasInformationLj8EEEEvRT_17TransferMetaFlags
cPa:__ZN4crnd12crn_unpacker22decode_color_endpointsEv
LYj:__ZN15dense_hashtableI10KeyWrapperIP18Il2CppGenericClassES3_N6il2cpp8metadata22Il2CppGenericClassHashEN14dense_hash_setIS3_S6_NS3_14EqualsComparerINS5_25Il2CppGenericClassCompareEEENSt3__29allocatorIS3_EEE8IdentityESA_SD_E15insert_noresizeERKS3_
vgf:_ReadOnlyCollection_1_System_Collections_IList_Clear_m3006875897_gshared
xac:__ZZL31RegisterOtherRendererPropertiesR22GenericPropertyBindingEN30Wrapper_RendererReceiveShadows13GetFloatValueEPv
YQg:__Z130RuntimeInvoker_Void_t1841601450_RuntimeObject_Int32U26_t455636984_ByteU26_t1147306860_Int32U26_t455636984_ByteU5BU5DU26_t790777611PFvvEPK10MethodInfoPvPS4_
cTe:_Enumerator_System_Collections_IEnumerator_get_Current_m3866069145_gshared
qof:_PreviousInfo_t581002487_marshal_pinvoke_cleanup
Coa:__ZN8Material11SetPassFastEPN9ShaderLab4PassER17ShaderPassContextP6Shaderib
Eib:__ZNK13ScreenManager13GetLockCursorEv
Rdd:__ZN11UnityEngine7Connect20BasePersistentValues10SaveValuesER9JSONWrite
aKg:_Rect_get_max_m96665935_AdjustorThunk
$Nh:__ZL87GUIStyle_t1799908754_CustomAttributesCacheGenerator_GUIStyle_set_fixedWidth_m2562018757P21CustomAttributesCache
Qyd:_ExecuteEvents_get_pointerDownHandler_m1172742772
E8e:_Collection_1_RemoveAt_m560005219_gshared
S3e:_Enumerator_System_Collections_IEnumerator_Reset_m2108388167_AdjustorThunk
YOc:__ZNSt3__27__sort4IR24RayHitsByDepthComparitorP12RaycastHit2DEEjT0_S5_S5_S5_T_
Ggc:__Z14ScaleCurveTimeR17AnimationCurveTplIfEf
RRf:_X509CertificateEnumerator_System_Collections_IEnumerator_MoveNext_m3708362145
L4a:__Z12SetupLODFadeR9GfxDeviceR17ShaderPassContextf
yub:__ZNK14PlayableOutput7GetTypeEv
sOc:__ZN26b2PolygonAndCapsuleContact6CreateEP9b2FixtureiS1_iP16b2BlockAllocator
pQg:__Z203RuntimeInvoker_Boolean_t3825574718_RuntimeObject_Int32U26_t455636984_Int32_t2071877448_Int32_t2071877448_RuntimeObject_SByte_t454417549_Int32_t2071877448_ContractionU26_t2019974048_ContextU26_t3131521781PFvvEPK10MethodInfoPvPS4_
uab:__ZL24CollectForwardObjectsJobP27CollectForwardObjectsHeader
V$h:_Enumerator_System_Collections_IDictionaryEnumerator_get_Entry_m345330700_gshared
MBj:__ZNK15dense_hashtableINSt3__24pairIK10KeyWrapperIPK11Il2CppClassEPKcEES6_N6il2cpp5utils11PointerHashIS3_EEN14dense_hash_mapIS6_S9_SE_NS6_14EqualsComparerINS0_8equal_toIS5_EEEENS0_9allocatorISA_EEE9SelectKeyESJ_SL_E12test_deletedERK24dense_hashtable_iteratorISA_S6_SE_SN_SJ_SL_E
arh:__ZL53HMACSHA256_t2622794722_CustomAttributesCacheGeneratorP21CustomAttributesCache
heb:__ZNK25CameraStackRenderingState24ResolveTempToEyeTexturesEv
lcb:__Z13IsNodeVisibleRK9SceneNodeRK4AABBRK22SceneCullingParameters
Jbg:_EventInfo__ctor_m1190141300
oHi:_InternalEnumerator_1_MoveNext_m3585886944_gshared
Kad:__Z57RectTransformUtility_CUSTOM_INTERNAL_CALL_PixelAdjustRectP12Il2CppObjectS0_R5RectTIfE
YIh:__ZL133AnimationPlayableOutput_t260357453_CustomAttributesCacheGenerator_AnimationPlayableOutput_INTERNAL_CALL_InternalSetTarget_m2733556181P21CustomAttributesCache
TZf:_DelayedFixupRecord_FixupImpl_m4249966635
vvk:_emscripten_glStencilMask__wrapper
fzj:__ZN15dense_hashtableI10KeyWrapperIPK19Il2CppGenericMethodES4_N6il2cpp8metadata23Il2CppGenericMethodHashEN14dense_hash_setIS4_S7_NS4_14EqualsComparerINS6_26Il2CppGenericMethodCompareEEENSt3__29allocatorIS4_EEE8IdentityESB_SE_EC2ERKSH_j
Pof:_BigInteger_ToString_m3837784224
zae:_Decimal_decimalCompare_m26009298
DZa:__ZNK17ArchiveFileSystem8PositionERK13FileEntryData
DSc:__ZN16NovodexAllocator8allocateEjPKcS1_i
bce:_DllNotFoundException__ctor_m267198482
U9a:__Z17PrepareShadowMapsRK11CullResultsRK11ActiveLightRK10MinMaxAABB
_7g:__Z75RuntimeInvoker_Boolean_t3825574718_CustomAttributeTypedArgument_t1498197914PFvvEPK10MethodInfoPvPS4_
ykg:_NativeEventCalls_CreateEvent_internal_m1605829321
JUe:_List_1_GetIndex_m3409004147_gshared
$Ph:__ZL73RuntimePlatform_t1869584967_CustomAttributesCacheGenerator_MetroPlayerX64P21CustomAttributesCache
uoj:__ZL24UnresolvedVirtualCall_13P12Il2CppObjectaPK10MethodInfo
gLi:_InternalEnumerator_1_System_Collections_IEnumerator_get_Current_m3239681450_AdjustorThunk
m$b:__ZNSt3__26vectorIN9ShaderLab20SerializedSubProgram15VectorParameterENS_9allocatorIS3_EEEC2ERKS6_
rab:__ZN9ShaderLab10GrabPassesD2Ev
fEg:_MonoBehaviour_set_useGUILayout_m2666356651
NBb:__ZN14Texture2DArray13UploadTextureEv
hrd:_SecurityFrame_t1002202659_marshal_pinvoke
q_c:_tt_cmap14_done
EAa:__ZN18AwakeFromLoadQueue25RegisterObjectInstanceIDsEv
nUd:_Buffer_BlockCopy_m1586717258
Aqh:__ZL93X509Certificate_t283079845_CustomAttributesCacheGenerator_X509Certificate_GetName_m2354987368P21CustomAttributesCache
mA:__ZNK27AnimationLayerMixerPlayable11DerivesFromE17ScriptingClassPtr
BUc:__ZN20TextRenderingPrivate19NativeTextGenerator15InsertCharacterEiPj
kJi:_InternalEnumerator_1__ctor_m3589241961_AdjustorThunk
rTj:__ZNSt3__26vectorIN6il2cpp2vm22EmbeddedResourceRecordENS_9allocatorIS3_EEE21__push_back_slow_pathIS3_EEvOT_
vfe:_CompareInfo_GetSortKey_m3691382873
IIc:__ZN11b2RopeJoint24SolveVelocityConstraintsERK12b2SolverData
v9d:_DBNull_ToString_m3228904745
hOf:_WebHeaderCollection_AddWithoutValidate_m1479880592
Tmd:_SHA1Managed_HashCore_m2658295635
SA:__ZN17AnimationPlayableD0Ev
LAf:_RC4_get_IV_m506011366
yej:_X509Crl__ctor_m2469408229
bUb:__Z18Transfer_BlittableI19StreamedBinaryWriteILb0EELb0EyEvRK29SerializationCommandArgumentsR31RuntimeSerializationCommandInfo
Onh:__ZL82SafeHandle_t2733794115_CustomAttributesCacheGenerator_SafeHandle_Close_m1146946803P21CustomAttributesCache
g0h:_Enumerator_get_CurrentValue_m3562053380_AdjustorThunk
ZSf:_X509SubjectKeyIdentifierExtension_CopyFrom_m136762226
$pi:_AnimationOffsetPlayable_INTERNAL_CALL_SetPositionInternal_m3711322547
$Qe:_Enumerator_System_Collections_IEnumerator_Reset_m610822832_AdjustorThunk
Pyf:_ASN1_get_Length_m778823697
zpc:__Z41MonoBehaviour_Set_Custom_PropUseGUILayoutP12Il2CppObjecth
vVc:_UNITY_FT_Open_Face
nrk:_glGenRenderbuffers__wrapper
Dyi:_Bounds_ToString_m1966597703
Kpf:_BigInteger_op_Division_m1581119694
zZb:__ZN16ScriptingManagerD0Ev
$fh:__ZL81Decimal_t724701077_CustomAttributesCacheGenerator_Decimal_op_Implicit_m2135798419P21CustomAttributesCache
e$f:_CallbackHandler_Invoke_m1498072969
$2f:_DSACryptoServiceProvider__ctor_m701823690
Eah:__Z74RuntimeInvoker_Void_t1841601450_Int32_t2071877448_ResourceInfo_t3933049236PFvvEPK10MethodInfoPvPS4_
Gwg:_Mathf_Clamp_m2354025655
v5f:_CustomAttributeData_GetCustomAttributes_m2421330738
gIf:_SecurityParameters_set_ClientWriteMAC_m1970377285
zXj:__ZN30dense_hashtable_const_iteratorINSt3__24pairIK10KeyWrapperINS1_IPKcS4_EEEiEES6_24NamespaceAndNamePairHashN14dense_hash_mapIS6_iS9_NS6_14EqualsComparerI26NamespaceAndNamePairEqualsEENS0_9allocatorIS8_EEE9SelectKeyESD_SF_EppEv
cog:_Type_get_IsEnum_m313908919
Xlc:__Z44Register_UnityEngine_Component_get_transformv
v0e:_List_1_Reverse_m3395936565_gshared
gnc:__Z39GameObject_CUSTOM_FindGameObjectWithTagP12Il2CppString
R8e:_Collection_1_System_Collections_ICollection_CopyTo_m1335644572_gshared
FF:__ZN12_GLOBAL__N_120ProcessPlayableGraphERN8Animator11AnimatorJobER35AnimationPlayableEvaluationConstantR32AnimationPlayableEvaluationInputR33AnimationPlayableEvaluationOutputPFvS4_R17AnimationPlayableEPFvS4_S6_S8_EPFvS8_S4_S6_S8_fESE_MS9_FvPS3_PS5_PS7_E
q_e:_List_1_CheckMatch_m2830747427_gshared
RWa:__ZN17ArchiveFileSystem12MountArchiveEPKcS1_
BPg:__Z58RuntimeInvoker_RuntimeTypeHandle_t2330101084_RuntimeObjectPFvvEPK10MethodInfoPvPS4_
Mbe:_StackFrame_GetMethod_m72881026
tAc:__Z18Transfer_BlittableI9JSONWriteLb1E8Vector4fEvRK29SerializationCommandArgumentsR31RuntimeSerializationCommandInfo
Bn:FUNCTION_TABLE_viififiii
d7c:__ZN2UI13CanvasManagerD0Ev
Q0h:_Enumerator_System_Collections_IEnumerator_Reset_m70453843_gshared
tyb:__ZThn32_NK8Renderer14GetSubsetIndexEi
WSg:__Z58RuntimeInvoker_Byte_t3683104436_IntPtr_t_Int32_t2071877448PFvvEPK10MethodInfoPvPS4_
gue:_Dictionary_2_Do_CopyTo_TisKeyValuePair_2_t1174980068_TisRuntimeObject_m3279061992_gshared
caj:_Vector3_get_Item_m3616014016
jYh:__ZL59Slider_t297367283_CustomAttributesCacheGenerator_m_MinValueP21CustomAttributesCache
h9b:__ZN13ProduceHelperI15ResourceManagerLb0EE7ProduceE18MemLabelIdentifier18ObjectCreationMode
dKa:__ZN9GfxDevice15ImmediateVertexEfff
k6b:__Z13RegisterClassI8MaterialEvv
Urh:__ZL51Evidence_t1407710183_CustomAttributesCacheGeneratorP21CustomAttributesCache
_wb:__ZNK16LightmapSettings22GetTypeVirtualInternalEv
Jrb:__ZN16GraphicsSettings13AwakeFromLoadE17AwakeFromLoadMode
Bee:_FieldAccessException__ctor_m3893881490
Sp:__ZN6Object13AwakeFromLoadE17AwakeFromLoadMode
MHa:__ZN13GfxDeviceGLES15SetStencilStateEPK18DeviceStencilStatei
A_g:__Z107RuntimeInvoker_Void_t1841601450_Single_t2076509932_Single_t2076509932_Single_t2076509932_Single_t2076509932PFvvEPK10MethodInfoPvPS4_
vhk:_cycle
m7i:_TextGenerator_Populate_m4139823822
hzh:__ZL72PKCS12_t1362584795_CustomAttributesCacheGenerator_U3CU3Ef__switchU24map5P21CustomAttributesCache
Rd:_emscripten_glUniform1iv
Vmi:_Text_get_preferredHeight_m452532789
ZNc:__ZN15b2DistanceProxy3SetEPK7b2Shapei
Psd:_String_System_IConvertible_ToDouble_m3860911722
ilb:__ZN16MemoryFileSystemD2Ev
yPi:_InternalEnumerator_1_get_Current_m3732458101_AdjustorThunk
c8h:_Dictionary_2_System_Collections_Generic_ICollectionU3CSystem_Collections_Generic_KeyValuePairU3CTKeyU2CTValueU3EU3E_Contains_m842343255_gshared
dzf:_ARC4Managed__ctor_m2922048522
MUc:__Z17dynamic_pptr_castIP9Texture2D7TextureET_RK4PPtrIT0_E
Mhf:_ReadOnlyCollection_1_System_Collections_IList_set_Item_m1272038804_gshared
AGi:_InternalEnumerator_1_System_Collections_IEnumerator_get_Current_m1931522460_AdjustorThunk
rpd:_SecurityPermission_IsEmpty_m1869313067
aek:_GameManager_get_instance_m4247018130
Blc:__Z37Register_UnityEngine_Camera_get_depthv
Xsf:_EncryptedPrivateKeyInfo_get_Salt_m2734354394
Ijf:_ReadOnlyCollection_1_System_Collections_Generic_IListU3CTU3E_set_Item_m1918537449_gshared
t7e:_Collection_1_System_Collections_ICollection_CopyTo_m3896480607_gshared
uzd:_PointerEventData_set_position_m794507622
fja:__ZN15dense_hashtableINSt3__24pairIKPKcPK4RTTIEES3_N11TypeManager23ConstCharPtrHashFunctorEN14dense_hash_mapIS3_S7_SA_NS9_19ConstCharPtrEqualToE13stl_allocatorIS8_L18MemLabelIdentifier6ELi16EEE9SelectKeyESC_SF_E12resize_deltaEjj
G5b:__ZN15ApplicationInfo16GetInstallerNameEv
Gkb:__Z23ConvertIntegerToTypePtrItEbPvR14SafeBinaryRead
gG:__ZN7mecanim5human29HumanGetGoalOrientationOffsetENS0_4GoalE
SLb:__ZNK11MonoManager22GetTypeVirtualInternalEv
MYd:_SynchronizedArrayListWrapper_get_Capacity_m2541698837
noj:__ZL23UnresolvedVirtualCall_6P12Il2CppObjectiPK10MethodInfo
Iai:_DefaultComparer_GetHashCode_m3315096533_gshared
xeg:_MonoMethod_MakeGenericMethod_impl_m2063853616
ird:__Z46il2cpp_codegen_get_marshal_directive_exceptionPKc
y2b:__ZN9ShaderLab20SerializedSubProgram14AddMatrixParamEPKcii15ShaderParamTypei
me:_glGetActiveUniformBlockName
J_h:__ZL113U3CAddScoreU3Ec__Iterator2_t1098304414_CustomAttributesCacheGenerator_U3CAddScoreU3Ec__Iterator2__ctor_m287575607P21CustomAttributesCache
$Hd:_FontData_set_verticalOverflow_m4211463083
VM:__ZN26AnimatorControllerPlayable23ValidateParameterStringE17GetSetValueResultRKN4core12basic_stringIcNS1_20StringStorageDefaultIcEEEE
ZAe:_Guid_AppendByte_m2890893073
zVd:_Char_System_IConvertible_ToType_m3106771703_AdjustorThunk
aVf:_Interval_Intersects_m3480157390_AdjustorThunk
Boc:__Z39Quaternion_CUSTOM_INTERNAL_CALL_InverseRK11QuaternionfRS_
bUi:_GCHandle_Alloc_m1063472408
XS:__ZN4FMOD7Channel20set3DConeOrientationEP11FMOD_VECTOR
jUh:__ZL86StandaloneInputModule_t70867863_CustomAttributesCacheGenerator_m_InputActionsPerSecondP21CustomAttributesCache
sn:FUNCTION_TABLE_iiifii
J$h:_Comparer_1__ctor_m4052560291_gshared
ZKh:__ZL54SkeletonBone_t345082847_CustomAttributesCacheGeneratorP21CustomAttributesCache
h2f:_CryptoConfig_CreateFromName_m391442950
P_j:__ZN6il2cpp2vm12GenericClass11SetupEventsEP11Il2CppClass
y4c:_tt_delta_interpolate
j_c:_tt_cmap12_get_info
y0d:_SortedList__ctor_m3698381356
Xti:_AnimatorControllerPlayable_PlayInFixedTimeInternal_m3876843019
qWj:__ZN6il2cpp2vm15ReboxIReferenceEP14Il2CppIUnknownP11Il2CppClass
jKe:_StreamWriter_LowLevelWrite_m4205372900
uuj:__ZN6il2cpp6icalls8mscorlib6System7Decimal14decimalCompareEP19il2cpp_decimal_reprS5_
S4j:__ZThn4_N6il2cpp2vm13CachedCCWBaseINS0_13ManagedObjectEE7ReleaseEv
Hcg:_Module__ctor_m3853650010
c_d:_CollectionBase_System_Collections_IList_get_Item_m2370387510
Pph:__ZL59RemotingException_t109604560_CustomAttributesCacheGeneratorP21CustomAttributesCache
Lse:_Array_Sort_TisCustomAttributeNamedArgument_t94157543_m3436077809_gshared
Bsk:_glCopyTexImage2D__wrapper
I4i:_ResourceRequest__ctor_m3340010930
KOd:_LayoutElement__ctor_m789941073
LSh:__ZL77ExecuteEvents_t1693084770_CustomAttributesCacheGenerator_U3CU3Ef__mgU24cache9P21CustomAttributesCache
Wyi:_Camera_FireOnPreCull_m1679634170
dnh:__ZL68TargetInvocationException_t4098620458_CustomAttributesCacheGeneratorP21CustomAttributesCache
axh:__ZL56RankException_t1539875949_CustomAttributesCacheGeneratorP21CustomAttributesCache
fye:_NumberFormatter_CountTrailingZeros_m2398864634
cwa:__Z18ClearByDrawingQuad13GfxClearFlagsRK10ColorRGBAffjR17ShaderPassContext
OWi:_DynamicPropertyCollection_FindProperty_m1233265924
bya:__ZN6prcoreL17RemapGenericFloatI14TexFormatRHalf15TexFormatRFloatEEvPKNS_9InnerInfoE
z4a:__Z16ShouldUseShadowsb
Cha:__ZN15DirectorManager21RebuildStageCallbacksEv
cza:__ZN19RuntimeSceneManager9LoadSceneERKN4core12basic_stringIcNS0_20StringStorageDefaultIcEEEES6_S6_RK9UnityGUIDiNS_11LoadingModeE
Moj:__ZL24UnresolvedVirtualCall_31P12Il2CppObjectiS0_S0_PK10MethodInfo
UPa:__ZN7ApiGLES10DrawArraysE16GfxPrimitiveTypejjj
IDi:_Event_PopEvent_m1952528237
Cri:_AnimatorControllerPlayable_SetIntegerString_m3665225671
KQ:__ZN10SampleClip13LoadBaseSoundEv
R3g:__Z93RuntimeInvoker_Vector2_t2243707579_Vector2_t2243707579_Vector2_t2243707579_Single_t2076509932PFvvEPK10MethodInfoPvPS4_
iTg:__Z49RuntimeInvoker_TimeSpan_t3430258949_RuntimeObjectPFvvEPK10MethodInfoPvPS4_
Gv:__ZN7mecanim9animation4Clip8TransferI19StreamedBinaryWriteILb0EEEEvRT_
SZj:__ZN15dense_hashtableINSt3__24pairIK10KeyWrapperIP12Il2CppObjectEN6il2cpp2gc9CachedCCWEEES5_NS7_5utils11PointerHashIS3_EEN14dense_hash_mapIS5_S9_SD_NS5_14EqualsComparerINS0_8equal_toIS4_EEEENS0_9allocatorISA_EEE9SelectKeyESI_SK_E15insert_noresizeERKSA_
$bf:_Collection_1_Contains_m643401393_gshared
bwa:__ZN22DeviceMVPMatricesStateC2ER9GfxDevice
Hsd:_String__ctor_m372528291
an:FUNCTION_TABLE_iifii
uN:__Z64AnimationOffsetPlayable_CUSTOM_INTERNAL_CALL_SetRotationInternalR9HPlayableRK11Quaternionf
dAb:__ZNSt3__26vectorI13dynamic_arrayI8Vector2fLj4EENS_9allocatorIS3_EEE6assignINS_11__wrap_iterIPS3_EEEENS_9enable_ifIXaasr21__is_forward_iteratorIT_EE5valuesr16is_constructibleIS3_NS_15iterator_traitsISC_E9referenceEEE5valueEvE4typeESC_SC_
Qgg:_Encoding_SetFallbackInternal_m1682842442
bQj:__ZN6il2cpp2vm10Reflection12HasAttributeEP9FieldInfoP11Il2CppClass
Sqi:_AnimatorControllerPlayable_GetFloat_m1229536053_AdjustorThunk
nAa:__ZNSt3__26__treeIiNS_4lessIiEE13stl_allocatorIiL18MemLabelIdentifier1ELi16EEE7destroyEPNS_11__tree_nodeIiPvEE
uc:invoke_viiifi
hNe:_LongComparer_Compare_m3981323622
GLh:__ZL82Canvas_t209405766_CustomAttributesCacheGenerator_Canvas_set_scaleFactor_m298557412P21CustomAttributesCache
eFj:__ZNSt3__214__split_bufferIP11Il2CppClassRNS_9allocatorIS2_EEEC2EjjS5_
EEd:_ContentSizeFitter_get_horizontalFit_m892469688
_Zh:__ZL109LayoutUtility_t4076838048_CustomAttributesCacheGenerator_LayoutUtility_U3CGetFlexibleHeightU3Em__7_m947156537P21CustomAttributesCache
lsf:__ZN23InterfaceActionInvoker2IP8String_tP12Il2CppObjectE6InvokeEjP11Il2CppClassS3_S1_S3_
Rci:_EqualityComparer_1__cctor_m3033994022_gshared
uFa:__ZNK11AssetBundle14GetPreloadDataEiR13dynamic_arrayIiLj4EE
duf:_EncryptedData_get_EncryptedContent_m2732115576
wf:_JS_Sound_SetPosition
M$i:_Assertion_set_FalseExpression_m1781616372
VSf:_X509SubjectKeyIdentifierExtension_FromHexChars_m2515150420
epa:__ZN19RenderBufferManager13GetTempBufferEii17DepthBufferFormat19RenderTextureFormatj22RenderTextureReadWrite14VRTextureUsagei23RenderTextureMemoryless
VBj:__ZL13GetSharedInstPK17Il2CppGenericInst
rih:__ZL51IReflect_t3412036974_CustomAttributesCacheGeneratorP21CustomAttributesCache
uBd:_StandaloneInputModule_SendSubmitEventToSelectedObject_m3421155293
$Qc:__ZN13ProduceHelperI10Collider2DLb1EE7ProduceE18MemLabelIdentifier18ObjectCreationMode
oBi:_Component_GetComponentsInChildren_m908027537
Ybd:__ZN22BaseUnityConnectClient17SaveSessionValuesEv
BYi:_CallContextRemotingData_Clone_m2226242476
jaa:__Z63ThreadAndSerializationSafeCheckSetMonoBehaviourBeingTransferredP13MonoBehaviour
kgk:_Tile_set_y_m2290652498
xab:__Z24SetupActiveLightsContextR21ActiveLightingContextRK12ActiveLightsRK11CullResultsP14ShadowMapCacheRK10MinMaxAABB
U8h:_Dictionary_2_System_Collections_Generic_ICollectionU3CSystem_Collections_Generic_KeyValuePairU3CTKeyU2CTValueU3EU3E_Contains_m3400497673_gshared
prc:__Z38Sprite_CUSTOM_INTERNAL_get_textureRectP12Il2CppObjectP5RectTIfE
r9d:_DBNull_System_IConvertible_ToUInt32_m2681284284
POj:__ZNK15dense_hashtableINSt3__24pairIK10KeyWrapperIPK22Il2CppGenericParameterEPK24MonoGenericParameterInfoEES6_N6il2cpp5utils11PointerHashIS4_EEN14dense_hash_mapIS6_SA_SF_NS6_14EqualsComparerINS0_8equal_toIS5_EEEENS0_9allocatorISB_EEE9SelectKeyESK_SM_E3endEv
Rdc:__ZN9TextAsset7SetTextERKN4core12basic_stringIcNS0_20StringStorageDefaultIcEEEE
erb:__ZN6Camera8TransferI24GenerateTypeTreeTransferEEvRT_
Idi:_EqualityComparer_1__cctor_m416314417_gshared
Ka:invoke_iiiiiiif
Fa:invoke_iiiiiiii
tDg:_Mesh_GetUVChannel_m364477864
mRf:_X509ChainElementCollection_Contains_m3599995067
Tdb:__ZN8Renderer17PendingAddToSceneEv
cwk:b123
bwk:b122
msi:_AnimatorControllerPlayable_GetLayerName_m1429074517_AdjustorThunk
dwk:b124
gwk:b127
fwk:b126
iwk:b129
Dqc:__Z52Register_UnityEngine_RectTransform_INTERNAL_get_rectv
d9:__Z21PostprocessStacktracePKcRN4core12basic_stringIcNS1_20StringStorageDefaultIcEEEE
B$e:_List_1_ToArray_m2390522926_gshared
Xnh:__ZL70TypeLibImportClassAttribute_t2390314680_CustomAttributesCacheGeneratorP21CustomAttributesCache
CHb:__ZN18StreamedBinaryReadILb0EE21TransferSTLStyleArrayI13dynamic_arrayI16SplashScreenLogoLj4EEEEvRT_17TransferMetaFlags
b0a:__ZNSt3__26vectorIPN9ShaderLab9SubShaderENS_9allocatorIS3_EEE21__push_back_slow_pathIKS3_EEvRT_
hie:_Array_InternalArray__ICollection_Remove_TisX509ChainStatus_t4278378721_m4127982424_gshared
Llc:__Z47Register_UnityEngine_Camera_get_allCamerasCountv
Rld:___clang_call_terminate
PB:__ZThn148_NK26AnimatorControllerPlayable24HasStateMachineBehaviourEv
$bd:__ZN22BaseUnityConnectClient20StartEventDispatcherEv
Afc:__ZNSt3__26vectorIj13stl_allocatorIjL18MemLabelIdentifier1ELi16EEE6assignIPKtEENS_9enable_ifIXaasr21__is_forward_iteratorIT_EE5valuesr16is_constructibleIjNS_15iterator_traitsIS9_E9referenceEEE5valueEvE4typeES9_S9_
XE:__ZN7mecanim9animation16EvaluateAvatarIKEPKNS0_14AvatarConstantEPKNS0_11AvatarInputEPNS0_12AvatarOutputEPNS0_12AvatarMemoryEPNS0_15AvatarWorkspaceEb
EB:__ZN26AnimatorControllerPlayable10GetIntegerEiRi
Zjb:__Z29StdTemplateConversionFunctionIsiEbPvR14SafeBinaryRead
CHg:_PlayableGraph_INTERNAL_CALL_CreateScriptOutputInternal_m348659249
h0a:__ZN12InputManager13InputEndFrameEv
d0d:_SyncHashtable__ctor_m2029869827
rEj:__ZNSt3__26__treeIP11Il2CppClassNS_4lessIS2_EENS_9allocatorIS2_EEE25__emplace_unique_key_argsIS2_JRKS2_EEENS_4pairINS_15__tree_iteratorIS2_PNS_11__tree_nodeIS2_PvEEiEEbEERKT_DpOT0_
$Rj:__ZN6il2cpp2vm6Thread5SetupEP12Il2CppThread
Ifk:_Score__ctor_m972248426
Xkf:_ReadOnlyCollection_1_System_Collections_IList_Remove_m2200089035_gshared
o7e:_Collection_1_CheckWritable_m2756357359_gshared
Cik:___munmap
dMd:_InputField_get_characterLimit_m2386380888
WUh:__ZL68ColorBlock_t2652774230_CustomAttributesCacheGenerator_m_PressedColorP21CustomAttributesCache
b5d:_Convert_ToInt64_m1722087499
mg:_localtime_r
Tfk:_Score_set_name_m823756699
Yth:__ZL81AppDomain_t2719102437_CustomAttributesCacheGenerator_assembly_resolve_in_progressP21CustomAttributesCache
LHg:_PlayableHandle_GetInputCount_m3249715311
VX:__ZN4FMOD5Sound11getDefaultsEPfS1_S1_Pi
Jnh:__ZL65InterfaceTypeAttribute_t4113096249_CustomAttributesCacheGeneratorP21CustomAttributesCache
og:_strftime
opa:__ZN7Texture33SetStoredColorSpaceNoDirtyNoApplyE17TextureColorSpace
yda:__ZN12FileAccessorD2Ev
Zua:__ZN10ColorRGBAf8TransferI18StreamedBinaryReadILb0EEEEvRT_
qCb:__ZN14VertexDataInfoC2Ev
wee:_Exception_GetObjectData_m2653827630
gEh:__ZL75Mesh_t1356156583_CustomAttributesCacheGenerator_Mesh_HasChannel_m3616583481P21CustomAttributesCache
jaj:_Vector3_Equals_m2692262876_AdjustorThunk
RJi:_InternalEnumerator_1_get_Current_m2415979394_gshared
_Vb:__ZL17Transfer_GUIStyleI18StreamedBinaryReadILb1EELb1EEvRK29SerializationCommandArgumentsR31RuntimeSerializationCommandInfo
Kii:_ScrollRect_SetDirtyCaching_m1491302821
PHg:_PlayableHandle_SetInputCount_m2001045454
MEj:__ZN6il2cpp6icalls8mscorlib6SystemL9IsPrivateEPK12PropertyInfo
iWg:__Z72RuntimeInvoker_DateTime_t693205669_DateTime_t693205669_Int32_t2071877448PFvvEPK10MethodInfoPvPS4_
x5f:_CustomAttributeData_GetCustomAttributes_m3258419955
h8:__ZN9shadertag10InitializeEv
N4a:__ZN13BatchRenderer20RenderSingleWithPassER17ShaderPassContextPK18SharedMaterialDataP6ShaderPN9ShaderLab4PassEiPKNS7_10GrabPassesEjib15BatchBreakCause
Cbh:__Z71RuntimeInvoker_CustomAttributeNamedArgument_t94157543_Int32_t2071877448PFvvEPK10MethodInfoPvPS4_
Yvd:_EncoderFallback__ctor_m1639180960
MQi:_InternalEnumerator_1_MoveNext_m1441038493_gshared
Dzb:__ZN15QualitySettings14QualitySetting8TransferI24GenerateTypeTreeTransferEEvRT_
Ooe:_Array_InternalArray__ICollection_CopyTo_TisParameterModifier_t1820634920_m4127516211_gshared
tvd:_DecoderReplacementFallback__ctor_m2344783488
A3f:_OutOfMemoryException__ctor_m239206850
yId:_GraphicRegistry_UnregisterGraphicForCanvas_m820096873
C5c:__Z28Font_Get_Custom_PropMaterialP12Il2CppObject
C8j:__ZN6il2cpp6icalls8mscorlib6System9Threading16NativeEventCalls19ResetEvent_internalE12Il2CppIntPtr
kZg:__Z88RuntimeInvoker_RuntimeObject_RuntimeObject_RuntimeObject_RuntimeObject_Int32_t2071877448PFvvEPK10MethodInfoPvPS4_
o9e:_Collection_1_Remove_m4136193368_gshared
iyd:_EventTrigger_OnPointerUp_m2791622548
sbh:__Z60RuntimeInvoker_DictionaryEntry_t3048875398_Int32_t2071877448PFvvEPK10MethodInfoPvPS4_
Tki:_Shadow_set_useGraphicAlpha_m141905402
Mec:__ZN22BlockMemoryCacheWriter14LockCacheBlockEjPPhS1_
zRh:__ZL106PlayableExtensions_t2358977238_CustomAttributesCacheGenerator_PlayableExtensions_SetInputCount_m3394969154P21CustomAttributesCache
Muc:__ZNSt3__218__insertion_sort_3IRPFbPKN5IMGUI9GUIWindowES4_EPPS2_EEvT0_SA_T_
onj:_GenericEqualityComparer_1_Equals_m1109000020_gshared
hNh:__ZL61GUISkin_t1436893342_CustomAttributesCacheGenerator_m_textAreaP21CustomAttributesCache
QDc:__Z22TransferField_NonArrayI8JSONRead27Converter_SimpleNativeClassI8GUIStyleEEvRK23StaticTransferFieldInfoR31RuntimeSerializationCommandInfoRT0_
hzj:__ZN15dense_hashtableI10KeyWrapperIPK19Il2CppGenericMethodES4_N6il2cpp8metadata23Il2CppGenericMethodHashEN14dense_hash_setIS4_S7_NS4_14EqualsComparerINS6_26Il2CppGenericMethodCompareEEENSt3__29allocatorIS4_EEE8IdentityESB_SE_E16reset_thresholdsEv
AUe:__ZN23InterfaceActionInvoker2IP24ObjectU5BU5D_t3614634134iE6InvokeEjP11Il2CppClassP12Il2CppObjectS1_i
xcc:__Z13RegisterClassI10GameObjectEvv
mAj:__ZNK15dense_hashtableINSt3__24pairIK10KeyWrapperIN6il2cpp5utils13dynamic_arrayIPK10Il2CppTypeLj4EEEEPFvvEEESA_NS3_8metadata19Il2CppSignatureHashEN14dense_hash_mapISA_SD_SG_NSA_14EqualsComparerINSF_22Il2CppSignatureCompareEEENS0_9allocatorISE_EEE9SelectKeyESK_SM_E5beginEv
Vjh:__ZL53HashValues_t2390200547_CustomAttributesCacheGeneratorP21CustomAttributesCache
YPf:_X509BasicConstraintsExtension_get_PathLengthConstraint_m3004531343
Tri:_AnimatorControllerPlayable_INTERNAL_CALL_ResetTriggerString_m2112584758
JC:__ZNK23AnimationPlayableOutput7GetTypeEv
wlh:__ZL125GenericTypeParameterBuilder_t1370236603_CustomAttributesCacheGenerator_GenericTypeParameterBuilder_GetConstructors_m103067670P21CustomAttributesCache
W5g:__Z69RuntimeInvoker_TextGenerationSettings_t2543476768_Vector2_t2243707579PFvvEPK10MethodInfoPvPS4_
pKh:__ZL139AnimatorControllerPlayable_t1744083903_CustomAttributesCacheGenerator_AnimatorControllerPlayable_INTERNAL_CALL_HasStateInternal_m2282151484P21CustomAttributesCache
qMe:_MissingMemberException__ctor_m4277447068
HUe:_List_1_Find_m1881447651_gshared
Ofg:_StrongNameKeyPair_System_Runtime_Serialization_ISerializable_GetObjectData_m1693082120
VLf:_NameValueCollection__ctor_m1767369537
VXb:__Z18Transfer_BlittableI18StreamedBinaryReadILb0EELb1E8Vector4fEvRK29SerializationCommandArgumentsR31RuntimeSerializationCommandInfo
wmj:_EqualityComparer_1__ctor_m3155445483_gshared
m0j:__ZN6il2cpp2vm6Method8GetParamEPK10MethodInfoj
UDe:_Int64_CompareTo_m1953686218
Lmj:_GenericComparer_1__ctor_m221205314_gshared
z5g:__Z31RuntimeInvoker_Axis_t2427050347PFvvEPK10MethodInfoPvPS4_
tVj:__ZN6il2cpp6icalls8mscorlib6System2IO6MonoIO4ReadE12Il2CppIntPtrP11Il2CppArrayiiPi
Xuk:_glBindVertexArray__wrapper
X2f:_DSA_Create_m3450041777
Wta:__ZN8Material8TransferI14SafeBinaryReadEEvRT_
HCi:_Debug_LogWarningFormat_m79553173
ovb:__ZN12CubemapArray17UploadToGfxDeviceEv
kji:_ScrollRect_AdjustBounds_m1033723448
oya:__ZN6prcoreL17RemapGenericFloatI15TexFormatRGHalf17TexFormatRGBAHalfEEvPKNS_9InnerInfoE
_Re:_Enumerator_System_Collections_IEnumerator_Reset_m2200349770_gshared
Xcf:_Collection_1_get_Item_m3791221403_gshared
krh:__ZL54PaddingMode_t3032142640_CustomAttributesCacheGeneratorP21CustomAttributesCache
LRj:__ZN24dense_hashtable_iteratorINSt3__24pairIK10KeyWrapperIP11Il2CppClassES4_EES5_N6il2cpp8metadata16SZArrayClassHashEN14dense_hash_mapIS5_S4_SA_NS5_14EqualsComparerINS9_19SZArrayClassCompareEEENS0_9allocatorIS7_EEE9SelectKeyESE_SG_E30advance_past_empty_and_deletedEv
jfa:__ZN13RuntimeStaticI21AssetReferenceStorageLb0EE16StaticInitializeEPv
KQf:_X509Chain_CheckRevocationOnChain_m2441901351
L4j:__ZN6il2cpp2vm13ManagedObject14QueryInterfaceERK10Il2CppGuidPPv
Hog:_Type_GetMethod_m3650909507
eR:__ZN11AudioSource4StopEb
bhk:_frexp
UOb:__ZN14SafeBinaryRead21TransferSTLStyleArrayI13dynamic_arrayI10Matrix4x4fLj4EEEEvRT_17TransferMetaFlags
adf:_Collection_1_CheckWritable_m732350052_gshared
AUd:_Byte_System_IConvertible_ToDecimal_m1036493607
Oth:__ZL47Timer_t791717973_CustomAttributesCacheGeneratorP21CustomAttributesCache
ioa:__Z25GetSplashScreenBackgroundRK5RectTIfE
eja:__ZN14dense_hash_mapIPKcPK4RTTIN11TypeManager23ConstCharPtrHashFunctorENS5_19ConstCharPtrEqualToE13stl_allocatorINSt3__24pairIKS1_S4_EEL18MemLabelIdentifier6ELi16EEEixERSB_
bWh:__ZL65Image_t2042527209_CustomAttributesCacheGenerator_m_PreserveAspectP21CustomAttributesCache
Zed:__ZN13RuntimeStaticI19UnityConnectServiceLb0EE16StaticInitializeEPv
kRi:_DefaultComparer_Compare_m1247109616_gshared
bgg:_ResourceManager__ctor_m498829021
BUa:__ZN18GlslGpuProgramGLESD2Ev
_hb:__ZN13RenderTexture14SetVolumeDepthEi
E8g:__Z88RuntimeInvoker_Int32_t2071877448_UIVertex_t1204258818_UIVertex_t1204258818_RuntimeObjectPFvvEPK10MethodInfoPvPS4_
f$f:_SerializationCallbacks__ctor_m722356782
uEc:__ZN10Matrix4x4f8TransferI8JSONReadEEvRT_
BNc:__ZThn4_N16PhysicsManager2D9PostSolveEP9b2ContactPK16b2ContactImpulse
Knh:__ZL49Marshal_t785896760_CustomAttributesCacheGeneratorP21CustomAttributesCache
Z9:__ZN17PersistentManager18ReadObjectThreadedEi
RLa:__ZN25TransformFeedbackSkinning31CleanupTransformFeedbackShadersEv
e5j:__ZN6il2cpp6icalls8mscorlib6System7Runtime16CompilerServices14RuntimeHelpers15InitializeArrayEP11Il2CppArray12Il2CppIntPtr
Q3a:__Z22scripting_object_unbox18ScriptingObjectPtr
DUc:__ZNK20TextRenderingPrivate8FontImpl19GetCharacterAdvanceEjijfPj
Rak:__ZN6il2cpp6icalls8mscorlib4Mono8Security12Cryptography18KeyPairPersistence16_IsUserProtectedEP12Il2CppString
twi:_AudioClipPlayable_Equals_m2497502457
Tif:_ReadOnlyCollection_1_Contains_m3936562733_gshared
kMf:_DefaultUriParser__ctor_m4218024811
X6f:_DerivedType_GetField_m3960169619
U9d:_Decimal_System_IConvertible_ToInt16_m3159038792_AdjustorThunk
jMg:__Z59RuntimeInvoker_Int64_t909078037_RuntimeObject_RuntimeObjectPFvvEPK10MethodInfoPvPS4_
fch:__Z41RuntimeInvoker_KeyValuePair_2_t3716250094PFvvEPK10MethodInfoPvPS4_
IAb:__ZN10VertexData8TransferI18StreamedBinaryReadILb0EEEEvRT_
X3g:__Z73RuntimeInvoker_Single_t2076509932_Vector4_t2243707581_Vector4_t2243707581PFvvEPK10MethodInfoPvPS4_
Iuf:_PKCS12_GetExistingParameters_m2413397265
Stj:_Nullable_1_get_Value_m1743067844_gshared
nbf:_Collection_1_ClearItems_m4268731177_gshared
kib:__ZN14PreloadManager16UpdatePreloadingEv
qqb:__ZN12BaseRendererD2Ev
bsk:_emscripten_glGenVertexArrays__wrapper
mcj:_X509CertificateCollection__ctor_m858704242
_Se:_Enumerator__ctor_m425576865_AdjustorThunk
Ukf:_ReadOnlyCollection_1_System_Collections_IList_Contains_m1545447998_gshared
g2j:__ZN14dense_hash_mapI10KeyWrapperIPK19Il2CppGenericMethodEP10MethodInfoN6il2cpp8metadata23Il2CppGenericMethodHashENS4_14EqualsComparerINS8_26Il2CppGenericMethodCompareEEENSt3__29allocatorINSD_4pairIKS4_S6_EEEEEC2EjRKS9_RKSC_
pnb:__ZNK21UnityDefaultAllocatorI17LowLevelAllocatorE8ContainsEPKv
bDj:__ZNSt3__213__vector_baseI6pollfdNS_9allocatorIS1_EEED2Ev
rEf:_ClientSessionInfo_get_Id_m3046630969
_h:_emscripten_get_main_loop_timing
oGe:_DirectoryInfo__ctor_m3750996792
NCd:_BaseMeshEffect_ModifyMesh_m2134816219
Ure:_Array_qsort_TisVector2_t2243707579_m3527759534_gshared
gCh:__ZL89GameObject_t1756533147_CustomAttributesCacheGenerator_GameObject_GetComponent_m3775849122P21CustomAttributesCache
Czb:__ZN24GenerateTypeTreeTransfer21TransferSTLStyleArrayINSt3__26vectorIN15QualitySettings14QualitySettingENS1_9allocatorIS4_EEEEEEvRT_17TransferMetaFlags
H4i:_ResourceRequest_t2560315377_marshal_pinvoke_cleanup
Uve:_Array_InternalArray__get_Item_TisAnimatorClipInfo_t3905751349_m2163447872_gshared
L$e:_List_1_System_Collections_Generic_IEnumerableU3CTU3E_GetEnumerator_m166627113_gshared
WFb:__ZNSt3__26vectorI9InputAxisNS_9allocatorIS1_EEE6resizeEj
ple:__ZN21InterfaceFuncInvoker2Ii19Vector2_t2243707579S0_E6InvokeEjP11Il2CppClassP12Il2CppObjectS0_S0_
U4a:__ZN13BatchRendererC2ER15RenderLoopStatsRK15RenderNodeQueuebbb
ypd:_SecurityElement_IsValidAttributeValue_m483287146
E3b:__ZNK2UI13RectTransform22GetTypeVirtualInternalEv
auh:__ZL56AppDomainSetup_t611332832_CustomAttributesCacheGeneratorP21CustomAttributesCache
tp:getTempRet0
cQd:_ArithmeticException__ctor_m104771799
s7g:__Z79RuntimeInvoker_Boolean_t3825574718_ContentTypeU26_t1802785839_Int32_t2071877448PFvvEPK10MethodInfoPvPS4_
P4f:_AssemblyTitleAttribute__ctor_m1696431446
nLd:_Image_AddQuad_m1603575622
M2j:__ZN24dense_hashtable_iteratorINSt3__24pairIK10KeyWrapperIPK19Il2CppGenericMethodEP10MethodInfoEES6_N6il2cpp8metadata23Il2CppGenericMethodHashEN14dense_hash_mapIS6_S9_SD_NS6_14EqualsComparerINSC_26Il2CppGenericMethodCompareEEENS0_9allocatorISA_EEE9SelectKeyESH_SJ_E30advance_past_empty_and_deletedEv
GAf:_PrivateKeyInfo_RemoveLeadingZero_m3396807048
Jef:_ReadOnlyCollection_1_System_Collections_Generic_ICollectionU3CTU3E_get_IsReadOnly_m1251192075_gshared
yUe:_List_1_GrowIfNeeded_m185971996_gshared
WSj:__ZN6il2cpp6icalls8mscorlib6System9ThreadingL21lookup_cached_cultureEP12Il2CppThreadi
ubb:__ZN18DeferredRenderLoopD2Ev
a9f:_GenericTypeParameterBuilder_GetMethods_m1243855818
Hqa:__ZNK16TypeTreeIterator4NameEv
qRh:__ZL90PlayableBinding_t2498078091_CustomAttributesCacheGenerator_U3CstreamTypeU3Ek__BackingFieldP21CustomAttributesCache
Yca:__ZN15FileSystemEntry3SetEPKc
cHj:_il2cpp_method_has_attribute
lQi:_InternalEnumerator_1__ctor_m2808001655_gshared
Ojd:_MACTripleDES__ctor_m884945242
GS:__ZN20SoundChannelInstance15ParameterBuffer5ApplyEPN4FMOD7ChannelE
Epi:_AnimationMixerPlayable_GetHandle_m277863172_AdjustorThunk
fpj:__ZL24UnresolvedVirtualCall_52P12Il2CppObjectPK10MethodInfo
AUc:__ZN20TextRenderingPrivate19NativeTextGenerator9InsertTabEv
Fgh:__ZL73Enum_t2459695545_CustomAttributesCacheGenerator_Enum_ToObject_m1688724857P21CustomAttributesCache
Wvg:_Rect_set_y_m4294916608
mcd:__ZN11UnityEngine15PlatformWrapper24GetRuntimePlatformStringEv
Ji:_glIsEnabled
JZb:__ZN15CacheWriterBaseD2Ev
mYh:__ZL56Slider_t297367283_CustomAttributesCacheGenerator_m_ValueP21CustomAttributesCache
EKb:__Z25scripting_class_get_image17ScriptingClassPtr
OEh:__ZL85Material_t193706927_CustomAttributesCacheGenerator_Material_GetTextureImpl_m623159197P21CustomAttributesCache
Mi:_emscripten_glDrawElementsInstanced
AB:__ZN26AnimatorControllerPlayable27SetupStateMachineBehavioursEv
gzf:_ARC4Managed_Dispose_m4102232694
Azf:_HMAC_Initialize_m3052649104
rEa:__ZN18JobBatchDispatcherD2Ev
z3b:__ZN9Transform17MainThreadCleanupEv
o7j:_GC_clear_hdr_marks
Xpk:_glScissor__wrapper
Nvk:_emscripten_glCreateShader__wrapper
RLd:_InputField_get_caretSelectPositionInternal_m3523572533
B0c:_cff_fd_select_get
onh:__ZL73CompilationRelaxationsAttribute_t238494011_CustomAttributesCacheGeneratorP21CustomAttributesCache
jMh:__ZL95CanvasRenderer_t261436805_CustomAttributesCacheGenerator_CanvasRenderer_SetMaterial_m1462355522P21CustomAttributesCache
VK:__Z13RegisterClassI18AnimatorControllerEvv
Umi:_Text_get_minHeight_m1562513104
Bnd:_SHA512Managed_processBlock_m3220567420
zLf:_NameObjectCollectionBase_get_Keys_m446053925
Wi:_emscripten_glGetShaderiv
v3h:_Transform_1__ctor_m353209818_gshared
S5g:__Z30RuntimeInvoker_Axis_t375128448PFvvEPK10MethodInfoPvPS4_
IT:__ZN4FMOD6System10getVersionEPj
PGe:_FileLoadException_GetObjectData_m2047020314
DPh:__ZL96RemoteSettings_t392466225_CustomAttributesCacheGenerator_RemoteSettings_CallOnUpdate_m1624968574P21CustomAttributesCache
yme:_Array_InternalArray__IndexOf_TisSByte_t454417549_m1427585061_gshared
j6c:__ZN2UI6Canvas23VirtualRedirectTransferER24GenerateTypeTreeTransfer
j2d:_Decimal_u64_m3991988111
Bbj:_YieldInstruction_t3462875981_marshal_pinvoke
rfj:_Predicate_1_BeginInvoke_m2959352225_gshared
V9h:_Dictionary_2_CopyToCheck_m2147716750_gshared
Gcj:_X509Certificate_Parse_m1764345628
Gbc:__ZN8GUILayer17RemoveFromManagerEv
iTc:__ZN13TextRendering4Font13AwakeFromLoadE17AwakeFromLoadMode
l4g:__Z70RuntimeInvoker_Void_t1841601450_Guid_t_RuntimeObject_Int32_t2071877448PFvvEPK10MethodInfoPvPS4_
MIa:__ZN9GfxDevice21ReleaseSharedMeshDataEP14SharedMeshData
Xvf:_SmallXmlParser_Peek_m2814840810
LGb:__ZNSt3__27__sort5IRNS_6__lessINS_4pairIPKN5Unity4TypeE7Hash128EES8_EEPS8_EEjT0_SC_SC_SC_SC_T_
haf:_Collection_1_ConvertItem_m3168406667_gshared
lhj:_UnityAction_1_EndInvoke_m2822290096_gshared
v6j:_GC_unreachable_finalize_mark_proc
Bxi:_AudioPlayableOutput_op_Implicit_m530962771
i6g:__Z70RuntimeInvoker_Single_t2076509932_Int32_t2071877448_Single_t2076509932PFvvEPK10MethodInfoPvPS4_
u7g:__Z77RuntimeInvoker_Boolean_t3825574718_InputTypeU26_t4050577942_Int32_t2071877448PFvvEPK10MethodInfoPvPS4_
_8e:_Collection_1_System_Collections_ICollection_get_SyncRoot_m2547259708_gshared
OYi:_ConstructionCall_GetObjectData_m3974358557
vqc:__Z43RectTransform_CUSTOM_INTERNAL_get_anchorMaxP12Il2CppObjectP13Vector2fIcall
RNg:__Z50RuntimeInvoker_Void_t1841601450_Single_t2076509932PFvvEPK10MethodInfoPvPS4_
_8d:_DateTimeOffset_get_DateTime_m229084964_AdjustorThunk
Jta:__ZN8Material28UpdateHashesOnPropertyChangeEN9ShaderLab16FastPropertyNameE
hrc:__Z53Register_UnityEngine_SortingLayer_GetLayerValueFromIDv
ZRe:_Enumerator__ctor_m3512622280_AdjustorThunk
ylj:_EqualityComparer_1_System_Collections_IEqualityComparer_Equals_m349194518_gshared
IZd:_CaseInsensitiveComparer_Compare_m1192858479
UMb:__Z18Transfer_BlittableI14SafeBinaryReadLb1E8Vector4fEvRK29SerializationCommandArgumentsR31RuntimeSerializationCommandInfo
yJe:_StreamAsyncResult_set_Done_m4272090534
IPd:_LayoutRebuilder_Clear_m2390054824
taf:_Collection_1_System_Collections_IList_Insert_m2968289909_gshared
VKa:__ZN13GfxDeviceGLES20SetComputeBufferDataE15ComputeBufferIDPKvjj
h5f:_Default_SelectMethod_m622251293
OV:__ZN11AudioSource12AddToManagerEv
xw:__ZN8Animator23VirtualRedirectTransferER19StreamedBinaryWriteILb0EE
rYi:_AsyncResult_get_NextSink_m1172723924
eD:__ZN11UnityEngine9Animation32CreateAnimatorGenericBindingsOptERKNS0_20AnimationSetBindingsER9TransformPKN7mecanim9animation14AvatarConstantEPKNS0_21AvatarBindingConstantEbRNS6_6memory9AllocatorER8Animator
A_h:__ZL130U3CShowReadyScreenU3Ec__Iterator0_t4161106453_CustomAttributesCacheGenerator_U3CShowReadyScreenU3Ec__Iterator0_Dispose_m2521512975P21CustomAttributesCache
YWj:__ZN6il2cpp2vm5Image13ClassFromNameEPK11Il2CppImagePKcS6_
Qlk:dynCall_vdddddd
H0b:__ZN24GenerateTypeTreeTransfer21TransferSTLStyleArrayINSt3__26vectorIN9ShaderLab14SerializedPassENS1_9allocatorIS4_EEEEEEvRT_17TransferMetaFlags
T8:__ZL32MarkLevelGameManagerDependenciesR27GarbageCollectorThreadState
aLa:__ZNK13GfxDeviceGLES26HasActiveRandomWriteTargetEv
Xgd:__ZN20UnityWebRequestProtoI19TransportJavaScript16AtomicRefCounter14RedirectHelper14ResponseHelper15DownloadHandler13UploadHandler12HeaderHelper14AsyncOperationE5BeginEv
Oqk:_glGetActiveUniformsiv__wrapper
erc:__Z43Register_UnityEngine_Material_EnableKeywordv
bba:__ZN13MonoBehaviour19SetupScriptingCacheE17ScriptingClassPtrP10MonoScript
uDj:__ZNSt3__214__split_bufferIP12Il2CppThreadRNS_9allocatorIS2_EEED2Ev
Fr:__Z20AnimationEventToMonoRK14AnimationEventR18MonoAnimationEvent
hEh:__ZL85Mesh_t1356156583_CustomAttributesCacheGenerator_Mesh_ExtractArrayFromList_m1349408169P21CustomAttributesCache
K9:__ZNK15dense_hashtableINSt3__24pairIKiiEEi21InstanceIDHashFunctorN14dense_hash_mapIiiS4_NS0_8equal_toIiEE13stl_allocatorIS3_L18MemLabelIdentifier1ELi16EEE9SelectKeyES7_SA_E13find_positionERS2_
Vfi:_Navigation_get_selectOnLeft_m3980387574_AdjustorThunk
q2h:_ShimEnumerator_get_Current_m3610131784_gshared
n3e:_List_1_Sort_m2158253314_gshared
XZg:__Z132RuntimeInvoker_Void_t1841601450_Vector3U26_t425862308_Vector3U26_t425862308_ColorU26_t3402129837_Single_t2076509932_SByte_t454417549PFvvEPK10MethodInfoPvPS4_
XQh:__ZL74UnityEventBase_t828812576_CustomAttributesCacheGenerator_m_PersistentCallsP21CustomAttributesCache
Zha:__ZZN15DirectorManager15InitializeClassEvEN52PreLateUpdateDirectorUpdateAnimationBeginRegistrator7ForwardEv
Bai:_DefaultComparer__ctor_m2265472997_gshared
XUj:__ZN6il2cpp2vm13LivenessState18ShouldProcessValueEP12Il2CppObjectP11Il2CppClass
Aob:__ZN4PPtrI6SpriteE8TransferI14SafeBinaryReadEEvRT_
Odh:__Z49RuntimeInvoker_UIVertex_t1204258818_RuntimeObjectPFvvEPK10MethodInfoPvPS4_
cTg:__Z52RuntimeInvoker_Void_t1841601450_TimeSpan_t3430258949PFvvEPK10MethodInfoPvPS4_
RQj:__ZN15dense_hashtableINSt3__24pairIK10KeyWrapperIP11Il2CppClassES4_EES5_N6il2cpp8metadata16SZArrayClassHashEN14dense_hash_mapIS5_S4_SA_NS5_14EqualsComparerINS9_19SZArrayClassCompareEEENS0_9allocatorIS7_EEE9SelectKeyESE_SG_E16reset_thresholdsEv
NHg:_PlayableHandle_GetInputCountInternal_m2692879798
d0b:__ZNSt3__26vectorIN9ShaderLab14SerializedPassENS_9allocatorIS2_EEE8__appendEj
v$b:__ZNSt3__26vectorIN9ShaderLab20SerializedSubProgram13BufferBindingENS_9allocatorIS3_EEEC2INS_11__wrap_iterIPS3_EEEET_SB_RKS5_PNS_9enable_ifIXaasr21__is_forward_iteratorISB_EE5valuesr16is_constructibleIS3_NS_15iterator_traitsISB_E9referenceEEE5valueEvE4typeE
TEf:_Context_get_SupportedCiphers_m2172827298
tla:__ZNK13ScreenManager21IsMultiDisplayEnabledEv
aJc:__ZN12b2WheelJoint24SolveVelocityConstraintsERK12b2SolverData
q6g:__Z133RuntimeInvoker_RuntimeObject_Vector2_t2243707579_Vector2_t2243707579_Single_t2076509932_Int32_t2071877448_RuntimeObject_RuntimeObjectPFvvEPK10MethodInfoPvPS4_
Iwb:__ZN9Texture2D23VirtualRedirectTransferER18StreamedBinaryReadILb0EE
oKc:__ZN10Collider2D8TransferI24GenerateTypeTreeTransferEEvRT_
Bce:_Double_System_IConvertible_ToUInt16_m286326038_AdjustorThunk
pZf:_TypeInfo__ctor_m1475908211
byj:__ZN30dense_hashtable_const_iteratorINSt3__24pairIK10KeyWrapperIPKcEP11Il2CppClassEES5_N6il2cpp5utils11StringUtils12StringHasherIS4_EEN14dense_hash_mapIS5_S8_SE_NS5_14EqualsComparerINSB_13VmStringUtils21CaseSensitiveComparerEEENS0_9allocatorIS9_EEE9SelectKeyESJ_SL_E30advance_past_empty_and_deletedEv
cqb:__ZNSt3__26__treeINS_12__value_typeIN4core12basic_stringIcNS2_20StringStorageDefaultIcEEEEjEENS_19__map_value_compareIS6_S7_NS_4lessIS6_EELb1EEE13stl_allocatorIS7_L18MemLabelIdentifier6ELi16EEE7destroyEPNS_11__tree_nodeIS7_PvEE
Jba:__ZN16ScriptingManager27NativeTypeForScriptingClassE17ScriptingClassPtr
LQf:_X509Chain_WrapUp_m1072032285
aej:_X509CertificateEnumerator_System_Collections_IEnumerator_MoveNext_m1448966539
DZc:_get_sfnt_table
a8e:_Collection_1_IsSynchronized_m3261594010_gshared
Mzg:_GUIStyle_GetNumCharactersThatFitWithinWidth_m3760066083
wzd:_PointerEventData_set_pressPosition_m2094137883
hyb:__ZN8Renderer20RendererAddedToSceneEv
F2f:_DES_get_Key_m2584608215
Icb:__ZL22ScheduleSceneNodesJobsP25ScheduleSceneNodesJobDataj
Jk:_emscripten_set_canvas_size
a$d:_Hashtable__ctor_m741952536
N$b:__ZNSt3__26vectorIN9ShaderLab20SerializedSubProgramENS_9allocatorIS2_EEE8__appendEj
J5:__ZN20DynamicHeapAllocatorI17LowLevelAllocatorE8AllocateEji
u5a:__ZN20DynamicPropertySheet15SetVectorQueuedERKN9ShaderLab16FastPropertyNameERK8Vector4fN19ShaderPropertySheet8SetFlagsE
rud:_String_Format_m1263743648
yhh:__ZL69RuntimeArray_CustomAttributesCacheGenerator_Array_Reverse_m3883292526P21CustomAttributesCache
Fif:_ReadOnlyCollection_1_System_Collections_IEnumerable_GetEnumerator_m4248982967_gshared
fE:__ZN7mecanim9animation22EvaluateAvatarRetargetEPKNS0_14AvatarConstantEPKNS0_11AvatarInputEPNS0_12AvatarOutputEPNS0_12AvatarMemoryEPNS0_15AvatarWorkspaceEb
SPd:_LayoutRebuilder_GetHashCode_m2745108660
Htb:__ZN14RenderSettings23VirtualRedirectTransferER19StreamedBinaryWriteILb0EE
IAc:__ZL26Transfer_SimpleNativeClassI9JSONWrite10RectOffsetLb0EEvRK29SerializationCommandArgumentsR31RuntimeSerializationCommandInfo
LIg:_ScriptPlayableOutput_GetHandle_m849642920_AdjustorThunk
oOa:__ZN17GenericDynamicVBO10AllocateVBEjR21DynamicVBOChunkHandle
YVe:_List_1_get_Item_m1547593893_gshared
$Fe:_Path_GetPathRoot_m1269357080
xYj:__ZN30dense_hashtable_const_iteratorI10KeyWrapperIP18Il2CppGenericClassES3_N6il2cpp8metadata22Il2CppGenericClassHashEN14dense_hash_setIS3_S6_NS3_14EqualsComparerINS5_25Il2CppGenericClassCompareEEENSt3__29allocatorIS3_EEE8IdentityESA_SD_EppEv
I_d:_KeyNotFoundException__ctor_m264393096
Nxd:_EventSystem_SetSelectedGameObject_m2211816110
H3h:_Transform_1__ctor_m4161450529_gshared
lek:_GhostMove_InitializeGhost_m1319561544
gl:_glMapBufferRange
Awb:__ZN9Texture2D8TransferI18StreamedBinaryReadILb0EEEEvRT_
Ync:__Z31Input_CUSTOM_GetMouseButtonDowni
qZg:__Z41RuntimeInvoker_HandshakeState_t1820731088PFvvEPK10MethodInfoPvPS4_
Zpc:__Z75Register_UnityEngine_Playables_PlayableHandle_INTERNAL_CALL_IsValidInternalv
rdc:__ZN13PlayableGraph4PlayEv
o3a:__ZNK9Transform16GetLocalPositionEv
CDh:__ZL89Input_t1785128008_CustomAttributesCacheGenerator_Input_get_imeCompositionMode_m4250689464P21CustomAttributesCache
tQd:_Array_System_Collections_ICollection_get_Count_m2897196527
zFa:__ZN13LoadOperation19IntegrateTimeSlicedEi
jFi:_ArrayReadOnlyList_1_get_Item_m176001975_gshared
zUf:_InterpreterFactory__ctor_m3331468903
nvf:_X501__cctor_m3795360380
lLa:__ZN13GfxDeviceGLES22DispatchComputeProgramE12ObjectHandleI18ComputeProgram_TagPvE15ComputeBufferIDj
iAg:_GUIStyle_set_contentOffset_m2138084868
e8e:_Collection_1_System_Collections_ICollection_CopyTo_m4193844941_gshared
Yr:__ZNK13AnimationClip15GetAverageSpeedEv
W4d:_Convert_ToInt32_m2297793940
kHa:__ZN7ApiGLES36GetTextureTargetViaFrameBufferStatusE16TextureDimensionj
vxb:__ZN15SerializeTraitsI13dynamic_arrayI7Hash128Lj8EEE19ResizeSTLStyleArrayERS2_i18MemLabelIdentifier
xQf:_X509Chain_Build_m1140429528
x_b:__ZN9ShaderLab21SerializedShaderState8TransferI14SafeBinaryReadEEvRT_
ijk:_ftruncate
zmd:_RSAPKCS1SignatureFormatter_SetKey_m2365816458
SBe:_Int16_GetHashCode_m304503362_AdjustorThunk
y1c:_cf2_stack_pushInt
pH:__ZN7mecanim9animation20DestroyLayerConstantEPNS0_13LayerConstantERNS_6memory9AllocatorE
mkg:_CompressedStack__ctor_m276924800
azd:_ExecuteEvents_get_cancelHandler_m1964324668
Rua:__ZN15SerializeTraitsINSt3__24pairIN4core12basic_stringIcNS2_20StringStorageDefaultIcEEEES6_EEE8TransferI24GenerateTypeTreeTransferEEvRS7_RT_
mIg:_PlayableOutput__ctor_m3826671654_AdjustorThunk
OCg:_Matrix4x4__ctor_m2771358574_AdjustorThunk
_Mh:__ZL70GUISettings_t622856320_CustomAttributesCacheGenerator_m_SelectionColorP21CustomAttributesCache
usk:b81
tsk:b80
tSa:__ZN7ApiGLES19CreateSparseTextureEjj14GraphicsFormatiiiiRiS1_S1_
nca:__ZN18ResourceImageGroup7CleanupEv
ysk:b85
xsk:b84
Gsk:b87
c$h:__ZL124U3CUpdateGUITextU3Ec__Iterator1_t3727998047_CustomAttributesCacheGenerator_U3CUpdateGUITextU3Ec__Iterator1__ctor_m2283264652P21CustomAttributesCache
qq:__ZN11Quaternionf8TransferI24GenerateTypeTreeTransferEEvRT_
wah:__Z68RuntimeInvoker_Void_t1841601450_Int32_t2071877448_Double_t4078015681PFvvEPK10MethodInfoPvPS4_
hbc:__ZN13ProduceHelperI4MeshLb0EE7ProduceE18MemLabelIdentifier18ObjectCreationMode
EAf:_PrivateKeyInfo_Decode_m1053025782
pSf:_X509ChainElementCollection_System_Collections_ICollection_CopyTo_m1467895312
quf:_PKCS12_Decrypt_m2457743414
WKh:__ZL87Animator_t69676727_CustomAttributesCacheGenerator_Animator_SetTriggerString_m2002790359P21CustomAttributesCache
rub:__ZN8Playable19SetOutputConnectionEPS_i
sxj:__ZN15dense_hashtableINSt3__24pairIK10KeyWrapperIPK11Il2CppClassEPKcEES6_N6il2cpp5utils11PointerHashIS3_EEN14dense_hash_mapIS6_S9_SE_NS6_14EqualsComparerINS0_8equal_toIS5_EEEENS0_9allocatorISA_EEE9SelectKeyESJ_SL_EC2ERKSO_j
Vl:_glDeleteShader
ree:_Exception_GetType_m3898489832
jya:__ZN6prcoreL17RemapGenericFloatI15TexFormatRGHalf16TexFormatRGFloatEEvPKNS_9InnerInfoE
f5e:_Stack_1_Peek_m1548778538_gshared
Saj:_Vector4_Dot_m2285943745
Qki:_Shadow_set_effectColor_m3110056844
JGg:_Physics2D_GetColliderFromInstanceID_m95920619
njc:__Z27scripting_add_internal_callPKcPKv
cqe:_Array_InternalArray__Insert_TisUriScheme_t1876590943_m2728325409_gshared
mNh:__ZL72GUISkin_t1436893342_CustomAttributesCacheGenerator_m_verticalSliderThumbP21CustomAttributesCache
vPj:__ZN13Il2CppHashMapINSt3__24pairIPK9EventInfoP11Il2CppClassEEj17ReflectionMapHashIS7_ENS0_8equal_toIS7_EENS0_9allocatorINS1_IK10KeyWrapperIS7_EjEEEEEC2EjRKS9_RKSB_
bZj:__GLOBAL__sub_I_GarbageCollector_cpp
G7:__Z17GetPlayerSettingsv
Y$b:__ZNSt3__26vectorIN9ShaderLab20SerializedSubProgram16SamplerParameterENS_9allocatorIS3_EEE6assignIPS3_EENS_9enable_ifIXaasr21__is_forward_iteratorIT_EE5valuesr16is_constructibleIS3_NS_15iterator_traitsISA_E9referenceEEE5valueEvE4typeESA_SA_
GE:__ZN34BlobWriteTransferSTLStyleArrayImplI22OffsetPtrArrayTransferIiEEclERS1_17TransferMetaFlagsR9BlobWrite
nej:_X509Store_CheckStore_m1027496478
Kmh:__ZL82MethodBase_t904190842_CustomAttributesCacheGenerator_MethodBase_Invoke_m1075809207P21CustomAttributesCache
Ow:__ZN26AnimatorControllerPlayable18SetLayerAutoWeightEv
Qb:invoke_vffff
Ijk:__ZNSt3__212basic_stringIcNS_11char_traitsIcEENS_9allocatorIcEEEC2ERKS5_jjRKS4_
Ytd:_String_Contains_m4017059963
vte:_Array_swap_TisCustomAttributeNamedArgument_t94157543_TisCustomAttributeNamedArgument_t94157543_m3600072996_gshared
QQi:_DefaultComparer_Compare_m1606207039_gshared
w8c:__ZN2UI14CanvasRenderer12SyncMaterialENS0_8SyncFlagE
HJh:__ZL137AnimatorControllerPlayable_t1744083903_CustomAttributesCacheGenerator_AnimatorControllerPlayable_CrossFade_m3794224188____normalizedTime3P21CustomAttributesCache
Eak:__ZN6il2cpp2vm9Parameter30GetDefaultParameterValueObjectEPK10MethodInfoPK13ParameterInfoPb
Skj:_Action_EndInvoke_m4281032350
l5b:__ZN15dense_hashtableINSt3__24pairIKN4core12basic_stringIcNS2_20StringStorageDefaultIcEEEE10vector_setI4PPtrI11SpriteAtlasENS0_4lessISB_EE13stl_allocatorISB_L18MemLabelIdentifier79ELi16EEEEES6_20StringHash32FunctionIS6_EN14dense_hash_mapIS6_SH_SK_NS0_8equal_toIS6_EESE_ISI_LSF_79ELi16EEE9SelectKeyESN_SO_E12maybe_shrinkEv
Tqe:_Array_InternalArray__set_Item_TisLabelData_t3712112744_m2253365137_gshared
$cg:_MonoCMethod_get_Attributes_m3914742834
INi:_InternalEnumerator_1__ctor_m142220063_AdjustorThunk
ODg:_MonoBehaviour_Invoke_m666563676
A6f:_ConstructorBuilder_get_DeclaringType_m4264602248
qKe:_StringReader__ctor_m643998729
fNf:_IPv6Address_TryParse_m2220524278
BPd:_U3CDelayedSetDirtyU3Ec__Iterator0_System_Collections_Generic_IEnumeratorU3CobjectU3E_get_Current_m2210283424
Bv:__ZN14AnimationEvent8TransferI19StreamedBinaryWriteILb0EEEEvRT_
Cu:__ZN7mecanim9animation9DenseClip8TransferI24GenerateTypeTreeTransferEEvRT_
uZc:_UNITY_tt_face_done_kern
FWi:_Context_get_DefaultContext_m2211922324
t5f:_CustomAttributeData_get_NamedArguments_m708818174
lxc:__Z59GUIStyle_CUSTOM_Internal_GetNumCharactersThatFitWithinWidth13Il2Cpp_IntPtrP12Il2CppStringf
TCb:__ZN12BoneWeights48TransferI24GenerateTypeTreeTransferEEvRT_
VAf:_RSAManaged_GetPaddedValue_m2972141669
DN:__Z62AnimationPlayableOutput_CUSTOM_INTERNAL_CALL_InternalSetTargetR15HPlayableOutputP12Il2CppObject
lGf:_TlsServerCertificate_ProcessAsSsl3_m277089231
mke:_Array_InternalArray__IEnumerable_GetEnumerator_TisUInt16_t986882611_m3665860884_gshared
vna:__Z19scripting_gc_enablev
Dgd:__ZN20UnityWebRequestProtoI19TransportJavaScript16AtomicRefCounter14RedirectHelper14ResponseHelper15DownloadHandler13UploadHandler12HeaderHelper14AsyncOperationE9DoRequestEv
$_a:__ZZ23InitPlayerLoopCallbacksvEN41InitializationPlayerUpdateTimeRegistrator7ForwardEv
F0i:_AnchorInfo__ctor_m617409099
Cjb:__Z29StdTemplateConversionFunctionIihEbPvR14SafeBinaryRead
b9f:_GenericTypeParameterBuilder_GetMethodImpl_m528545634
qad:__Z55Register_UnityEngine_CanvasRenderer_DisableRectClippingv
eVf:_Interval_CompareTo_m2909556284_AdjustorThunk
mCb:__ZN14SafeBinaryRead21TransferSTLStyleArrayI13dynamic_arrayI11ColorRGBA32Lj4EEEEvRT_17TransferMetaFlags
xRh:__ZL61PlayableExtensions_t2358977238_CustomAttributesCacheGeneratorP21CustomAttributesCache
zVa:__ZN9GfxDevice22UploadTextureCubeArrayE9TextureIDPKhjii14GraphicsFormati18TextureUploadFlags
ehh:__ZL87RuntimeArray_CustomAttributesCacheGenerator_Array_CreateInstance_m679102425____lengths1P21CustomAttributesCache
GRh:__ZL83Logger_t3328995178_CustomAttributesCacheGenerator_Logger_get_logHandler_m4190583509P21CustomAttributesCache
mwi:_AudioClip_get_length_m3881628918
Jfi:_Navigation_t1571958496_marshal_pinvoke
XTf:_Interpreter_GetLastDefined_m2450713313
W$i:_Parser_ParseAssertionType_m3316669790
h2b:__ZN9ShaderLab7Program27CreateFromSerializedProgramERKNS_17SerializedProgramE10ShaderTypeiP16PropertyNamesSetPK6Shader
rki:_Selectable_get_isPointerDown_m774209881
Jgh:__ZL73Enum_t2459695545_CustomAttributesCacheGenerator_Enum_ToObject_m2460371738P21CustomAttributesCache
t3b:__ZNSt3__27__sort4IRNS_6__lessIN4core12basic_stringIcNS2_20StringStorageDefaultIcEEEES6_EEPS6_EEjT0_SA_SA_SA_T_
zmk:dynCall_viiiifii
zZf:_TypeInfo__ctor_m1219583114
ZNj:__ZN6il2cpp2gc19AppendOnlyGCHashMapINSt3__24pairIPK11Il2CppImageP11Il2CppClassEEP22Il2CppReflectionModule17ReflectionMapHashIS9_ENS2_8equal_toIS9_EEEC2Ev
W9:__Z20GetPersistentManagerv
L4c:_UNITY_TT_Set_Var_Design
EWi:_Context_Finalize_m1386439645
Nka:__ZN21SystemInfoStringCache16StaticInitializeEPv
qCf:_TlsStream__ctor_m4117943603
MKj:__ZN15dense_hashtableINSt3__24pairIK10KeyWrapperIPK10Il2CppTypeEjEES6_N6il2cpp8metadata14Il2CppTypeHashEN14dense_hash_mapIS6_jSB_NS6_14EqualsComparerINSA_26Il2CppTypeEqualityComparerEEENS0_9allocatorIS8_EEE9SelectKeyESF_SH_E12maybe_shrinkEv
gmi:_Text_FontTextureChanged_m4236993972
m1j:__ZN6il2cpp2gc16GarbageCollector23MakeDescriptorForObjectEPji
iZj:__ZNK10KeyWrapperIP12Il2CppObjectE14EqualsComparerINSt3__28equal_toIS1_EEEclERKS2_S9_
Cfg:_ParameterModifier_t1820634920_marshal_pinvoke
GJb:__ZNK13MonoBehaviour7GetNameEv
Tza:__ZN19ScriptingInvocation28AdjustArgumentsToMatchMethodEv
JYj:__ZN15dense_hashtableI10KeyWrapperIP18Il2CppGenericClassES3_N6il2cpp8metadata22Il2CppGenericClassHashEN14dense_hash_setIS3_S6_NS3_14EqualsComparerINS5_25Il2CppGenericClassCompareEEENSt3__29allocatorIS3_EEE8IdentityESA_SD_E6insertERKS3_
NX:__Z15_CheckFMODError11FMOD_RESULTPKciS1_
mwd:_AbstractEventData_Use_m1797212290
Xsb:__Z20RenderMultipleMeshesRK15RenderNodeQueueRK18RenderMultipleData17ShaderChannelMask
SMg:__Z199RuntimeInvoker_Void_t1841601450_ByteU2AU26_t3544685828_ByteU2AU26_t3544685828_DoubleU2AU26_t3349029_UInt16U2AU26_t1636670495_UInt16U2AU26_t1636670495_UInt16U2AU26_t1636670495_UInt16U2AU26_t1636670495PFvvEPK10MethodInfoPvPS4_
DKh:__ZL135AnimatorControllerPlayable_t1744083903_CustomAttributesCacheGenerator_AnimatorControllerPlayable_INTERNAL_CALL_SetTriggerID_m1169129620P21CustomAttributesCache
UIj:__ZN6il2cpp2vm4Type19GetGenericParameterEPK10Il2CppType
S9c:__Z51Register_UnityEngine_CanvasGroup_get_blocksRaycastsv
jPi:_InternalEnumerator_1_get_Current_m2826780083_gshared
_vk:b119
SWi:_Context_UnregisterDynamicProperty_m4064851633
U5d:_Convert_EndianSwap_m975554045
rEc:__ZN8JSONRead21TransferSTLStyleArrayI13dynamic_arrayI11ColorRGBA32Lj4EEEEvRT_18MemLabelIdentifier17TransferMetaFlags
XZh:__ZL105LayoutUtility_t4076838048_CustomAttributesCacheGenerator_LayoutUtility_U3CGetMinHeightU3Em__4_m1769295917P21CustomAttributesCache
kai:_Dictionary_2_GetEnumerator_m1752238884_gshared
gMj:__ZNK15dense_hashtableINSt3__24pairIK10KeyWrapperINS1_IPK11Il2CppImageP11Il2CppClassEEEjEES9_17ReflectionMapHashIS8_EN14dense_hash_mapIS9_jSD_NS9_14EqualsComparerINS0_8equal_toIS8_EEEENS0_9allocatorISB_EEE9SelectKeyESI_SK_E3endEv
MJg:_RaycastHit2D_get_collider_m2568504212
wQi:_InternalEnumerator_1__ctor_m2782443954_AdjustorThunk
Fd:_glBeginQuery
X3f:_Assembly_GetCustomAttributes_m95309865
fvg:_GUILayoutUtility_INTERNAL_CALL_Internal_GetWindowRect_m3236664463
QI:__ZN18AnimatorController19TransferRuntimeDataI24GenerateTypeTreeTransferEEvRT_
qRc:__ZN10Effector2D25CheckEffectorColliderMaskEP10Collider2DS1_
T0a:__ZN6Camera12RenderStereoENS_10RenderFlagE8CullFlagPNS_24PerformEyeRenderFunctionE
nZh:__ZL73LayoutElement_t2808691390_CustomAttributesCacheGenerator_m_FlexibleHeightP21CustomAttributesCache
Mla:__ZN20LocalFileSystemPosix10ToAbsoluteEPKc
Nsb:__ZN20TierGraphicsSettings8TransferI19StreamedBinaryWriteILb0EEEEvRT_
_1d:_Convert_ToBoolean_m48997236
Kde:_Enum_ToObject_m275924358
Dm:f0
up:__ZN6Object17MainThreadCleanupEv
OXd:_ArrayListWrapper_set_Capacity_m2792463350
msb:__Z32TransferEnumWithNameForceIntSizeI14SafeBinaryRead7HDRModeEvRT_RT0_PKc17TransferMetaFlags
_hk:_getcwd
qig:_StringBuilder_Append_m1128243247
oOc:__ZN16b2CapsuleContact6CreateEP9b2FixtureiS1_iP16b2BlockAllocator
G0i:_AnchorInfo_get_Offset_m142119297
dri:_AnimatorControllerPlayable_GetBool_m3606320557
_mb:__ZN25ThreadsafeLinearAllocatorD2Ev
P6d:_DateTime_get_Year_m1985210972
Una:__Z21SendMessageToEveryoneRK17MessageIdentifier11MessageData
eyg:_GUISkin_get_settings_m626844463
Wfa:__ZN21BillboardBatchManager16StaticInitializeEPv
iyg:_Object_get_name_m2079638459
S6:__ZN12_GLOBAL__N_138ArchiveRedirectFileSystemStaticDestroyEPv
lgj:_InvokableCall_1_add_Delegate_m3048312905_gshared
iee:_EventHandler_Invoke_m1137722757
lvb:__ZN12CubemapArray34UpdateFileTextureUploadInstructionEP26FileAssetUploadInstructionj
NNe:_MonoType_IsSubclassOf_m2211166238
Wfg:_TypeFilter_EndInvoke_m997625354
C9e:_Collection_1_System_Collections_ICollection_CopyTo_m2859266050_gshared
sSa:__Z23CreateSparseTextureGLES9TextureIDii14GraphicsFormati
HRi:_Comparer_1__ctor_m2876014041_gshared
y7j:_GC_continue_reclaim
XEe:_InvalidCastException__ctor_m2730571470
qSf:_X509ChainElementCollection_System_Collections_IEnumerable_GetEnumerator_m2559704689
bzh:__ZL86BigInteger_t925946153_CustomAttributesCacheGenerator_BigInteger_op_Implicit_m622924526P21CustomAttributesCache
eVh:__ZL59Dropdown_t1985816271_CustomAttributesCacheGenerator_m_ValueP21CustomAttributesCache
DUf:_InterpreterFactory_set_Gap_m2761943153
GPf:_PublicKey_get_Key_m126090744
tVc:__ZNSt3__23mapIN20TextRenderingPrivate7FontRefEP11FT_FaceRec_NS_4lessIS2_EENS_9allocatorINS_4pairIKS2_S4_EEEEEixERS9_
WWa:__ZN17ArchiveFileSystem10AddStorageEP20ArchiveStorageReader
TAi:_Color_Equals_m661618137
fAi:_CanvasRenderer_SplitIndicesStreamsInternal_m817541557
IHc:__ZNK12b2MotorJoint16GetReactionForceEf
vCj:__ZN6il2cpp2vm13MetadataCache37GetParameterDefaultValueDataFromIndexEi
Dci:_EqualityComparer_1_System_Collections_IEqualityComparer_GetHashCode_m1203798961_gshared
NNh:__ZL89GUIStyle_t1799908754_CustomAttributesCacheGenerator_GUIStyle_AssignRectOffset_m2998103580P21CustomAttributesCache
Dvj:__ZN6il2cpp2vm5Class15GetEnumBaseTypeEP11Il2CppClass
lGe:_DirectoryNotFoundException__ctor_m3713860966
Uvb:__ZNK9Texture2D16GetNpotTexelSizeEv
RIi:_InternalEnumerator_1__ctor_m245588437_gshared
gTf:_Capture_get_Text_m3472127896
Oei:_Mask_get_rectTransform_m3304369086
N7i:_TooltipAttribute__ctor_m2640804852
m4g:__Z78RuntimeInvoker_Void_t1841601450_ScriptableRenderContext_t4271526_RuntimeObjectPFvvEPK10MethodInfoPvPS4_
Uu:__ZN18StreamedBinaryReadILb0EE8TransferINSt3__26vectorIN13AnimationClip12Vector3CurveE13stl_allocatorIS5_L18MemLabelIdentifier25ELi16EEEEEEvRT_PKc17TransferMetaFlags
tOa:__ZN9GfxDevice22GetDefaultVertexBufferE26GfxDefaultVertexBufferTypej
c8e:_Collection_1__ctor_m3903788797_gshared
aif:_ReadOnlyCollection_1_System_Collections_ICollection_CopyTo_m1129689124_gshared
qik:___fseeko_unlocked
Jsk:_glGetActiveUniform__wrapper
iik:_sscanf
Mcf:_Collection_1_Contains_m1999290510_gshared
GCb:__ZN14SafeBinaryRead21TransferSTLStyleArrayINSt3__26vectorI17BlendShapeChannelNS1_9allocatorIS3_EEEEEEvRT_17TransferMetaFlags
fwa:__Z17BeginSplashScreenv
s1b:__ZN9ShaderLab16SerializedShader8TransferI19StreamedBinaryWriteILb0EEEEvRT_
cqg:_UInt32_Parse_m2400360707
xG:__ZN7mecanim9animation18CreateAvatarMemoryEPKNS0_14AvatarConstantERNS_6memory9AllocatorE
w1d:_Stack_Pop_m3788808882
j0h:_Enumerator_VerifyCurrent_m4246196125_AdjustorThunk
g9h:_Dictionary_2_pick_value_m3484897877_gshared
z8d:_DateTime_op_Equality_m1867073872
pF:__ZN7mecanim8skeleton16SkeletonPoseCopyIN4math4trsXENS2_7affineXEEEvPKNS0_13SkeletonPoseTIT_EEPNS5_IT0_EE
xXe:_List_1_CopyTo_m1916701891_gshared
XTb:__Z18Transfer_BlittableI19StreamedBinaryWriteILb0EELb0EaEvRK29SerializationCommandArgumentsR31RuntimeSerializationCommandInfo
_Na:__ZN18GfxFramebufferGLES18GetFramebufferNameERK20GfxRenderTargetSetup
d$h:__ZL181U3CUpdateGUITextU3Ec__Iterator1_t3727998047_CustomAttributesCacheGenerator_U3CUpdateGUITextU3Ec__Iterator1_System_Collections_Generic_IEnumeratorU3CobjectU3E_get_Current_m2177183068P21CustomAttributesCache
pVj:__ZN6il2cpp6icalls8mscorlib6System2IO6MonoIO11GetFileTypeE12Il2CppIntPtrPi
Nvc:__Z30Event_Get_Custom_PropCharacterP12Il2CppObject
yha:__ZN13PlayableGraph27SchedulePlayableDestructionERK9HPlayable
Rpk:_glGetFramebufferAttachmentParameteriv__wrapper
nJh:__ZL145AnimatorControllerPlayable_t1744083903_CustomAttributesCacheGenerator_AnimatorControllerPlayable_INTERNAL_CALL_IsInTransitionInternal_m3428375524P21CustomAttributesCache
Ffd:__Z13RegisterClassI20UnityConnectSettingsEvv
QNb:__Z22scripting_array_length17ScriptingArrayPtr
upd:_SecurityElement_GetAttribute_m4288291176
z3i:_UriParser_get_DefaultPort_m1377931533
ejj:_IndexedSet_1_get_Count_m2839545138_gshared
hDa:__ZN14SafeBinaryRead20TransferTypelessDataEjPvi
Btg:_RenderPipelineManager_get_currentPipeline_m679160301
rnh:__ZL66StringFreezingAttribute_t2691375565_CustomAttributesCacheGeneratorP21CustomAttributesCache
Azc:__ZN9rapidjson13GenericReaderINS_4UTF8IcEES2_13JSONAllocatorE10ParseFalseILj1ENS_25GenericInsituStringStreamIS2_EENS_15GenericDocumentIS2_S3_S3_EEEEvRT0_RT1_
Soi:_AnimationClipPlayable_INTERNAL_CALL_SetApplyFootIKInternal_m4116451205
d$e:_List_1_AddCollection_m3284813601_gshared
b$c:_Horizontal_Sweep_Init
DYh:__ZL102ToggleGroup_t1030026315_CustomAttributesCacheGenerator_ToggleGroup_U3CActiveTogglesU3Em__1_m4052653494P21CustomAttributesCache
eX:__ZN13dynamic_arrayI12SoundChannelLj4EE9push_backERKS0_
E7:__Z19GetActiveColorSpacev
Wci:_EqualityComparer_1__cctor_m1672307556_gshared
uXf:_SoapTypeAttribute_get_IsInteropXmlElement_m2941294827
yFb:__ZN14SpriteRenderer18UpdateCachedSpriteEv
ISe:_Enumerator_System_Collections_IEnumerator_get_Current_m3542273247_gshared
dWd:_Char_System_IConvertible_ToUInt32_m1557991717_AdjustorThunk
uhg:_Encoding_get_UTF8Unmarked_m628720656
bye:_NumberFormatter_RoundBits_m1545255255
l8:__Z6StrCmpPKcS0_
gOi:_InternalEnumerator_1_MoveNext_m2906956792_gshared
xTg:__Z119RuntimeInvoker_Void_t1841601450_RuntimeObject_Int64U26_t763825331_ObjectU26_t597476745_SerializationInfoU26_t4051840202PFvvEPK10MethodInfoPvPS4_
R2b:__Z21CheckGpuProgramUsable20ShaderGpuProgramType
S4f:_Binder__cctor_m3736115807
v0j:__ZN6il2cpp2os9Directory20GetFileSystemEntriesERKNSt3__212basic_stringIcNS2_11char_traitsIcEENS2_9allocatorIcEEEESA_iiPi
A8g:__Z84RuntimeInvoker_Int32_t2071877448_Color32_t874517518_Color32_t874517518_RuntimeObjectPFvvEPK10MethodInfoPvPS4_
dai:_Dictionary_2_OnDeserialization_m2160537783_gshared
uSd:_Attribute_GetHashCode_m2653962112
sUc:__ZN20TextRenderingPrivate19NativeTextGenerator5SetupEv
tYi:_AsyncResult_GetReplyMessage_m262842621
YQe:_Enumerator__ctor_m3021143890_AdjustorThunk
AHb:__ZN12AspectRatios8TransferI18StreamedBinaryReadILb0EEEEvRT_
mjh:__ZL66X509ExtensionCollection_t1640144839_CustomAttributesCacheGeneratorP21CustomAttributesCache
Hcc:__ZN10GameObject14CopyPropertiesERS_
Qxc:__Z44Register_UnityEngine_GUIStyle_get_fixedWidthv
Uld:_RSACryptoServiceProvider_Common_m2581564813
V$j:__ZNSt3__214__split_bufferIN6il2cpp2os10ThreadImpl10APCRequestERNS_9allocatorIS4_EEEC2EjjS7_
Msi:_AnimatorControllerPlayable_INTERNAL_CALL_GetCurrentAnimatorClipInfoInternal_m3360626147
qIe:_MemoryStream_CheckIfClosedThrowDisposed_m2253054610
HFi:_ArrayReadOnlyList_1_GetEnumerator_m634288642_gshared
Hib:__ZNK13ScreenManager12IsFullScreenEv
Lik:_rand
sqk:_emscripten_glFramebufferRenderbuffer__wrapper
H3g:__Z72RuntimeInvoker_Boolean_t3825574718_Ray_t2469606224_SingleU26_t4173844468PFvvEPK10MethodInfoPvPS4_
W0j:__ZN6il2cpp5utils9PathUtils7CombineIcEENSt3__212basic_stringIT_NS3_11char_traitsIS5_EENS3_9allocatorIS5_EEEERKNS0_10StringViewIS5_EERKSA_
flf:_ReadOnlyCollection_1_GetEnumerator_m2481390116_gshared
RQg:__Z77RuntimeInvoker_Void_t1841601450_RuntimeObject_Int32_t2071877448_RuntimeObjectPFvvEPK10MethodInfoPvPS4_
EOb:__ZN14SafeBinaryRead21TransferSTLStyleArrayINSt3__26vectorI17AnimationCurveTplIfE13stl_allocatorIS4_L18MemLabelIdentifier1ELi16EEEEEEvRT_17TransferMetaFlags
Tkc:__Z60Register_UnityEngine_AsyncOperation_set_allowSceneActivationv
eMj:__ZN15dense_hashtableINSt3__24pairIK10KeyWrapperINS1_IPK11Il2CppImageP11Il2CppClassEEEjEES9_17ReflectionMapHashIS8_EN14dense_hash_mapIS9_jSD_NS9_14EqualsComparerINS0_8equal_toIS8_EEEENS0_9allocatorISB_EEE9SelectKeyESI_SK_E12expand_arrayEjN21dense_hash_map_traits17integral_constantIbLb0EEE
B_f:_ObjectManager_RegisterObject_m872610295
ocb:__Z22PrepareOptimizedPlanesPK5PlaneiPKN4math7_float4E
FKg:_RectOffset_t3387826427_marshal_pinvoke
tId:_Graphic_SetVerticesDirty_m1607014370
j4:__ZN11UnityEngine15CloudWebService17WebFileDownloaderINS0_20WebRequestRestClientENS0_23WebRequestRestHeaderMapEE10InitializeERKN4core12basic_stringIcNS5_20StringStorageDefaultIcEEEE
Ufa:__ZN17UniqueIDGenerator15CreatePureIndexEv
kyc:__Z59Register_UnityEngine_GUIStyle_Internal_GetCursorFlashOffsetv
iw:__ZN11UnityEngine9Animation28GenericAnimationBindingCache15DidReloadDomainEv
Bwf:_AppDomain_InternalGetProcessGuid_m1278588156
INd:_InputField_MoveRight_m386206014
V$d:_HashValues_get_Count_m234926373
hK:__ZN19StreamedBinaryWriteILb0EE8TransferIN7mecanim9animation23BlendDirectDataConstantEEEvRT_PKc17TransferMetaFlags
ZOg:__Z116RuntimeInvoker_Boolean_t3825574718_RuntimeObject_Int32_t2071877448_RuntimeObject_Int32_t2071877448_Int32_t2071877448PFvvEPK10MethodInfoPvPS4_
rFe:_BinaryReader_ReadBoolean_m2892291883
Tuj:__ZN15dense_hashtableINSt3__24pairIK10KeyWrapperIPK22Il2CppGenericParameterEP11Il2CppClassEES6_N6il2cpp5utils11PointerHashIS4_EEN14dense_hash_mapIS6_S9_SE_NS6_14EqualsComparerINS0_8equal_toIS5_EEEENS0_9allocatorISA_EEE9SelectKeyESJ_SL_E14squash_deletedEv
mIb:__ZNSt3__26__treeINS_12__value_typeIN4core12basic_stringIcNS2_20StringStorageDefaultIcEEEE4PPtrI6ObjectEEENS_19__map_value_compareIS6_SA_NS_4lessIS6_EELb1EEE13stl_allocatorISA_L18MemLabelIdentifier51ELi16EEE7destroyEPNS_11__tree_nodeISA_PvEE
SHc:__ZNK12b2MouseJoint17GetReactionTorqueEf
Wqh:__ZL66DSASignatureDeformatter_t2187578719_CustomAttributesCacheGeneratorP21CustomAttributesCache
Ttc:__Z14GUIClipTextureP9Texture2DPhiiii
fu:__ZN14SafeBinaryRead21TransferSTLStyleArrayI13dynamic_arrayI11KeyframeTplI11QuaternionfELj4EEEEvRT_17TransferMetaFlags
nHi:_InternalEnumerator_1_Dispose_m1064404287_AdjustorThunk
BQa:__ZNSt3__26vectorI27ComputeShaderBuiltinSamplerNS_9allocatorIS1_EEE21__push_back_slow_pathIKS1_EEvRT_
oGf:_TlsServerCertificate_validateCertificates_m1988583701
R1g:__Z78RuntimeInvoker_Boolean_t3825574718_PlayableHandleU26_t4210769902_RuntimeObjectPFvvEPK10MethodInfoPvPS4_
Cih:__ZL61DllImportAttribute_t3000813225_CustomAttributesCacheGeneratorP21CustomAttributesCache
zNg:__Z66RuntimeInvoker_Int32_t2071877448_RuntimeObject_Int32U26_t455636984PFvvEPK10MethodInfoPvPS4_
Qqj:__ZL25UnresolvedVirtualCall_143P12Il2CppObjectaaPK10MethodInfo
U7:__ZNK9Transform18TransformDirectionERK8Vector3f
b_a:__ZNK17ArchiveFileSystem12GetAssetGUIDERK13FileEntryData
I2b:__ZNSt3__26vectorIN9ShaderLab20SerializedSubProgram15MatrixParameterENS_9allocatorIS3_EEE21__push_back_slow_pathIKS3_EEvRT_
Svg:_GUILayoutEntry_SetHorizontal_m1828181654
tvk:_emscripten_glClearStencil__wrapper
rdi:_EqualityComparer_1_get_Default_m1852501307_gshared
gBj:__ZN15dense_hashtableINSt3__24pairIK10KeyWrapperIPK11Il2CppClassEPKcEES6_N6il2cpp5utils11PointerHashIS3_EEN14dense_hash_mapIS6_S9_SE_NS6_14EqualsComparerINS0_8equal_toIS5_EEEENS0_9allocatorISA_EEE9SelectKeyESJ_SL_E12resize_deltaEjj
lLb:__ZN10MonoScript23VirtualRedirectTransferER17RemapPPtrTransfer
tkk:__ZNK10__cxxabiv120__si_class_type_info27has_unambiguous_public_baseEPNS_19__dynamic_cast_infoEPvi
Nze:_NumberFormatInfo_get_PercentNegativePattern_m1162448153
Wjh:__ZL56SyncHashtable_t1343674558_CustomAttributesCacheGeneratorP21CustomAttributesCache
bok:_glTexSubImage3D__wrapper
sTf:_FactoryCache_Add_m2602974721
sOa:__Z30AddDefaultStreamsToMeshBuffersR9GfxDeviceR11MeshBuffersj17ShaderChannelMaskS3_
Sea:__ZL16GetInterfaceImpl18UnityInterfaceGUID
Wvj:__ZN6il2cpp2vmL17SetupFieldOffsetsENS0_15FieldLayoutKindEP11Il2CppClassjRKNSt3__26vectorIjNS4_9allocatorIjEEEE
y8e:_Collection_1_GetEnumerator_m2816357893_gshared
bHh:__ZL105RectTransform_t3349966182_CustomAttributesCacheGenerator_RectTransform_INTERNAL_get_anchorMin_m3180545469P21CustomAttributesCache
vUe:_List_1_System_Collections_IList_get_Item_m936612973_gshared
G3j:__ZN6il2cpp6icalls8mscorlib6System15MonoCustomAttrs27GetCustomAttributesInternalEP12Il2CppObjectP20Il2CppReflectionTypeb
T4c:_UNITY_TT_Set_MM_Blend
L_f:_ObjectReader_ReadAssembly_m869834280
eza:__ZN14PreloadManager35WaitForAllAsyncOperationsToCompleteEv
zkf:_ReadOnlyCollection_1_System_Collections_IList_get_Item_m1831743662_gshared
Odf:_Collection_1_IsSynchronized_m971497175_gshared
Myd:_ExecuteEvents_Execute_m1617536317
dmi:_Text_get_cachedTextGeneratorForLayout_m1357670532
bS:__ZL31InitializeAudioScriptingClassesv
j3a:__Z14SortGUIByDepthP10GUIElementS0_
pCe:_NumberFormatter_NumberToString_m126384393
Vrk:_emscripten_glVertexAttrib4fv__wrapper
Yea:__ZN13RuntimeStaticI13dynamic_arrayIPK31TransferFunctionScriptingTraitsLj4EELb0EE16StaticInitializeEPv
dZi:_LogicalCallContext__ctor_m3173272863
YF:__ZN12_GLOBAL__N_120ProcessRootMotionMixER33AnimationPlayableEvaluationOutputR35AnimationPlayableEvaluationConstantR32AnimationPlayableEvaluationInputS1_f
zMe:_MonoCustomAttrs__cctor_m2608447972
cCe:_Int32_FindSign_m3803672540
S0h:_Enumerator_System_Collections_IEnumerator_Reset_m70453843_AdjustorThunk
ayg:_GUISkin_get_scrollView_m2941173958
B6g:__Z95RuntimeInvoker_Void_t1841601450_ObjectU5BU5DU26_t3223402458_Int32_t2071877448_Int32_t2071877448PFvvEPK10MethodInfoPvPS4_
wma:__ZNK20LocalFileSystemPosix21GetAvailableDiskSpaceEPKcRy
Qka:__ZNSt3__26__treeIiNS_4lessIiEENS_9allocatorIiEEE7destroyEPNS_11__tree_nodeIiPvEE
Rfj:_Predicate_1__ctor_m2995226103_gshared
gCf:_CipherSuite_InitializeCipher_m229247572
_Ha:__ZNK9GfxDevice14GetWorldMatrixEv
Teg:_MonoProperty_GetGetMethod_m1100580870
J8h:_Dictionary_2__ctor_m1950568359_gshared
B2j:__ZN15dense_hashtableINSt3__24pairIK10KeyWrapperIPK19Il2CppGenericMethodEP10MethodInfoEES6_N6il2cpp8metadata23Il2CppGenericMethodHashEN14dense_hash_mapIS6_S9_SD_NS6_14EqualsComparerINSC_26Il2CppGenericMethodCompareEEENS0_9allocatorISA_EEE9SelectKeyESH_SJ_E13set_empty_keyERKSA_
Beb:__Z19scripting_array_new17ScriptingClassPtrjj
UW:__ZN11SoundHandle13CreateChannelEb
USg:__Z90RuntimeInvoker_Void_t1841601450_IntPtr_t_Int32_t2071877448_RuntimeObject_Int32_t2071877448PFvvEPK10MethodInfoPvPS4_
hxb:__ZN14SafeBinaryRead21TransferSTLStyleArrayI13dynamic_arrayI12LightmapDataLj4EEEEvRT_17TransferMetaFlags
Vwf:_ArgumentException__ctor_m3312963299
U$b:__ZNSt3__26vectorIN9ShaderLab20SerializedSubProgram16TextureParameterENS_9allocatorIS3_EEE6assignIPS3_EENS_9enable_ifIXaasr21__is_forward_iteratorIT_EE5valuesr16is_constructibleIS3_NS_15iterator_traitsISA_E9referenceEEE5valueEvE4typeESA_SA_
Ajf:_ReadOnlyCollection_1_get_Item_m1696267180_gshared
Mzj:__ZN13Il2CppHashMapIN6il2cpp5utils13dynamic_arrayIPK10Il2CppTypeLj4EEEPFvvENS0_8metadata19Il2CppSignatureHashENS9_22Il2CppSignatureCompareENSt3__29allocatorINSC_4pairIK10KeyWrapperIS6_ES8_EEEEEC2EjRKSA_RKSB_
Ltj:_U3CCreateWhereIteratorU3Ec__Iterator1D_1_MoveNext_m3533253043_gshared
FOj:__ZN15dense_hashtableINSt3__24pairIK10KeyWrapperIPK22Il2CppGenericParameterEPK24MonoGenericParameterInfoEES6_N6il2cpp5utils11PointerHashIS4_EEN14dense_hash_mapIS6_SA_SF_NS6_14EqualsComparerINS0_8equal_toIS5_EEEENS0_9allocatorISB_EEE9SelectKeyESK_SM_E15set_deleted_keyERKSB_
gKh:__ZL113AnimatorControllerPlayable_t1744083903_CustomAttributesCacheGenerator_AnimatorControllerPlayable_Play_m1490151611P21CustomAttributesCache
FJi:_InternalEnumerator_1_System_Collections_IEnumerator_Reset_m2726857860_AdjustorThunk
x4b:__ZN6prcoreL11inner_clearILj2EEEvPhjjj
UMh:__ZL124GUILayoutUtility_t996096873_CustomAttributesCacheGenerator_GUILayoutUtility_INTERNAL_CALL_Internal_GetWindowRect_m3236664463P21CustomAttributesCache
XSf:_X509SubjectKeyIdentifierExtension__ctor_m3887138480
QQe:_Enumerator_System_Collections_IEnumerator_get_Current_m2853089017_AdjustorThunk
bJc:__ZN12b2WheelJoint24SolvePositionConstraintsERK12b2SolverData
Qg:_emscripten_exit_fullscreen
GLd:_InputField_get_mesh_m3276583786
eUi:_GCHandle_Free_m1639542352_AdjustorThunk
_Ef:_Context_set_ClientRandom_m631392719
vUi:_OutAttribute__ctor_m1447235100
F$j:__ZN6il2cpp6icalls8mscorlib6System6String19InternalAllocateStrEi
PEc:__Z29Transfer_Blittable_ArrayFieldI8JSONRead11QuaternionfEvRT_R9ArrayInfoRK23StaticTransferFieldInfo
uph:__ZL65SoapParameterAttribute_t2780084514_CustomAttributesCacheGeneratorP21CustomAttributesCache
Zla:__ZN20LocalFileSystemPosix8SetFlagsER13FileEntryDatajj
Hlc:__Z45Register_UnityEngine_Camera_get_targetDisplayv
Pac:__ZNK24RendererAnimationBinding15GenerateBindingERKN4core12basic_stringIcNS0_20StringStorageDefaultIcEEEEbRN11UnityEngine9Animation14GenericBindingE
asb:__Z15GetFlareManagerv
E5b:__ZN15ApplicationInfo24GetApplicationIdentifierEv
kjf:_ReadOnlyCollection_1_System_Collections_IList_Contains_m927375828_gshared
Tnb:__ZN9Behaviour8TransferI18StreamedBinaryReadILb0EEEEvRT_
a_i:_Enumerator_System_Collections_IEnumerator_get_Current_m1429268283
Jff:_ReadOnlyCollection_1_System_Collections_Generic_ICollectionU3CTU3E_Clear_m388357963_gshared
Igk:___toread
W3:__ZN19CloudServiceHandler10QueueEventEPN11UnityEngine15CloudWebService14CloudEventInfoE
Qkk:___cxa_is_pointer_type
sud:_String_Concat_m56707527
_F:__ZN7mecanim9animation16EvaluateAvatarDXEPKNS0_14AvatarConstantEPKNS0_11AvatarInputEPNS0_12AvatarMemoryEPNS0_15AvatarWorkspaceEPNS0_12AvatarOutputE
HRa:__ZN4gles20DestroyRenderSurfaceEP7ApiGLESP17RenderSurfaceGLES
PQe:_Enumerator_System_Collections_IEnumerator_get_Current_m2853089017_gshared
Asc:__Z34Transform_CUSTOM_SetAsFirstSiblingP12Il2CppObject
zJj:__ZNK15dense_hashtableINSt3__24pairIK10KeyWrapperINS1_IPK14Il2CppAssemblyP11Il2CppClassEEEjEES9_17ReflectionMapHashIS8_EN14dense_hash_mapIS9_jSD_NS9_14EqualsComparerINS0_8equal_toIS8_EEEENS0_9allocatorISB_EEE9SelectKeyESI_SK_E10test_emptyEj
ZSe:_Enumerator_get_Current_m827571811_AdjustorThunk
mLh:__ZL62Font_t4239498691_CustomAttributesCacheGenerator_textureRebuiltP21CustomAttributesCache
Eva:__ZN17PersistentManager40GlobalToLocalSerializedFileIndexInternalERK26SerializedObjectIdentifier
k1:__ZN11UnityEngine15CloudWebService17SessionEventQueue14ParseEventDataERKN4core12basic_stringIcNS2_20StringStorageDefaultIcEEEE
wwd:_BaseEventData_get_selectedObject_m3551206992
Hnf:_SimpleCollator_CompareOrdinal_m2176988387
sQh:__ZL47Rect_t3681755626_CustomAttributesCacheGeneratorP21CustomAttributesCache
Xee:_CCGregorianCalendar_GetYear_m1289900195
nCe:_Int16_ToString_m2592645088
EMa:__ZN13TranslateGLES4InitERK12GraphicsCaps16GfxDeviceLevelGL
lZb:__Z29Transfer_Blittable_ArrayFieldI18StreamedBinaryReadILb0EE10ColorRGBAfEvRT_R9ArrayInfoRK23StaticTransferFieldInfo
d$:__Z60AudioClipPlayable_CUSTOM_INTERNAL_CALL_GetPauseDelayInternalR9HPlayable
k0f:_SerializationInfoEnumerator_Reset_m2206466680
qqk:_emscripten_glGetShaderPrecisionFormat__wrapper
HMh:__ZL78Event_t3028476042_CustomAttributesCacheGenerator_Event_get_keyCode_m3364681288P21CustomAttributesCache
unj:_GenericEqualityComparer_1_Equals_m1934771410_gshared
fkh:__ZL57DebuggingModes_t2073970606_CustomAttributesCacheGeneratorP21CustomAttributesCache
Mak:__ZN6il2cpp5utils9Exception26FormatInvalidCastExceptionEPK11Il2CppClassS4_
xaf:_Collection_1_System_Collections_IList_get_IsFixedSize_m993584401_gshared
_Ib:__ZNSt3__26vectorIN30RuntimeInitializeOnLoadManager15ClassMethodInfoE13stl_allocatorIS2_L18MemLabelIdentifier12ELi16EEE8__appendEj
x8b:__ZN13ProduceHelperI10TagManagerLb0EE7ProduceE18MemLabelIdentifier18ObjectCreationMode
nbk:__ZN6il2cpp2os6Memory12AlignedAllocEjj
dNi:_InternalEnumerator_1__ctor_m691972083_gshared
g5j:__ZN6il2cpp8metadataL7CompareEPK10Il2CppTypeS3_
iQb:__Z18Transfer_BlittableI17RemapPPtrTransferLb0E11ColorRGBA32EvRK29SerializationCommandArgumentsR31RuntimeSerializationCommandInfo
s6f:_TypeBuilder_get_is_created_m736553860
mug:_GameObject_set_layer_m2712461877
NAf:_RSAManaged__ctor_m1370411656
IXb:__Z18Transfer_BlittableI18StreamedBinaryReadILb0EELb1E10ColorRGBAfEvRK29SerializationCommandArgumentsR31RuntimeSerializationCommandInfo
dvb:__ZN12CubemapArray23VirtualRedirectTransferER17RemapPPtrTransfer
Dic:__ZL27GetComponentsImplementationILb0ELi0EEbR10GameObjectbRK17CompareParametersRK39GetComponentsImplementation_ReturnValue
mOf:_WebHeaderCollection_GetObjectData_m3940120977
nKb:__ZN9Scripting36IsSystemCollectionsGenericDictionaryE17ScriptingClassPtr
_gi:_Raycast3DCallback_EndInvoke_m3234280377
B2g:__Z34RuntimeInvoker_KeyCode_t2283395152PFvvEPK10MethodInfoPvPS4_
hFd:_ColorTweenCallback__ctor_m3619686788
Sca:__ZL16ReadTypeTreeImplILb0EEbR8TypeTreeRK16TypeTreeIteratorRPKhS6_i
oK:__ZN25RuntimeAnimatorControllerD2Ev
jqc:__Z28PlayableOutputValidityChecksRK15HPlayableOutput
TB:__ZN27AnimationLayerMixerPlayable16SetLayerMaskCopyEjRKN7mecanim6bitsetILj70EEEPKNS0_8skeleton12SkeletonMaskE
UO:__Z104Register_UnityEngine_Animations_AnimatorControllerPlayable_INTERNAL_CALL_GetNextAnimatorClipInfoInternalv
Ytb:__ZNK22BuiltinResourceManager21GetResourceInstanceIDEPKN5Unity4TypeERKN4core12basic_stringIcNS4_20StringStorageDefaultIcEEEE
Rmc:__Z42Register_UnityEngine_RectOffset_set_bottomv
YXd:_ArrayListWrapper_IndexOf_m3574835167
mwc:__Z28GUIStyleState_CUSTOM_CleanupP12Il2CppObject
bN:__Z92Register_UnityEngine_Animations_AnimationClipPlayable_INTERNAL_CALL_GetAnimationClipInternalv
K5a:__ZN28LightProbeProxyVolumeContext8CopyFromERKS_
HXe:_List_1_Remove_m2660527978_gshared
_Cd:_U3COnFinishSubmitU3Ec__Iterator0_System_Collections_Generic_IEnumeratorU3CobjectU3E_get_Current_m1823105495
HAg:_GUIUtility_TakeCapture_m3115231813
eeb:__ZN23TransformChangeDispatch32QueueTransformChangeIfHasChangedER18TransformHierarchy
Tnd:_SymmetricAlgorithm_get_FeedbackSize_m544664262
Eab:__ZN18DeferredRenderLoop15RenderFinalPassEP13RenderTextureS1_
IRa:__ZN7ApiGLES18DeleteRenderbufferERj
wQa:__ZL23ProgramUniformMatrix4fvPK7ApiGLESjiihPKv
gHa:__ZN7ApiGLES13CreateTextureEjj14GraphicsFormatiiiii
N5g:__Z41RuntimeInvoker_SelectionState_t3187567897PFvvEPK10MethodInfoPvPS4_
ENi:_InternalEnumerator_1_MoveNext_m3629145604_gshared
C$b:__ZN9ShaderLab20SerializedSubProgram15MatrixParameter8TransferI14SafeBinaryReadEEvRT_
FNg:__Z51RuntimeInvoker_Int32_t2071877448_Single_t2076509932PFvvEPK10MethodInfoPvPS4_
$Be:_Int32_Parse_m124693431
Fic:__ZL27GetComponentsImplementationILb0ELi1EEbR10GameObjectbRK17CompareParametersRK39GetComponentsImplementation_ReturnValue
V3c:_Round_Down_To_Grid
ekg:_UTF8Decoder__ctor_m1460357288
wra:__ZN13RenderTexture7ReleaseEv
RDb:__ZN10MeshFilter23VirtualRedirectTransferER14SafeBinaryRead
p2d:_Convert_ToByte_m1201588964
$Db:__ZN12MeshRenderer17MainThreadCleanupEv
Hkc:__Z36AsyncOperation_Get_Custom_PropIsDoneP12Il2CppObject
nUa:__ZN22CreateGpuProgramOutput12CreateParamsEv
L0f:_RuntimeMethodHandle_GetHashCode_m2682236001_AdjustorThunk
hah:__Z54RuntimeInvoker_Void_t1841601450_UILineInfo_t3621277874PFvvEPK10MethodInfoPvPS4_
iIj:__ZNSt3__26vectorIiNS_9allocatorIiEEE21__push_back_slow_pathIiEEvOT_
Q4g:__Z45RuntimeInvoker_HorizontalWrapMode_t2027154177PFvvEPK10MethodInfoPvPS4_
wMa:__ZNK14GfxContextGLES13GetDefaultFBOEv
gie:_Array_InternalArray__ICollection_Remove_TisSByte_t454417549_m2474211570_gshared
Rpd:_Evidence_get_IsSynchronized_m1427392003
eoa:__ZN14GraphicsHelper5ClearE13GfxClearFlagsRK10ColorRGBAffjR17ShaderPassContext
ifc:__Z13GetImagePixelI10ColorRGBAfET_PKhii13TextureFormat15TextureWrapModeS5_ii
wGj:_il2cpp_class_is_enum
xKf:_AuthorityKeyIdentifierExtension_get_Identifier_m3535568551
Fta:__ZNSt3__23mapIN9ShaderLab16FastPropertyNameEN18UnityPropertySheet11UnityTexEnvENS_4lessIS2_EENS_9allocatorINS_4pairIKS2_S4_EEEEEixERS9_
hHa:__ZNK13TranslateGLES25GetTextureTargetDimensionEj
wDh:__ZL93Input_t1785128008_CustomAttributesCacheGenerator_Input_INTERNAL_get_mousePosition_m2302165941P21CustomAttributesCache
xqe:_Array_InternalArray__set_Item_TisByte_t3683104436_m1694926640_gshared
abf:_Collection_1_System_Collections_IList_Contains_m1897568526_gshared
H8f:_FieldBuilder_get_FieldType_m2267463269
cSd:_SimpleEnumerator_Clone_m3032847657
P_i:_PatternCompiler_EmitInfo_m597931026
cyf:_ModulusRing_Multiply_m3113924743
Orc:__Z47Texture2D_CUSTOM_INTERNAL_CALL_GetPixelBilinearP12Il2CppObjectffR10ColorRGBAf
NEf:_Context_get_ServerSettings_m225713600
Ni:_emscripten_glVertexAttrib4f
z$g:__Z40RuntimeInvoker_PlayableOutput_t988259697PFvvEPK10MethodInfoPvPS4_
Kgj:_InvokableCall_1_remove_Delegate_m3576859071_gshared
nff:_ReadOnlyCollection_1_System_Collections_IEnumerable_GetEnumerator_m531171980_gshared
q2b:__ZNSt3__26vectorIN20GpuProgramParameters14ConstantBufferENS_9allocatorIS2_EEE8__appendEj
ete:_Array_Sort_TisUILineInfo_t3621277874_m3105833015_gshared
hOe:_MonoType_GetGenericArguments_m2708198481
kPh:__ZL109UnityWebRequest_t254341728_CustomAttributesCacheGenerator_UnityWebRequest_InternalSetCustomMethod_m1107638252P21CustomAttributesCache
p4a:__ZN11HaloManager21ReleaseGeometryJobMemEP25DynamicVBOGeometryJobData
BUe:_List_1_AddEnumerable_m2489692396_gshared
U4g:__Z51RuntimeInvoker_Color_t2020392075_Single_t2076509932PFvvEPK10MethodInfoPvPS4_
eLh:__ZL93TextGenerator_t647235000_CustomAttributesCacheGenerator_TextGenerator_Dispose_cpp_m1755131202P21CustomAttributesCache
ibj:_WaitForSecondsRealtime__ctor_m1734539010
xkg:_WaitHandle__ctor_m1256161634
dB:__ZN7mecanim12statemachine24CreateStateMachineMemoryEPKNS0_20StateMachineConstantERNS_6memory9AllocatorE
n4h:_Enumerator_get_Current_m419581838_AdjustorThunk
yKa:__ZN9GfxDevice18SetGlobalDepthBiasEff
_Xi:_Identity_get_ChannelSink_m3989446673
LDj:__ZN6il2cpp6icalls8mscorlib6System8MonoType12get_AssemblyEP20Il2CppReflectionType
tCf:_TlsStream_Write_m3425460533
WHd:_FontData_get_richText_m2013560754
ard:_SecurityException_get_PermissionType_m3543350822
_i:_emscripten_glGetPointerv
PF:__ZN8Animator22ApplyBuiltinRootMotionEv
rYj:__ZN15dense_hashtableI10KeyWrapperIP18Il2CppGenericClassES3_N6il2cpp8metadata22Il2CppGenericClassHashEN14dense_hash_setIS3_S6_NS3_14EqualsComparerINS5_25Il2CppGenericClassCompareEEENSt3__29allocatorIS3_EEE8IdentityESA_SD_E5clearEv
Mhe:_Array_InternalArray__ICollection_Remove_TisKeyValuePair_2_t3716250094_m2566517826_gshared
bWj:__ZN30dense_hashtable_const_iteratorINSt3__24pairIK10KeyWrapperIP14Il2CppIUnknownEjEES5_N6il2cpp5utils11PointerHashIS3_EEN14dense_hash_mapIS5_jSB_NS5_14EqualsComparerINS0_8equal_toIS4_EEEENS0_9allocatorIS7_EEE9SelectKeyESG_SI_EppEv
czb:__ZN8Renderer23VirtualRedirectTransferER14SafeBinaryRead
w7f:_DerivedType_get_UnderlyingSystemType_m3904230233
Fzd:_PointerEventData_get_rawPointerPress_m448871540
S2a:__Z27ConvertSubMeshesToTrianglesR13dynamic_arrayI7SubMeshLj4EERS_ItLj2EE
Rvj:__ZN6il2cpp2vmL15GetBitmapNoInitEP11Il2CppClassPjRjj
gmb:__ZL13MotionHandleriPK27EmscriptenDeviceMotionEventPv
zRf:_X509Certificate2Collection__ctor_m819526826
KR:__ZN12AudioManager5ResetEv
teh:__Z75RuntimeInvoker_RuntimeObject_Single_t2076509932_RuntimeObject_RuntimeObjectPFvvEPK10MethodInfoPvPS4_
pzf:_KeyBuilder_Key_m3814433741
Wwf:_ArgumentException__ctor_m158205422
rle:_Array_compare_TisVector3_t2243707580_m3709184876_gshared
jKd:_HorizontalLayoutGroup_SetLayoutHorizontal_m3237355818
vya:__ZN6prcoreL17RemapGenericFloatI17TexFormatRGBAHalf15TexFormatRGHalfEEvPKNS_9InnerInfoE
sOj:__ZNK15dense_hashtableINSt3__24pairIK10KeyWrapperIPK14Il2CppAssemblyEPK22Il2CppMonoAssemblyNameEES6_N6il2cpp5utils11PointerHashIS4_EEN14dense_hash_mapIS6_SA_SF_NS6_14EqualsComparerINS0_8equal_toIS5_EEEENS0_9allocatorISB_EEE9SelectKeyESK_SM_E10test_emptyEj
T0j:__ZN6il2cpp6icalls8mscorlib6System11Environment20GetWindowsFolderPathEi
EYh:__ZL60AspectRatioFitter_t3114550109_CustomAttributesCacheGeneratorP21CustomAttributesCache
Qz:__ZN7mecanim5human18HumanPoseBlendNodeERNS0_9HumanPoseEPS1_f
L$c:_UNITY_FT_RoundFix
z2b:__ZN9ShaderLab20SerializedSubProgram15AddTextureParamEPKcii16TextureDimension
w0:__ZN23CloudWebServicesManager23VirtualRedirectTransferER17RemapPPtrTransfer
x7e:__ZN21InterfaceFuncInvoker1Ib40CustomAttributeTypedArgument_t1498197914E6InvokeEjP11Il2CppClassP12Il2CppObjectS0_
lY:__ZNK18AudioMixerPlayable11DerivesFromE17ScriptingClassPtr
Q2i:_Uri_get_Parser_m2250631932
bEb:__ZNK12MeshRenderer22GetTypeVirtualInternalEv
ADi:_Event_GetHashCode_m2214628668
qpj:__ZL24UnresolvedVirtualCall_63P12Il2CppObjectS0_S0_S0_PK10MethodInfo
d$g:__Z36RuntimeInvoker_HideFlags_t1434274199PFvvEPK10MethodInfoPvPS4_
mId:_Graphic_set_color_m646149893
F9h:_Dictionary_2_System_Collections_ICollection_get_IsSynchronized_m960517203_gshared
Whk:_write
Yta:__ZN14SafeBinaryRead19TransferSTLStyleMapINSt3__23mapIN4core12basic_stringIcNS3_20StringStorageDefaultIcEEEES7_NS1_4lessIS7_EE13stl_allocatorINS1_4pairIKS7_S7_EEL18MemLabelIdentifier1ELi16EEEEEEvRT_17TransferMetaFlags
fpg:_Type_MakeByRefType_m1323101575
d8c:__ZN2UI6Canvas27UpdateEventIndexesRecursiveERi
C8b:__ZN14SpriteRenderer12CleanupClassEv
q1:__ZN11UnityEngine15CloudWebService16SessionContainer21PrepareDataErrorEventERN4core12basic_stringIcNS2_20StringStorageDefaultIcEEEE
MXc:_UNITY_FT_Outline_New
z2j:__ZNSt3__218uninitialized_copyIPNS_4pairIK10KeyWrapperIPK19Il2CppGenericMethodEP10MethodInfoEESB_EET0_T_SD_SC_
NMh:__ZL85GUI_t4082743951_CustomAttributesCacheGenerator_GUI_set_nextScrollStepTime_m2724006954P21CustomAttributesCache
rUb:__Z19TransferField_ArrayI19StreamedBinaryWriteILb0EE27Converter_SimpleNativeClassI8GUIStyleEEvRK23StaticTransferFieldInfoR31RuntimeSerializationCommandInfoRT0_
oAh:__ZL101AssetBundleRequest_t2674559435_CustomAttributesCacheGenerator_AssetBundleRequest_get_asset_m624603186P21CustomAttributesCache
jla:__ZNK13ScreenManager12GetIsFocusedEv
pYh:__ZL70SpriteState_t1353336012_CustomAttributesCacheGenerator_m_PressedSpriteP21CustomAttributesCache
Lti:_AnimatorControllerPlayable_CrossFade_m1077061813_AdjustorThunk
$Yf:_RemotingServices_RegisterInternalChannels_m1827304423
Gyg:_GUIStyle_get_onNormal_m1675201777
Jr:__ZL32CleanupAnimationScriptingClassesv
pCc:__Z35Transfer_Blittable_FixedBufferFieldI8JSONReadiEvRK29SerializationCommandArgumentsR31RuntimeSerializationCommandInfo
QCj:__ZNSt3__213__vector_baseIN6il2cpp2os19SocketHandleWrapperENS_9allocatorIS3_EEED2Ev
lqf:_ASN1_get_Length_m3359111015
Wxg:_GUISkin_get_verticalScrollbarThumb_m649633186
Q_g:__Z66RuntimeInvoker_InternalShaderChannel_t3331827198_Int32_t2071877448PFvvEPK10MethodInfoPvPS4_
EAg:_GUIStyleState_Cleanup_m705006206
LXg:__Z77RuntimeInvoker_RuntimeObject_Int32_t2071877448_RuntimeObject_SByte_t454417549PFvvEPK10MethodInfoPvPS4_
pc:invoke_viiffi
Qib:__ZN13sorted_vectorINSt3__24pairIN4core12basic_stringIcNS2_20StringStorageDefaultIcEEEEPK17MessageIdentifierEEN10vector_mapIS6_S9_NS0_4lessIS6_EENS0_9allocatorISA_EEE13value_compareESF_E10insert_oneERKSA_
OF:__ZNSt3__227__insertion_sort_incompleteIRPFbPKN8Animator11AnimatorJobES4_EPS4_EEbT0_S9_T_
slg:_Thread_GetCachedCurrentUICulture_m5590127
G$g:__Z36RuntimeInvoker_Matrix4x4_t2933234003PFvvEPK10MethodInfoPvPS4_
avb:__ZNK12CubemapArray20GetRuntimeMemorySizeEv
paj:_Vector3_Dot_m3161182818
NVi:_CrossAppDomainSink_get_TargetDomainId_m775204051
s0b:__Z14resize_trimmedINSt3__26vectorIN9ShaderLab18SerializedPropertyENS0_9allocatorIS3_EEEEEvRT_j
drj:__ZL25UnresolvedVirtualCall_158P12Il2CppObject18Color32_t874517518PK10MethodInfo
e2e:_List_1_CheckMatch_m4018158235_gshared
iof:_Context_t2636657155_marshal_pinvoke_back
QAj:__ZN6il2cpp2vm13MetadataCache38GetMethodInfoFromMethodDefinitionIndexEi
yUd:_Byte_System_IConvertible_ToDateTime_m1583041031
Apc:__Z39MonoBehaviour_CUSTOM_GetScriptClassNameP12Il2CppObject
vpj:__ZL24UnresolvedVirtualCall_68P12Il2CppObjectS0_iS0_S0_S0_S0_S0_S0_PK10MethodInfo
zAb:__ZN10VertexData8TransferI24GenerateTypeTreeTransferEEvRT_
vMh:__ZL98CanvasRenderer_t261436805_CustomAttributesCacheGenerator_CanvasRenderer_get_absoluteDepth_m4243141P21CustomAttributesCache
e2j:__ZN13Il2CppHashMapIPK19Il2CppGenericMethodP10MethodInfoN6il2cpp8metadata23Il2CppGenericMethodHashENS6_26Il2CppGenericMethodCompareENSt3__29allocatorINS9_4pairIK10KeyWrapperIS2_ES4_EEEEEC2EjRKS7_RKS8_
cuf:_EncryptedData_get_EncryptionAlgorithm_m1301274243
Fdi:_EqualityComparer_1_System_Collections_IEqualityComparer_Equals_m1089835085_gshared
Sbb:__ZL10CullLightsRK22SceneCullingParametersR11CullResults
sHd:_Dropdown__cctor_m264401557
HCg:_Mathf_Clamp_m3542052159
vRd:_Array_IndexOf_m2819632474
uSi:_Comparer_1__cctor_m3996541505_gshared
_A:__ZN7mecanim12statemachine20GetBlendTreeConstantERKNS0_13StateConstantEi
Wdc:__Z40GetTemporaryCachePathApplicationSpecificv
HIa:__ZN9GfxDevice16EndAsyncJobFrameEv
rLd:_Image_get_minWidth_m1809071077
QMj:__ZNK15dense_hashtableINSt3__24pairIK10KeyWrapperINS1_IPK12PropertyInfoP11Il2CppClassEEEjEES9_17ReflectionMapHashIS8_EN14dense_hash_mapIS9_jSD_NS9_14EqualsComparerINS0_8equal_toIS8_EEEENS0_9allocatorISB_EEE9SelectKeyESI_SK_E10test_emptyERK30dense_hashtable_const_iteratorISB_S9_SD_SM_SI_SK_E
GYc:_UNITY_tt_face_load_hhea
FXi:_ContextAttribute_IsNewContextOK_m2186905629
gEi:_PersistentCall__ctor_m2079279187
P1d:_Convert_ToBase64String_m1936815455
Sk:___syscall3
CEh:__ZL114MonoBehaviour_t1158329972_CustomAttributesCacheGenerator_MonoBehaviour_StopCoroutineViaEnumerator_Auto_m4046945826P21CustomAttributesCache
Vk:___syscall6
$Ja:__ZN9GfxDevice15GetNextCPUFenceEv
Xk:___syscall4
Kae:_Decimal_ToString_m759431975
Tbf:_Collection_1_System_Collections_IList_get_IsFixedSize_m2204750039_gshared
sqj:__ZL25UnresolvedVirtualCall_119P12Il2CppObjectiaPK10MethodInfo
ZCd:_ColorBlock_get_fadeDuration_m987725262
RWh:__ZL195U3CMouseDragOutsideRectU3Ec__Iterator1_t2599668326_CustomAttributesCacheGenerator_U3CMouseDragOutsideRectU3Ec__Iterator1_System_Collections_Generic_IEnumeratorU3CobjectU3E_get_Current_m2602955272P21CustomAttributesCache
OZg:__Z86RuntimeInvoker_Void_t1841601450_RuntimeObject_Vector3U26_t425862308_RayU26_t3651946800PFvvEPK10MethodInfoPvPS4_
_1f:_CryptographicException__ctor_m2415891459
OOc:__ZNSt3__26__sortIR24RayHitsByDepthComparitorP12RaycastHit2DEEvT0_S5_T_
mYe:_List_1_AddCollection_m3266731889_gshared
Ric:__ZN9Scripting25BroadcastScriptingMessageER10GameObjectPKc18ScriptingObjectPtr
ll:_emscripten_glShaderBinary
s8e:_Collection_1_System_Collections_IList_set_Item_m150887383_gshared
Tre:_Array_qsort_TisVector2_t2243707579_TisVector2_t2243707579_m3308480721_gshared
xQd:_Array_InternalArray__RemoveAt_m1126483634
$yi:_Camera_INTERNAL_CALL_RaycastTry_m1030092423
kma:__ZNK20LocalFileSystemPosix6ExistsERK13FileEntryData
FKi:_InternalEnumerator_1_Dispose_m4038440306_AdjustorThunk
PWg:__Z21RuntimeInvoker_Guid_tPFvvEPK10MethodInfoPvPS4_
qLf:_DictionaryNodeEnumerator_get_DictionaryNode_m3521889822
dy:__ZN7mecanim5human19MaskHasLeftFootGoalERKNS_6bitsetILj70EEE
N8g:__Z101RuntimeInvoker_Int32_t2071877448_RuntimeObject_Color32_t874517518_Int32_t2071877448_Int32_t2071877448PFvvEPK10MethodInfoPvPS4_
DDg:_Mesh_get_colors32_m4153271224
Abd:__Z58Register_UnityEngine_Canvas_GetETC1SupportedCanvasMaterialv
FGg:_Physics2D_INTERNAL_CALL_GetRayIntersectionAll_m161475998
EWb:__ZN17AnimationCurveTplIfE8TransferI18StreamedBinaryReadILb1EEEEvRT_
U8d:_DateTimeOffset_GetHashCode_m3312197462_AdjustorThunk
Add:__ZN18UnityConnectClientD2Ev
UNf:_ServicePoint_set_UseNagleAlgorithm_m2618011464
OFj:_il2cpp_set_data_dir
L2i:_Uri_get_IsUnc_m2111738174
Zvh:__ZL79Convert_t2607082565_CustomAttributesCacheGenerator_Convert_ToUInt64_m1691869628P21CustomAttributesCache
ppb:__ZN16LevelGameManager23VirtualRedirectTransferER19StreamedBinaryWriteILb0EE
uAb:__Z32TransferEnumWithNameForceIntSizeI14SafeBinaryRead16GfxPrimitiveTypeEvRT_RT0_PKc17TransferMetaFlags
cRi:_DefaultComparer__ctor_m1961329658_gshared
bbg:_ParameterBuilder_get_Attributes_m2421099277
U6g:__Z66RuntimeInvoker_Void_t1841601450_ObjectU26_t597476745_RuntimeObjectPFvvEPK10MethodInfoPvPS4_
c8i:_TouchScreenKeyboard_get_done_m406461410
f6i:_DataUtility_INTERNAL_CALL_GetPadding_m1621366113
dMj:__ZN15dense_hashtableINSt3__24pairIK10KeyWrapperINS1_IPK11Il2CppImageP11Il2CppClassEEEjEES9_17ReflectionMapHashIS8_EN14dense_hash_mapIS9_jSD_NS9_14EqualsComparerINS0_8equal_toIS8_EEEENS0_9allocatorISB_EEE9SelectKeyESI_SK_E5clearEv
Frj:__ZL25UnresolvedVirtualCall_186P12Il2CppObject20TimeSpan_t3430258949PK10MethodInfo
vbg:_TypeBuilder_IsValueTypeImpl_m1499671481
Lcd:__ZN11UnityEngine15PlatformWrapper30GetGraphicsDriverLibraryStringEv
wLh:__ZL51UIVertex_t1204258818_CustomAttributesCacheGeneratorP21CustomAttributesCache
H9i:_Vector2_ToString_m775491729
OYe:_List_1_get_Count_m1752597149_gshared
xAf:_EncryptedPrivateKeyInfo_Decode_m1706190306
JXb:__Z18Transfer_BlittableI18StreamedBinaryReadILb0EELb0E4AABBEvRK29SerializationCommandArgumentsR31RuntimeSerializationCommandInfo
CK:__ZN16MecanimAnimation24DeleteAnimatedPropertiesERP26IAnimatedPropertyEvaluator
UTg:__Z42RuntimeInvoker_CspProviderFlags_t105264000PFvvEPK10MethodInfoPvPS4_
$5d:_Convert_ToUInt16_m1665900934
ktj:_Converter_2_BeginInvoke_m898151494_gshared
t0a:__Z14DrawGUITextureRK5RectTIfEP7Texture11ColorRGBA32P8Materiali
kmi:_Text_get_supportRichText_m3291105891
oLg:_RectTransform_GetParentSize_m1571597933
CE:__ZN9BlobWrite8TransferI22OffsetPtrArrayTransferIKN4math7_float4EEEEvRT_PKc17TransferMetaFlags
Fkf:_ReadOnlyCollection_1_get_Count_m336636247_gshared
HFc:__ZNK11b2EdgeShape7RayCastEP15b2RayCastOutputRK14b2RayCastInputRK11b2Transformi
ZZi:_MatchCollection_GetEnumerator_m3516985966
bCc:__ZN9JSONWrite8TransferI4AABBEEvRT_PKc17TransferMetaFlags
shg:_UTF7Encoding__ctor_m2365939916
cYa:__ZN25MultiBlocksMemoryFileData9SetLengthEy
P6i:_TextGenerationSettings_Equals_m3944651893_AdjustorThunk
pCi:_DelegatePInvokeWrapper_StateChanged_t2480912210
dfi:_MatEntry__ctor_m3650167335
Qjj:_ListPool_1_U3Cs_ListPoolU3Em__0_m441310157_gshared
DJc:__ZN10Collider2D13AwakeFromLoadE17AwakeFromLoadMode
Kvb:__ZNK9Texture2D20GetRuntimeMemorySizeEv
lpg:_TypeInitializationException__ctor_m2993591639
idi:_EqualityComparer_1__ctor_m3788663378_gshared
tm:_emscripten_glUniform2iv
Qqh:__ZL46DES_t1353513560_CustomAttributesCacheGeneratorP21CustomAttributesCache
ABe:_Int16_System_IConvertible_ToInt64_m733340257
YCg:_Matrix4x4_ToString_m1982554457_AdjustorThunk
eVc:_UNITY_FT_Outline_Transform
myg:_SkinChangedDelegate_BeginInvoke_m4259161711
Irc:__Z60Register_UnityEngine_Sprites_DataUtility_Internal_GetMinSizev
iwj:__ZN6il2cpp2vm5Class10GetMethodsEP11Il2CppClassPPv
kgd:__ZNK25UnityWebRequestJavaScript17GetUploadProgressEv
D7a:__Z30AddDefaultStreamsToMeshBuffersR9GfxDeviceR11MeshBuffersRK16DrawBuffersRange17ShaderChannelMaskS6_
F8g:__Z86RuntimeInvoker_Int32_t2071877448_Vector2_t2243707579_Vector2_t2243707579_RuntimeObjectPFvvEPK10MethodInfoPvPS4_
dqd:_Hash_GetObjectData_m315532943
lRa:__ZN7ApiGLES17DeleteFramebufferERN2gl6HandleILNS0_10ObjectTypeE9EEES3_
rTa:__ZN15UniformTFMethod13MapBoneBufferEj
KDf:_RecordProtocol_SendAlert_m2816808523
f7c:__ZN2UI14CanvasRendererD2Ev
Bui:_Animator_SetFloat_m956158019
rZi:_MethodCall_get_LogicalCallContext_m3769562079
FSj:__ZN6il2cpp6icalls8mscorlib6System5Array8SetValueEP11Il2CppArrayP12Il2CppObjectS5_
DKe:_SynchronizedReader_Read_m1399666181
tdg:_MonoEvent_get_Name_m2796714646
ena:__Z9SetupArgviPPKc
S9g:__Z53RuntimeInvoker_Void_t1841601450_LabelData_t3712112744PFvvEPK10MethodInfoPvPS4_
yke:_Array_InternalArray__IEnumerable_GetEnumerator_TisHitInfo_t1761367055_m2486283755_gshared
Uzd:_PointerEventData_set_worldNormal_m2025727441
REf:_Context_get_SentConnectionEnd_m3114190867
Ynb:__ZN12ImmediatePtrI10GameObjectE8TransferI19StreamedBinaryWriteILb0EEEEvRT_
evb:__ZN12CubemapArray23VirtualRedirectTransferER24GenerateTypeTreeTransfer
Doj:__ZL24UnresolvedVirtualCall_22P12Il2CppObjectS0_iS0_S0_S0_PK10MethodInfo
wda:__ZN12FileAccessor4OpenER15FileSystemEntry14FilePermission16FileAutoBehavior
Ngf:_ReadOnlyCollection_1__ctor_m2364452928_gshared
u0j:__ZN6il2cpp2os9Directory6CreateERKNSt3__212basic_stringIcNS2_11char_traitsIcEENS2_9allocatorIcEEEEPi
qui:_AnimatorControllerPlayable_Play_m1490151611_AdjustorThunk
Uua:__ZN4PPtrI6ShaderE8TransferI18StreamedBinaryReadILb0EEEEvRT_
ASc:__ZL12PhysxJobFuncPN5physx10PxBaseTaskE
deb:__ZN23TransformChangeDispatch32QueueTransformChangeIfHasChangedERK15TransformAccess
xzd:_PointerEventData_set_clickTime_m3931922487
_2:__ZNSt3__24listIP19CloudServiceHandler13stl_allocatorIS2_L18MemLabelIdentifier86ELi16EEE6removeERKS2_
qvg:_WindowFunction__ctor_m977095815
Vxe:_NumberFormatter_AppendNonNegativeNumber_m629862866
Hva:__ZNSt3__26vectorINS_4pairIN9ShaderLab16FastPropertyNameEN18UnityPropertySheet11UnityTexEnvEEENS_9allocatorIS6_EEE21__push_back_slow_pathIKS6_EEvRT_
q_a:__ZN15ArchiveReadFile5WriteEyPKvPy
_Si:_ResourceInfo__ctor_m2401359321_AdjustorThunk
P0j:__ZN6il2cpp2os26LibraryNamePrefixAndSuffixC2EPKcS3_
V_d:_Hashtable__ctor_m392789568
Yek:_PacdotSpawner_Start_m1461223552
Wkg:_Mutex_CreateMutex_internal_m2352956576
qjg:_UTF7Encoding__cctor_m4192443836
CBi:_Component_SendMessage_m2241432133
Uwc:__Z31GUIStyle_CUSTOM_SetFontInternalP12Il2CppObjectS0_
B:tempValue
pkb:__Z29StdTemplateConversionFunctionIaiEbPvR14SafeBinaryRead
Zbk:__ZN6il2cpp8metadata24Il2CppGenericContextHash4HashEPK20Il2CppGenericContext
Kfk:_U3CReadScoresFromDBU3Ec__Iterator2_System_Collections_IEnumerator_get_Current_m3758731817
EBe:_Int16_System_IConvertible_ToSingle_m3277935657
A9:__Z29scripting_class_from_fullnamePKcS0_S0_
kCh:__ZL97GameObject_t1756533147_CustomAttributesCacheGenerator_GameObject_GetComponentInParent_m1235194528P21CustomAttributesCache
Ygi:_Raycast3DCallback_Invoke_m2271859924
yB:__ZN26AnimatorControllerPlayable18DeallocateBindingsEv
wui:_AnimatorControllerPlayable_HasState_m3003093532
jX:__ZN11AudioSource19CreateOpenALRolloffEfff
JMh:__ZL83Event_t3028476042_CustomAttributesCacheGenerator_Event_set_displayIndex_m3631666901P21CustomAttributesCache
tZc:_UNITY_FT_Stream_ReadAt
IFh:__ZL111Object_t1021602117_CustomAttributesCacheGenerator_Object_DestroyImmediate_m3563317232____allowDestroyingAssets1P21CustomAttributesCache
wPg:__Z38RuntimeInvoker_MemberTypes_t3343038963PFvvEPK10MethodInfoPvPS4_
F0h:_Enumerator_get_CurrentKey_m2387752419_AdjustorThunk
gzg:_GUIStyle_get_lineHeight_m2132859383
fP:__Z87Register_UnityEngine_Animations_AnimatorControllerPlayable_INTERNAL_CALL_GetFloatStringv
$zj:__ZN15dense_hashtableINSt3__24pairIK10KeyWrapperIN6il2cpp5utils13dynamic_arrayIPK10Il2CppTypeLj4EEEEPFvvEEESA_NS3_8metadata19Il2CppSignatureHashEN14dense_hash_mapISA_SD_SG_NSA_14EqualsComparerINSF_22Il2CppSignatureCompareEEENS0_9allocatorISE_EEE9SelectKeyESK_SM_E9set_valueEPSE_RKSE_
zHh:__ZL82Physics2D_t2540166467_CustomAttributesCacheGenerator_Physics2D_Raycast_m1220041042P21CustomAttributesCache
CEi:_UnityEvent_FindMethod_Impl_m3303953986
rpg:_UInt16_System_IConvertible_ToBoolean_m887616848
FAh:__ZL120ScriptableObject_t1975622470_CustomAttributesCacheGenerator_ScriptableObject_Internal_CreateScriptableObject_m1778903390P21CustomAttributesCache
k_:__ZN11AudioModule22CreateAudioClipFromWWWEP10IWWWStreamPKcbbi
gig:_StringBuilder_set_Length_m3039225444
_5g:__Z37RuntimeInvoker_AspectMode_t1166448724PFvvEPK10MethodInfoPvPS4_
Mbf:_Collection_1_System_Collections_IList_Contains_m3870109702_gshared
ohe:_Array_InternalArray__ICollection_Contains_TisRaycastResult_t21186376_m3188614988_gshared
K6d:_CultureAwareComparer_GetHashCode_m3681260951
b9c:__Z13RegisterClassIN2UI11CanvasGroupEEvv
tjj:_U3CStartU3Ec__Iterator0__ctor_m951808111_gshared
z4b:__ZN6prcoreL11inner_clearILj4EEEvPhjjj
Af:_emscripten_glClear
fhi:_Selectable__ctor_m1440593935
Fqj:__ZL25UnresolvedVirtualCall_132P12Il2CppObject17Color_t2020392075faaaPK10MethodInfo
xha:__ZNK8Playable6HandleEv
Nkk:___cxa_guard_abort
O5f:_CustomAttributeTypedArgument_t1498197914_marshal_pinvoke_back
Fba:__ZN14MessageHandler28MessageIDToMessageIdentifierEi
JMf:_HttpRequestCreator_Create_m3607509610
aNh:__ZL50GUISkin_t1436893342_CustomAttributesCacheGeneratorP21CustomAttributesCache
WAb:__ZNK11SpriteAtlas20GetRuntimeRenderDataEPK6Sprite
Zpj:__ZL24UnresolvedVirtualCall_98P12Il2CppObject8IntPtr_tPK10MethodInfo
f3e:_List_1_Shift_m3824049528_gshared
MZf:_ArrayFixupRecord__ctor_m3659990982
bFf:_Context_get_RandomCS_m3946020109
jgh:__ZL72IntPtr_t_CustomAttributesCacheGenerator_IntPtr_op_Inequality_m3044532593P21CustomAttributesCache
EGd:_Dropdown_get_onValueChanged_m3334401942
v9j:__ZN6il2cpp2vm10WaitHandle19NewManualResetEventEb
f9i:_UISystemProfilerApi_EndSample_m2059427490
eif:_ReadOnlyCollection_1_System_Collections_IList_Contains_m3707723158_gshared
otg:_Version_GetHashCode_m880841176
qz:__ZN7mecanim14ValueArrayCopyILb0EEEvPKNS_10ValueArrayEPS1_
NN:__Z51Register_UnityEngine_Animator_get_hasBoundPlayablesv
auj:_Nullable_1_ToString_m1238126148_AdjustorThunk
Sd:emscriptenWebGLGetUniform
WKe:_NullTextReader_ReadLine_m3363797886
fDa:__Z32TransferEnumWithNameForceIntSizeI14SafeBinaryRead13TextureFormatEvRT_RT0_PKc17TransferMetaFlags
rXh:__ZL86Scrollbar_t3248359358_CustomAttributesCacheGenerator_Scrollbar_ClickRepeat_m3403943364P21CustomAttributesCache
zdb:__ZL10CleanUpJobP20CullingGroupsJobData
iWd:_Char_CompareTo_m3044885427_AdjustorThunk
EGe:_FileStream_GetSecureFileName_m508045384
C7a:__Z20IsRunningNativeTestsv
GMi:_InternalEnumerator_1_System_Collections_IEnumerator_get_Current_m2035754659_AdjustorThunk
QDb:__ZN10MeshFilter23VirtualRedirectTransferER24GenerateTypeTreeTransfer
k0a:__ZN13RenderManager15BatchModeUpdateEv
wfj:_Predicate_1_EndInvoke_m973058386_gshared
HDh:__ZL52LayerMask_t3188175821_CustomAttributesCacheGeneratorP21CustomAttributesCache
t8e:_Collection_1_Add_m3985367602_gshared
bAb:__ZN14SafeBinaryRead21TransferSTLStyleArrayI13dynamic_arrayI8Vector2fLj4EEEEvRT_17TransferMetaFlags
Dva:__ZN17PersistentManager51InstanceIDToLocalSerializedObjectIdentifierInternalEiR31LocalSerializedObjectIdentifier
ZLc:__ZN10ClipperLib7Clipper15SetWindingCountERNS_5TEdgeE
Pfg:_StrongNameKeyPair_System_Runtime_Serialization_IDeserializationCallback_OnDeserialization_m2330221363
Wfk:_Scores__ctor_m599321726
x2c:_UNITY_FT_Create_Class_cff_services
aRi:_DefaultComparer__ctor_m1661558765_gshared
Qvg:_GUILayoutEntry_CalcWidth_m2520096159
ud:_glVertexAttribIPointer
Isg:_UnhandledExceptionEventHandler_EndInvoke_m2207457167
r6h:_Dictionary_2_System_Collections_ICollection_get_IsSynchronized_m304009368_gshared
$id:_HMAC_set_HashName_m457235014
Qfc:__ZNK6Sprite10GetPaddingE20SpriteRenderDataMode
yge:_Array_InternalArray__ICollection_Contains_TisTableRange_t2011406615_m605506746_gshared
N6h:_Dictionary_2_Add_m1296007576_gshared
E5d:_Decimal_op_Explicit_m729046406
i2f:_CryptoConfig_CreateFromName_m2169102076
MId:_Graphic_OnEnable_m2900261811
l2f:_CryptographicUnexpectedOperationException__ctor_m3552441227
UXd:_ArrayListWrapper_Clear_m321161741
MNd:_InputField_LineDownCharacterPosition_m2690468785
sZc:_UNITY_ft_glyphslot_alloc_bitmap
ite:_Array_Sort_TisVector2_t2243707579_TisVector2_t2243707579_m2582252549_gshared
rrg:_UInt64_System_IConvertible_ToDouble_m2828923873
Pyj:__ZN15dense_hashtableI10KeyWrapperIPK17Il2CppGenericInstES4_N6il2cpp8metadata21Il2CppGenericInstHashEN14dense_hash_setIS4_S7_NS4_14EqualsComparerINS6_24Il2CppGenericInstCompareEEENSt3__29allocatorIS4_EEE8IdentityESB_SE_E16reset_thresholdsEv
C7b:__ZZN2UI13RectTransform15InitializeClassEvEN31FunctorImpl_62kTransformChanged4CallEPviR11MessageData
d_e:_List_1_System_Collections_IList_set_Item_m1129584681_gshared
_kg:_SendOrPostCallback__ctor_m107067079
O_c:_ft_raster1_render
Hqc:__Z57Register_UnityEngine_RectTransform_INTERNAL_set_anchorMaxv
ZUe:_List_1_set_Capacity_m491101164_gshared
Djk:__ZNKSt3__221__basic_string_commonILb1EE20__throw_length_errorEv
Eig:_StringBuilder_Insert_m1733097906
xSi:_Comparer_1__ctor_m1157133632_gshared
yJf:_SslStreamBase_get_HashStrength_m480059173
XRa:__ZN18GfxFramebufferGLES13ReadbackImageER14ImageReferenceiiiiii
X4h:_ValueCollection_System_Collections_Generic_ICollectionU3CTValueU3E_Clear_m3271993638_gshared
NYg:__Z35RuntimeInvoker_Position_t3781184359PFvvEPK10MethodInfoPvPS4_
A1d:_Enumerator_MoveNext_m1419609883
TS:__ZN4FMOD7Channel19setReverbPropertiesEPK29FMOD_REVERB_CHANNELPROPERTIES
dba:__ZN13MonoBehaviour22GetScriptFullClassNameEv
dHj:_il2cpp_object_get_class
qlh:__ZL111DerivedType_t1016359113_CustomAttributesCacheGenerator_DerivedType_MakeGenericType_m742223168____typeArguments0P21CustomAttributesCache
Z9i:_Vector2__cctor_m3670745621
Bkf:_ReadOnlyCollection_1_Contains_m1816350632_gshared
TMf:_ServicePointManager_FindServicePoint_m3137356168
Brj:__ZL25UnresolvedVirtualCall_182P12Il2CppObject19Vector3_t2243707580S1_PK10MethodInfo
rig:_StringBuilder_Append_m3541816491
SBa:__ZN20SphericalHarmonicsL211AddWeightedERKS_f
MTh:__ZL106PointerEventData_t1599784723_CustomAttributesCacheGenerator_PointerEventData_set_pressPosition_m2094137883P21CustomAttributesCache
kAd:_PointerInputModule_GetPointerData_m1695674453
sdk:_GameGUINavigation__ctor_m1632532566
XTg:__Z90RuntimeInvoker_Void_t1841601450_RuntimeObject_RuntimeObject_RuntimeObject_SByte_t454417549PFvvEPK10MethodInfoPvPS4_
SQb:__Z19TransferField_ArrayI17RemapPPtrTransfer27Converter_SimpleNativeClassI8GUIStyleEEvRK23StaticTransferFieldInfoR31RuntimeSerializationCommandInfoRT0_
A8:__ZL22StaticInitializeShaderPv
F6d:_Convert_ToUInt64_m345450801
duj:_Predicate_1_BeginInvoke_m2559992383_gshared
czc:__ZN9JSONWrite8TransferI10ColorRGBAfEEvRT_PKc17TransferMetaFlags
ACi:_Debug_Log_m920475918
j0e:_List_1_Find_m1270109362_gshared
v1g:__Z81RuntimeInvoker_Single_t2076509932_PlayableHandleU26_t4210769902_Int32_t2071877448PFvvEPK10MethodInfoPvPS4_
zba:__Z25scripting_method_get_name18ScriptingMethodPtr
Qqc:__Z35Register_UnityEngine_Resources_Loadv
rPb:__Z19TransferField_ArrayI14SafeBinaryRead16Converter_StringEvRK23StaticTransferFieldInfoR31RuntimeSerializationCommandInfoRT0_
_ik:_rename
K7j:_GC_exit_check
M8i:_Transform_INTERNAL_CALL_TransformDirection_m2899991790
AOe:_NotSupportedException__ctor_m3232764727
Os:__ZN7mecanim9animation9DenseClip8TransferI14SafeBinaryReadEEvRT_
hMf:_TypeConverterAttribute_Equals_m2330345916
QNh:__ZL86GUIStyle_t1799908754_CustomAttributesCacheGenerator_GUIStyle_get_alignment_m3513439031P21CustomAttributesCache
lYg:__Z90RuntimeInvoker_Boolean_t3825574718_Int32_t2071877448_Int32U26_t455636984_Int32_t2071877448PFvvEPK10MethodInfoPvPS4_
daa:__Z20UnlockObjectCreationv
p_g:__Z54RuntimeInvoker_Int32_t2071877448_LayerMask_t3188175821PFvvEPK10MethodInfoPvPS4_
eGe:_MonoIO_CreateDirectory_m379525469
Djc:__ZN8Material28ApplyMaterialPropertyDrawersEv
tE:__ZN9BlobWrite8TransferI22OffsetPtrArrayTransferI9OffsetPtrIN7mecanim12statemachine18StateMachineMemoryEEEEEvRT_PKc17TransferMetaFlags
VWc:_UNITY_ft_smooth_renderer_class_pic_free
P0e:_List_1_System_Collections_IList_Remove_m3763718607_gshared
gyi:_Bounds_get_center_m129401026
BY:__ZN19AudioPlayableOutput22OnConnectionHashChangeEv
jtd:_String_Concat_m2000667605
Dmi:_Text_set_lineSpacing_m3040793467
wvj:__ZN24dense_hashtable_iteratorINSt3__24pairIK10KeyWrapperIPK22Il2CppGenericParameterEP11Il2CppClassEES6_N6il2cpp5utils11PointerHashIS4_EEN14dense_hash_mapIS6_S9_SE_NS6_14EqualsComparerINS0_8equal_toIS5_EEEENS0_9allocatorISA_EEE9SelectKeyESJ_SL_E30advance_past_empty_and_deletedEv
NCj:__ZN6il2cpp2os19SocketHandleWrapperC2ERKS1_
Y2j:__ZN6il2cpp2vm6String8NewUtf16EPKDsi
T$j:__ZN6il2cpp2os10ThreadImpl12QueueUserAPCEPFvPvES2_
aQ:__Z32TransferEnumWithNameForceIntSizeI14SafeBinaryReadN10SampleClip17CompressionFormatEEvRT_RT0_PKc17TransferMetaFlags
rdd:__ZN22BaseUnityConnectClient10QueueEventERN11UnityEngine15CloudWebService17CloudServiceEventEPKcjb
uDg:_Mesh_DefaultDimensionForChannel_m153181993
$we:_ExecuteEvents_GetEventHandler_TisRuntimeObject_m3333041576_gshared
h_e:__ZN23InterfaceActionInvoker2IP28UICharInfoU5BU5D_t2749705857iE6InvokeEjP11Il2CppClassP12Il2CppObjectS1_i
ADh:__ZL81Input_t1785128008_CustomAttributesCacheGenerator_Input_get_touchCount_m2050827666P21CustomAttributesCache
vEj:__ZNSt3__26__treeIP11Il2CppClassNS_4lessIS2_EENS_9allocatorIS2_EEE16__insert_node_atEPNS_16__tree_node_baseIPvEERSB_SB_
rnd:_SHA384Managed_unpackWord_m2501009050
n4c:_UNITY_FT_Hypot
KSd:_BitConverter_ToInt64_m1329623425
j8b:__ZN8RendererC2E12RendererType18MemLabelIdentifier18ObjectCreationMode
ysh:__ZL95ASCIIEncoding_t3022927988_CustomAttributesCacheGenerator_ASCIIEncoding_GetByteCount_m1396020051P21CustomAttributesCache
qGj:_il2cpp_class_is_abstract
Kf:_emscripten_glGetError
iOj:__ZN15dense_hashtableINSt3__24pairIK10KeyWrapperIPK14Il2CppAssemblyEPK22Il2CppMonoAssemblyNameEES6_N6il2cpp5utils11PointerHashIS4_EEN14dense_hash_mapIS6_SA_SF_NS6_14EqualsComparerINS0_8equal_toIS5_EEEENS0_9allocatorISB_EEE9SelectKeyESK_SM_E14squash_deletedEv
xMg:__Z70RuntimeInvoker_Boolean_t3825574718_RuntimeObject_UInt64U26_t1611942494PFvvEPK10MethodInfoPvPS4_
GT:__Z14FMOD_FILE_SeekPvjS_
RYi:_MethodCall_get_Properties_m1893707917
Ggh:__ZL72Enum_t2459695545_CustomAttributesCacheGenerator_Enum_ToObject_m604645223P21CustomAttributesCache
g2h:_ShimEnumerator_get_Entry_m2387156530_gshared
Xgh:__ZL82RuntimeArray_CustomAttributesCacheGenerator_Array_SetValue_m2421438042____indices1P21CustomAttributesCache
zAj:__ZN14dense_hash_mapI10KeyWrapperIN6il2cpp5utils13dynamic_arrayIPK10Il2CppTypeLj4EEEEPFvvENS1_8metadata19Il2CppSignatureHashENS8_14EqualsComparerINSB_22Il2CppSignatureCompareEEENSt3__29allocatorINSG_4pairIKS8_SA_EEEEEC2EjRKSC_RKSF_
Xeb:__ZNK13RenderTexture32CalculateNeedsInvertedProjectionEv
umb:__ZN10systeminfo18GetOperatingSystemEv
Sf:emscriptenWebGLGet
AKg:_Rect_GetHashCode_m559954498_AdjustorThunk
Gda:__Z19CanReplaceComponentRN5Unity9ComponentEPKNS_4TypeEPN4core12basic_stringIcNS5_20StringStorageDefaultIcEEEE
Whh:__ZL77RuntimeArray_CustomAttributesCacheGenerator_Array_ConstrainedCopy_m1922927602P21CustomAttributesCache
S9b:__ZN12CubemapArray11InitTextureEiii13TextureFormatb
c$e:_List_1_GrowIfNeeded_m2433342921_gshared
nic:__Z17GetSceneBuildInfoRKN4core12basic_stringIcNS_20StringStorageDefaultIcEEEEiR14SceneBuildInfo
bXa:__ZNK15Lz4Decompressor20DecompressStreamInitEPPv
Gzj:__ZNSt3__27__sort4IRN6il2cpp5utils11collections13ArrayValueMapIPK10Il2CppType17Il2CppInteropData26InteropDataToTypeConverterNS1_8metadata14Il2CppTypeLessENSA_26Il2CppTypeEqualityComparerEE12SortComparerEPS8_EEjT0_SH_SH_SH_T_
X7e:_Collection_1_set_Item_m3803272710_gshared
IDg:_Mesh_SetUVs_m841280343
Eeg:_MonoMethodInfo_t3646562144_marshal_pinvoke_cleanup
jQf:_X509Certificate2_get_SignatureAlgorithm_m3069898012
IMf:_HttpRequestCreator__ctor_m2513916021
KDe:_Int64_System_IConvertible_ToSingle_m1678482180
Szg:_GUIStyle_INTERNAL_CALL_Internal_CalcSizeWithConstraints_m1203344891
aF:__ZN7mecanim5human13HumanFixTwistEPKNS0_5HumanEPNS_8skeleton13SkeletonPoseTIN4math4trsXEEES9_iiRKf
l8a:__ZL24AssignProjectorQueuesJobP30AssignProjectorQueuesJobHeader
Kmg:_TimeSpan_get_Hours_m3804628138
VHd:_FontData_set_alignByGeometry_m2819509290
eZj:__ZN14dense_hash_mapI10KeyWrapperIP12Il2CppObjectEN6il2cpp2gc9CachedCCWENS4_5utils11PointerHashIS1_EENS3_14EqualsComparerINSt3__28equal_toIS2_EEEENSB_9allocatorINSB_4pairIKS3_S6_EEEEEC2EjRKS9_RKSE_
g$i:_Regex__ctor_m3250610064
fAj:__ZN15dense_hashtableINSt3__24pairIK10KeyWrapperIN6il2cpp5utils13dynamic_arrayIPK10Il2CppTypeLj4EEEEPFvvEEESA_NS3_8metadata19Il2CppSignatureHashEN14dense_hash_mapISA_SD_SG_NSA_14EqualsComparerINSF_22Il2CppSignatureCompareEEENS0_9allocatorISE_EEE9SelectKeyESK_SM_E4swapERSP_
w2b:__ZN9ShaderLab20SerializedSubProgram14SetConstBufferEPKci
_wf:_ArgumentNullException__ctor_m911049464
Xcg:_TargetParameterCountException__ctor_m2760108938
YWf:_SoapAttribute_SetReflectionObject_m2774156012
Tkj:_Check_Source_m3385315029
$gj:_InvokableCall_4_Find_m1467690987_gshared
kmf:_Comparison_1_Invoke_m345024424_gshared
O0c:_cf2_getStdVW
mjf:_ReadOnlyCollection_1_System_Collections_IList_Insert_m3936197025_gshared
jee:_EventHandler_BeginInvoke_m3027583606
w6:__Z40DebugStringToFilePostprocessedStacktraceRK21DebugStringToFileData
YDc:__Z29Transfer_Blittable_ArrayFieldI8JSONReadjEvRT_R9ArrayInfoRK23StaticTransferFieldInfo
q6i:_StateMachineBehaviour_OnStateEnter_m1095276890
bGg:_Object_GetInstanceID_m1920497914
xXi:_ContextAttribute__ctor_m4006843177
gMi:_InternalEnumerator_1_get_Current_m314017974_AdjustorThunk
xg:__setLetterbox
MHe:_MemoryStream__ctor_m1043059966
Tva:__ZNSt3__26__treeINS_12__value_typeIN9ShaderLab16FastPropertyNameEfEENS_19__map_value_compareIS3_S4_NS_4lessIS3_EELb1EEENS_9allocatorIS4_EEE12__find_equalIS3_EERPNS_16__tree_node_baseIPvEENS_21__tree_const_iteratorIS4_PNS_11__tree_nodeIS4_SE_EEiEESH_RKT_
k7i:_TextGenerator_Populate_Internal_m1817393161
Gjh:__ZL57CollectionBase_t1101587467_CustomAttributesCacheGeneratorP21CustomAttributesCache
yWf:__ZN21InterfaceFuncInvoker3IP12Il2CppObjectP6Type_t28StreamingContext_t1417235061PS1_E6InvokeEjP11Il2CppClassS1_S3_S4_S5_
KCb:__ZNSt3__26vectorI17BlendShapeChannelNS_9allocatorIS1_EEE6assignINS_11__wrap_iterIPS1_EEEENS_9enable_ifIXaasr21__is_forward_iteratorIT_EE5valuesr16is_constructibleIS1_NS_15iterator_traitsISA_E9referenceEEE5valueEvE4typeESA_SA_
VOd:_LayoutElement_set_preferredWidth_m3072758716
Xhj:_UnityEvent_1_AddListener_m1708363187_gshared
UOf:_AsnEncodedData_ToString_m724151831
J0a:__ZN11TimeManager11GetRealtimeEv
S6e:_Collection_1_System_Collections_IList_get_IsFixedSize_m2408637569_gshared
ikg:_UTF8Encoding_GetByteCount_m1469571127
h7j:_GC_print_block_list
Agd:__ZN20UnityWebRequestProtoI19TransportJavaScript16AtomicRefCounter14RedirectHelper14ResponseHelper15DownloadHandler13UploadHandler12HeaderHelper14AsyncOperationE26Job_ExecuteUnityWebRequestEPS8_
TT:__ZN29AudioEffectInternalDefinitionC2EP26UnityAudioEffectDefinitionb
fdg:_MonoMethodInfo_GetDeclaringType_m4186531677
wXf:_SoapTypeAttribute_SetReflectionObject_m1566293812
dbi:_DefaultComparer__ctor_m418731767_gshared
dH:__ZN4PPtrI6AvatarE8TransferI18StreamedBinaryReadILb0EEEEvRT_
Anj:_Enumerator_System_Collections_IEnumerator_Reset_m2573763156_AdjustorThunk
iZf:_RemotingServices_CreateClientProxy_m1631035355
Xrg:_UInt64_ToString_m2892887310
bOh:__ZL88GUIStyle_t1799908754_CustomAttributesCacheGenerator_GUIStyle_set_fixedHeight_m1517737608P21CustomAttributesCache
MCa:_stbir_resize
l2j:__ZN15dense_hashtableINSt3__24pairIK10KeyWrapperIPK19Il2CppGenericMethodEP10MethodInfoEES6_N6il2cpp8metadata23Il2CppGenericMethodHashEN14dense_hash_mapIS6_S9_SD_NS6_14EqualsComparerINSC_26Il2CppGenericMethodCompareEEENS0_9allocatorISA_EEE9SelectKeyESH_SJ_EC2ERKSM_j
KMj:__ZN15dense_hashtableINSt3__24pairIK10KeyWrapperINS1_IPK12PropertyInfoP11Il2CppClassEEEjEES9_17ReflectionMapHashIS8_EN14dense_hash_mapIS9_jSD_NS9_14EqualsComparerINS0_8equal_toIS8_EEEENS0_9allocatorISB_EEE9SelectKeyESI_SK_E5clearEv
WDb:__ZN4PPtrI4MeshE8TransferI14SafeBinaryReadEEvRT_
wOc:__ZN24b2ChainAndCapsuleContact6CreateEP9b2FixtureiS1_iP16b2BlockAllocator
CXa:__Z37ReadDirectoryInfo_UnityWebAndUnityRawR12FileAccessorRKN20ArchiveStorageHeader6HeaderERNS1_13DirectoryInfoE
Xje:_Array_InternalArray__IEnumerable_GetEnumerator_TisInt64_t909078037_m1219751804_gshared
f8:__ZNSt3__26__treeINS_12__value_typeIPKciEENS_19__map_value_compareIS3_S4_15compare_tstringIS3_ELb1EEENS_9allocatorIS4_EEE7destroyEPNS_11__tree_nodeIS4_PvEE
yih:__ZL96RuntimeTypeHandle_t2330101084_CustomAttributesCacheGenerator_RuntimeTypeHandle_Equals_m452760426P21CustomAttributesCache
iai:_Dictionary_2_ToTValue_m1381983709_gshared
rOe:_MulticastDelegate_KPM_m1592985119
u4e:_Queue_1_Clear_m3279588542_gshared
NJg:_RaycastHit2D_get_collider_m2568504212_AdjustorThunk
xef:_Collection_1_ConvertItem_m3941916604_gshared
v5a:__ZN20DynamicPropertySheet14SetValueQueuedEN9ShaderLab16FastPropertyNameEN19ShaderPropertySheet12PropertyTypeEjNS2_8SetFlagsE
Q7c:__ZN2UI6Canvas26MarkAllNestedCanvasesDirtyEv
pWj:__ZN6il2cpp2vm12ReboxIfBoxedEP14Il2CppIUnknownP11Il2CppClass
M_e:_List_1__ctor_m2766376432_gshared
Kkb:__ZN25PathNamePersistentManagerD2Ev
Y9:__ZN17PersistentManager48IntegrateObjectAndUnlockIntegrationMutexInternalEi
Wjf:_ReadOnlyCollection_1_System_Collections_IList_get_IsReadOnly_m3872065502_gshared
Ulh:__ZL112TypeBuilder_t3308873219_CustomAttributesCacheGenerator_TypeBuilder_MakeGenericType_m4282022646____typeArguments0P21CustomAttributesCache
Jka:__ZZ29InitializeSortingGroupManagerPvEN44PostLateUpdateSortingGroupsUpdateRegistrator7ForwardEv
yp:__ZN6Object12SetHideFlagsENS_9HideFlagsE
IPc:__ZN9b2Fixture11SynchronizeEP12b2BroadPhaseRK11b2TransformS4_
tqk:_emscripten_glGetFramebufferAttachmentParameteriv__wrapper
R0a:__ZN13RendererScene15InitializeUmbraEv
dvi:_AnimatorTransitionInfo_IsName_m2561957738_AdjustorThunk
CBa:__Z28CalculateGlobalMatrixInverse23TransformAccessReadOnly
gBc:__ZN4PPtrI6ObjectE8TransferI9JSONWriteEEvRT_
Hih:__ZL60SecurityAttribute_t2016950496_CustomAttributesCacheGeneratorP21CustomAttributesCache
ACb:__ZN13dynamic_arrayI12BoneWeights4Lj16EE18resize_initializedEjRKS0_12ResizePolicy
fAd:_PointerEventData_ToString_m1218584363
FVd:_Char_System_IConvertible_ToChar_m1489061093_AdjustorThunk
yjg:_UTF7Encoding_GetCharCount_m2589913583
ZRh:__ZL117RenderPipelineManager_t984453155_CustomAttributesCacheGenerator_RenderPipelineManager_set_currentPipeline_m3825706412P21CustomAttributesCache
aba:__ZN13MonoBehaviour19ReleaseMonoInstanceEv
DIe:_MemoryStream_CalculateNewCapacity_m3533542025
Xbk:__ZN6il2cpp6icalls8mscorlib6System6Object7GetTypeEP12Il2CppObject
jOh:__ZL88GUIStyle_t1799908754_CustomAttributesCacheGenerator_GUIStyle_GetFontInternal_m3509743324P21CustomAttributesCache
jng:_TimeSpan_Equals_m4102942751_AdjustorThunk
W4h:_ValueCollection_System_Collections_Generic_ICollectionU3CTValueU3E_Add_m1903672223_gshared
Bgd:__ZN12HeaderHelper14SetUnvalidatedERKN4core12basic_stringIcNS0_20StringStorageDefaultIcEEEES6_b
mQ:__ZN4FMOD6SoundI7releaseEv
xEb:__ZN14SpriteRenderer13AwakeFromLoadE17AwakeFromLoadMode
GAd:_MouseButtonEventData__ctor_m618518000
qYa:__ZN10MemoryFile9SetLengthEy
YJ:__ZN7mecanim10ValueArray8TransferI19StreamedBinaryWriteILb0EEEEvRT_
tIc:__ZNK15b2RevoluteJoint10GetAnchorBEv
nxb:__ZN14SafeBinaryRead21TransferSTLStyleArrayI13dynamic_arrayI7Hash128Lj8EEEEvRT_17TransferMetaFlags
DKb:__Z28scripting_class_is_interface17ScriptingClassPtr
Jh:_glTexStorage2D
k2b:__ZNK9ShaderLab10SubProgram14EnsureCompiledEv
ALg:__Z79RuntimeInvoker_Boolean_t3825574718_RuntimeObject_RuntimeObject_SByte_t454417549PFvvEPK10MethodInfoPvPS4_
E$f:_ObjectManager_RecordFixup_m3572285566
xkh:__ZL55DaylightTime_t3800227331_CustomAttributesCacheGeneratorP21CustomAttributesCache
x0d:_SortedList_InitTable_m460350503
pba:__Z18BuildScriptClassId17ScriptingClassPtr
_Ii:_InternalEnumerator_1_get_Current_m4279678504_AdjustorThunk
Rq:__ZNK16LevelGameManager7GetNameEv
U6e:_Collection_1_System_Collections_IList_get_Item_m2415649949_gshared
wac:__ZN8Renderer28HandleParentHierarchyChangesEPK23TransformAccessReadOnlyj
V9f:_ILTokenInfo_t149559338_marshal_pinvoke_cleanup
Gma:__ZL31DeleteLastPathNameComponentImplRKN4core12basic_stringIcNS_20StringStorageDefaultIcEEEEPKc
Z5b:__Z13RegisterClassI18DelayedCallManagerEvv
Ddd:__ZN18UnityConnectClient15GetCloudServiceEv
eRb:__Z18Transfer_BlittableI24GenerateTypeTreeTransferLb0EiEvRK29SerializationCommandArgumentsR31RuntimeSerializationCommandInfo
aOc:__ZN15b2CircleContact6CreateEP9b2FixtureiS1_iP16b2BlockAllocator
xKb:__ZL28SerializationCommandGroupForRK31TransferFunctionScriptingTraits17ScriptingClassPtr17ScriptingFieldPtrRK20CoreScriptingClasses
Rpb:__ZN10TagManager32RegisterDefaultTagsAndLayerMasksEv
Ijj:_TweenRunner_1_StopTween_m2135918118_gshared
W5h:_ValueCollection_get_Count_m4142113966_gshared
gIg:_PlayableHandle_SetDuration_m1990009798_AdjustorThunk
mBj:__ZN15dense_hashtableINSt3__24pairIK10KeyWrapperIPKcEP11Il2CppClassEES5_N6il2cpp5utils11StringUtils12StringHasherIS4_EEN14dense_hash_mapIS5_S8_SE_NS5_14EqualsComparerINSB_13VmStringUtils21CaseSensitiveComparerEEENS0_9allocatorIS9_EEE9SelectKeyESJ_SL_E15insert_noresizeERKS9_
flg:_SynchronizationLockException__ctor_m549086841
hHh:__ZL105RectTransform_t3349966182_CustomAttributesCacheGenerator_RectTransform_INTERNAL_get_sizeDelta_m3975625099P21CustomAttributesCache
qXd:_ArrayList_InsertRange_m1478230997
DMa:__ZN4gles8InitCapsEP7ApiGLESP12GraphicsCapsR16GfxDeviceLevelGL
rwa:__ZN6prcore14BlitImageFloatERK14ImageReferenceRS0_NS0_8BlitModeE
fSd:_Swapper_EndInvoke_m677693941
WDa:__Z24CalculateVertexLightDataRK15SharedLightDataR14GfxVertexLight
TCg:_Matrix4x4_Equals_m1321236479_AdjustorThunk
ri:_glEnable
Cza:__ZN15dense_hashtableINSt3__24pairIKiiEEi21InstanceIDHashFunctorN14dense_hash_mapIiiS4_NS0_8equal_toIiEE13stl_allocatorIS3_L18MemLabelIdentifier1ELi16EEE9SelectKeyES7_SA_E12maybe_shrinkEv
u3a:__ZNK25CameraStackRenderingState21GetImageEffectTextureEb
F0f:_RuntimeMethodHandle__ctor_m2437574937_AdjustorThunk
Rgh:__ZL72RuntimeArray_CustomAttributesCacheGenerator_Array_get_Length_m1498215565P21CustomAttributesCache
Szc:__Z35Transfer_Blittable_FixedBufferFieldI9JSONWriteiEvRK29SerializationCommandArgumentsR31RuntimeSerializationCommandInfo
FGh:__ZL99Transform_t3275118058_CustomAttributesCacheGenerator_Transform_INTERNAL_get_localPosition_m94028171P21CustomAttributesCache
Ipg:_UInt16_System_IConvertible_ToInt64_m2835280558_AdjustorThunk
ZIg:_Quaternion_GetHashCode_m2270520528_AdjustorThunk
Yzh:__ZL53g_UnityEngine_Assembly_CustomAttributesCacheGeneratorP21CustomAttributesCache
Hfj:_Predicate_1_BeginInvoke_m3926587117_gshared
fIb:__ZNSt3__26vectorI4PPtrI6ObjectE13stl_allocatorIS3_L18MemLabelIdentifier51ELi16EEE6assignINS_11__wrap_iterIPS3_EEEENS_9enable_ifIXaasr21__is_forward_iteratorIT_EE5valuesr16is_constructibleIS3_NS_15iterator_traitsISD_E9referenceEEE5valueEvE4typeESD_SD_
qB:__ZN26AnimatorControllerPlayable17ProcessRootMotionEP35AnimationPlayableEvaluationConstantP32AnimationPlayableEvaluationInputP33AnimationPlayableEvaluationOutput
SXe:_List_1_get_Item_m1231764300_gshared
SLg:__Z94RuntimeInvoker_Boolean_t3825574718_Int32_t2071877448_SByte_t454417549_ExceptionU26_t1467204777PFvvEPK10MethodInfoPvPS4_
XFd:_DefaultControls_CreateToggle_m1568873127
B2e:_List_1__cctor_m1022807427_gshared
ujh:__ZL63KeyNotFoundException_t1722175009_CustomAttributesCacheGeneratorP21CustomAttributesCache
U9h:_Dictionary_2_InitArrays_m2270022740_gshared
a2d:_Convert_ToBoolean_m2188088811
lcd:__ZN11UnityEngine7Connect15DeviceInfoEvent16CollectExtraInfoEv
Y0g:__Z50RuntimeInvoker_AnimationOffsetPlayable_t1019600543PFvvEPK10MethodInfoPvPS4_
Pig:_UnicodeEncoding_GetChars_m3765282346
yEe:_IntPtr__ctor_m4104029105
_ph:__ZL114BinaryFormatter_t1866979105_CustomAttributesCacheGenerator_BinaryFormatter_get_DefaultSurrogateSelector_m219714691P21CustomAttributesCache
sNi:_InternalEnumerator_1_System_Collections_IEnumerator_get_Current_m771161214_AdjustorThunk
pNe:_MonoType_get_attributes_m1493788675
cjk:_atol
y9j:__ZN6il2cpp6icalls8mscorlib6System10Reflection9FieldInfo25internal_from_handle_typeE12Il2CppIntPtrS5_
x4d:_Convert_ToDouble_m4236754739
DIf:_SslClientStream_get_PrivateKeyCertSelectionDelegate_m3715949545
hyj:__ZN15dense_hashtableINSt3__24pairIK10KeyWrapperIPKcEP11Il2CppClassEES5_N6il2cpp5utils11StringUtils12StringHasherIS4_EEN14dense_hash_mapIS5_S8_SE_NS5_14EqualsComparerINSB_13VmStringUtils21CaseSensitiveComparerEEENS0_9allocatorIS9_EEE9SelectKeyESJ_SL_EC2EjRKSE_RKSJ_RKSN_
lHd:_Dropdown_CreateItem_m2702141380
glf:_ReadOnlyCollection_1_IndexOf_m224962127_gshared
bkh:__ZL48Stack_t1043988394_CustomAttributesCacheGeneratorP21CustomAttributesCache
Lo:FUNCTION_TABLE_viifi
Mo:FUNCTION_TABLE_viiff
y$:__Z75AudioPlayableGraphExtensions_CUSTOM_INTERNAL_CALL_InternalCreateAudioOutputR14HPlayableGraphP12Il2CppStringP15HPlayableOutput
e8g:__Z59RuntimeInvoker_Boolean_t3825574718_ResourceInfo_t3933049236PFvvEPK10MethodInfoPvPS4_
qdg:_MonoEvent_GetAddMethod_m4289563120
hih:__ZL37Type_t_CustomAttributesCacheGeneratorP21CustomAttributesCache
C4c:_UNITY_tt_face_free_hdmx
jPc:__ZNSt3__26__sortIRN18Overlap2DQueryBase29ColliderHitsByDepthComparitorEPP10Collider2DEEvT0_S7_T_
sQj:__ZN15dense_hashtableINSt3__24pairIK10KeyWrapperINS1_IP11Il2CppClassjEEES4_EES6_N6il2cpp8metadata14ArrayClassHashEN14dense_hash_mapIS6_S4_SB_NS6_14EqualsComparerINSA_17ArrayClassCompareEEENS0_9allocatorIS8_EEE9SelectKeyESF_SH_E5clearEv
Gxj:__ZNSt3__218uninitialized_copyIPNS_4pairIK10KeyWrapperIPK11Il2CppClassEPKcEESB_EET0_T_SD_SC_
SHj:__ZN6il2cpp2vm14TypeNameParser5ParseEb
Mgi:_ReflectionMethodsCache__ctor_m1835220
Bjh:__ZL71SynchronizedArrayListWrapper_t3317806524_CustomAttributesCacheGeneratorP21CustomAttributesCache
Dfd:__ZN23UnityPurchasingSettingsC2Ev
Qce:_Double_ToString_m1864290157
Bkk:__ZNSt9bad_allocD0Ev
PUg:__Z50RuntimeInvoker_Int64_t909078037_Double_t4078015681PFvvEPK10MethodInfoPvPS4_
Yak:__ZN6il2cpp2os5Mutex6UnlockEv
bga:__ZNSt3__26__treeINS_12__value_typeI18VertexChannelsInfo16MeshVertexFormatEENS_19__map_value_compareIS2_S4_NS_4lessIS2_EELb1EEE13stl_allocatorIS4_L18MemLabelIdentifier16ELi16EEE12__find_equalIS2_EERPNS_16__tree_node_baseIPvEENS_21__tree_const_iteratorIS4_PNS_11__tree_nodeIS4_SF_EEiEESI_RKT_
hXj:__ZNK24NamespaceAndNamePairHashclERKNSt3__24pairIPKcS3_EE
SCa:__ZL37stbir__resample_horizontal_downsampleP11stbir__infoiPf
V8e:__ZN21InterfaceFuncInvoker1Ib18Color32_t874517518E6InvokeEjP11Il2CppClassP12Il2CppObjectS0_
_za:__ZNK5Unity9Component38MarkGameObjectAndComponentDependenciesER27GarbageCollectorThreadState
L6:__ZL16OutOfMemoryErrorjj18MemLabelIdentifieriPKc
UYd:_SynchronizedArrayListWrapper_Contains_m2259439339
TY:__ZNK7Texture21GetShadowSamplingModeEv
Qba:__ZNK11TypeManager15ClassNameToRTTIEPKcb
yla:__ZN13ScreenManager21OnWindowRegainedFocusEv
uYb:__Z18Transfer_BlittableI18StreamedBinaryReadILb0EELb1EdEvRK29SerializationCommandArgumentsR31RuntimeSerializationCommandInfo
Fzi:_WillRenderCanvases_BeginInvoke_m1914028027
uAe:_Guid__ctor_m2599802704
cHe:_FileStream_get_CanRead_m4148920720
qid:__ZN13RuntimeStaticINSt3__26vectorIPN5physx15PxVehicleWheelsENS0_9allocatorIS4_EEEELb0EE13StaticDestroyEPv
gch:__Z31RuntimeInvoker_Link_t2723257478PFvvEPK10MethodInfoPvPS4_
gPa:__ZN4crnd12symbol_codec32decode_receive_static_data_modelERNS_25static_huffman_data_modelE
x7b:__ZN18ScriptingArguments8AddFloatEf
ize:_GregorianCalendar_set_CalendarType_m2438362222
rFd:_FloatTween_get_targetValue_m2120061648_AdjustorThunk
xPg:__Z44RuntimeInvoker_RuntimeTypeHandle_t2330101084PFvvEPK10MethodInfoPvPS4_
zhe:_Array_InternalArray__ICollection_Contains_TisVector2_t2243707579_m3625698589_gshared
KAc:__Z18Transfer_BlittableI9JSONWriteLb0EaEvRK29SerializationCommandArgumentsR31RuntimeSerializationCommandInfo
ILg:__Z45RuntimeInvoker_SByte_t454417549_RuntimeObjectPFvvEPK10MethodInfoPvPS4_
M0:__ZN11UnityEngine15CloudWebService14DataDispatcher34OnSessionContainerArchivedAndReadyERNS0_16SessionContainerE
PKc:__ZN7b2World11CreateJointEPK10b2JointDef
Tze:_NumberFormatInfo_GetFormat_m3247563525
vuh:__ZL77Convert_t2607082565_CustomAttributesCacheGenerator_Convert_ToByte_m2303223565P21CustomAttributesCache
BCf:_CipherSuiteCollection__ctor_m2154226461
mTb:__Z18Transfer_BlittableI19StreamedBinaryWriteILb0EELb0E8Vector3fEvRK29SerializationCommandArgumentsR31RuntimeSerializationCommandInfo
kvg:_RectOffset__ctor_m2227510254
v_b:__ZN14SafeBinaryRead19TransferSTLStyleMapINSt3__23mapIN4core12basic_stringIcNS3_20StringStorageDefaultIcEEEEiNS1_4lessIS7_EENS1_9allocatorINS1_4pairIKS7_iEEEEEEEEvRT_17TransferMetaFlags
aMj:__ZN15dense_hashtableINSt3__24pairIK10KeyWrapperINS1_IPK11Il2CppImageP11Il2CppClassEEEjEES9_17ReflectionMapHashIS8_EN14dense_hash_mapIS9_jSD_NS9_14EqualsComparerINS0_8equal_toIS8_EEEENS0_9allocatorISB_EEE9SelectKeyESI_SK_ED2Ev
jYc:_gray_move_to
m3f:_DSAParameters_t1872138834_marshal_pinvoke
DZg:__Z37RuntimeInvoker_ContentType_t859870085PFvvEPK10MethodInfoPvPS4_
Tdf:_Collection_1_System_Collections_IEnumerable_GetEnumerator_m4174600764_gshared
FYi:_ConstructionCall_InitDictionary_m4046452035
WMj:__ZN6il2cpp2vm10Reflection14GetEventObjectEP11Il2CppClassPK9EventInfo
UDf:_TlsStream_Write_m2271546135
fic:__Z30RegisterValidateMethodCallbackiPF18ScriptingMethodPtrS_17ScriptingClassPtrP6ObjectEPKc
_ma:__ZN20LocalFileSystemPosixD0Ev
tKh:__ZL133AnimatorControllerPlayable_t1744083903_CustomAttributesCacheGenerator_AnimatorControllerPlayable_INTERNAL_CALL_GetFloatID_m1278007428P21CustomAttributesCache
Nfe:_CultureInfo_ConstructInternalLocaleFromCurrentLocale_m1342751405
Uhg:_Latin1Encoding_GetString_m3553289597
HZc:_tt_cmap_init
La:invoke_viidi
et:__ZNSt3__26vectorIN13AnimationClip9PPtrCurveE13stl_allocatorIS2_L18MemLabelIdentifier25ELi16EEE6assignINS_11__wrap_iterIPS2_EEEENS_9enable_ifIXaasr21__is_forward_iteratorIT_EE5valuesr16is_constructibleIS2_NS_15iterator_traitsISC_E9referenceEEE5valueEvE4typeESC_SC_
b1h:_Enumerator_get_Current_m1020413567_AdjustorThunk
pVe:_List_1_System_Collections_IList_get_IsFixedSize_m1122077912_gshared
OYj:__ZN15dense_hashtableI10KeyWrapperIP18Il2CppGenericClassES3_N6il2cpp8metadata22Il2CppGenericClassHashEN14dense_hash_setIS3_S6_NS3_14EqualsComparerINS5_25Il2CppGenericClassCompareEEENSt3__29allocatorIS3_EEE8IdentityESA_SD_E12maybe_shrinkEv
b7b:__ZN9TextAssetC2E18MemLabelIdentifier18ObjectCreationMode
ZCi:_Display_RecreateDisplayList_m3412638488
EMj:__ZN15dense_hashtableINSt3__24pairIK10KeyWrapperINS1_IPK12PropertyInfoP11Il2CppClassEEEjEES9_17ReflectionMapHashIS8_EN14dense_hash_mapIS9_jSD_NS9_14EqualsComparerINS0_8equal_toIS8_EEEENS0_9allocatorISB_EEE9SelectKeyESI_SK_E8min_sizeEjj
Yvh:__ZL79Convert_t2607082565_CustomAttributesCacheGenerator_Convert_ToUInt64_m2215781574P21CustomAttributesCache
Rvk:_emscripten_glCheckFramebufferStatus__wrapper
ERj:__ZNK15dense_hashtableINSt3__24pairIK10KeyWrapperIP11Il2CppClassES4_EES5_N6il2cpp8metadata16SZArrayClassHashEN14dense_hash_mapIS5_S4_SA_NS5_14EqualsComparerINS9_19SZArrayClassCompareEEENS0_9allocatorIS7_EEE9SelectKeyESE_SG_E12test_deletedEj
qDc:__Z18Transfer_BlittableI8JSONReadLb0EdEvRK29SerializationCommandArgumentsR31RuntimeSerializationCommandInfo
A7g:__Z83RuntimeInvoker_Boolean_t3825574718_NavigationU26_t3929175072_Navigation_t1571958496PFvvEPK10MethodInfoPvPS4_
GI:__ZN7mecanim9animation21BlendTreeNodeConstant35Transfer_4_0_BackwardsCompatibilityI14SafeBinaryReadEEvRT_
F_e:_List_1_TrimExcess_m2004514756_gshared
zlg:_Thread_ClrState_m822263449
Vnf:_SimpleCollator_LastIndexOfOrdinalIgnoreCase_m550798345
Lzg:_GUIStyle_INTERNAL_CALL_Internal_GetCursorStringIndex_m3074318281
$Ha:__ZNK9GfxDevice13GetViewMatrixEv
kAa:__ZN17RemapPPtrTransferC2E24TransferInstructionFlagsb
iI:__ZN14SafeBinaryRead21TransferSTLStyleArrayI22OffsetPtrArrayTransferIiEEEvRT_17TransferMetaFlags
Lca:__ZN8TypeTree8BlobReadERPKhS1_ib
n7h:_Dictionary_2_System_Collections_Generic_ICollectionU3CSystem_Collections_Generic_KeyValuePairU3CTKeyU2CTValueU3EU3E_Remove_m3080541539_gshared
vAa:__ZN18LoadSceneOperation23GetAllowSceneActivationEv
sqi:_AnimationPlayableOutput_op_Implicit_m1147972631
Oqb:__ZN6CameraD0Ev
upf:_ModulusRing_Multiply_m386339435
Qia:__ZN31CanvasBatchIntermediateRenderer16StaticInitializeEPv
DJd:_GraphicRaycaster_U3CRaycastU3Em__0_m3971200721
Ghf:_ReadOnlyCollection_1_System_Collections_IList_RemoveAt_m3004588099_gshared
CA:__ZN7mecanim12AndValueMaskILb0EEEvPKNS_14ValueArrayMaskEPS1_
d4d:_Decimal_op_Implicit_m4246329390
axf:_ArgumentNullException__ctor_m2252076819
ugb:__ZN10GameObjectC2E18MemLabelIdentifier18ObjectCreationMode
lXc:_raccess_guess_apple_double
Q9g:__Z70RuntimeInvoker_Void_t1841601450_CustomAttributeNamedArgument_t94157543PFvvEPK10MethodInfoPvPS4_
iLf:_ListDictionary_GetEnumerator_m1511032609
J7f:_TypeBuilder_get_FullName_m1626507516
a$f:_SerializationInfo__ctor_m4016423422
cQa:__ZL18ProgramUniform1uivPK7ApiGLESjiihPKv
bac:__ZN14Texture2DArray13RebuildMipMapEv
gxj:__ZN13Il2CppHashSetIPK17Il2CppGenericInstN6il2cpp8metadata21Il2CppGenericInstHashENS4_24Il2CppGenericInstCompareENSt3__29allocatorI10KeyWrapperIS2_EEEEC2EjRKS5_RKS6_
J7e:_Collection_1_Clear_m2734620236_gshared
j1j:__ZN6il2cpp2gc16GarbageCollector14RemoveWeakLinkEPPv
x2b:__ZN9ShaderLab20SerializedSubProgram14AddVectorParamEPKcii15ShaderParamTypei
_We:_List_1_System_Collections_Generic_IEnumerableU3CTU3E_GetEnumerator_m3123730956_gshared
y9c:__ZN2UI14CanvasRenderer12CleanupClassEv
nkf:_ReadOnlyCollection_1_System_Collections_IEnumerable_GetEnumerator_m1734360860_gshared
Hbi:_DefaultComparer__ctor_m1052417779_gshared
Yqd:_SystemException__ctor_m2688248668
kTi:_ResourceSet_ReadResources_m1669023823
jvf:_PKCS12_RemoveCertificate_m1590055870
qSj:__ZN6il2cpp2vm6Thread7SetNameEP12Il2CppThreadP12Il2CppString
xlh:__ZL117GenericTypeParameterBuilder_t1370236603_CustomAttributesCacheGenerator_GenericTypeParameterBuilder_Equals_m2498927509P21CustomAttributesCache
Sna:__ZN13ScreenManager18SetAllowCursorLockEb
e2:__ZN11UnityEngine15CloudWebService10RestClientINS0_23WebRequestRestHeaderMapEE16SetRequestHeaderERKN4core12basic_stringIcNS4_20StringStorageDefaultIcEEEESA_
XIb:__ZN30RuntimeInitializeOnLoadManager15ClassMethodInfo8TransferI14SafeBinaryReadEEvRT_
MYh:__ZL73CanvasScaler_t2574720772_CustomAttributesCacheGenerator_m_ScreenMatchModeP21CustomAttributesCache
J_:__ZL22InitializeModule_Audiov
Glb:__ZN16MemoryFileSystem8IsLockedERK13FileEntryData
y9i:_Vector2_get_Item_m2792130561_AdjustorThunk
Zcg:_MonoCMethod_Invoke_m931478014
qNg:__Z86RuntimeInvoker_Int32_t2071877448_Int16_t4041245914_Int32_t2071877448_Int32_t2071877448PFvvEPK10MethodInfoPvPS4_
rTi:_SatelliteContractVersionAttribute__ctor_m2605651717
Yk:_emscripten_glBindRenderbuffer
Gwc:__Z32GUIStyle_Set_Custom_PropClippingP12Il2CppObjecti
Gvd:_DecoderExceptionFallbackBuffer_GetNextChar_m1727394816
F7j:_GC_dirty_init
rRd:_Array_Copy_m1969461849
u_f:_MessageFormatter_ReadMethodResponse_m4134629501
l_j:__ZN6il2cpp2vm5Field14GetValueObjectEP9FieldInfoP12Il2CppObject
S8c:__ZNK2UI6Canvas16GetTargetDisplayEv
vcj:_PKCS12_GetSymmetricAlgorithm_m3196291685
uwi:_AudioClipPlayable_Equals_m2497502457_AdjustorThunk
$jj:_ListPool_1__cctor_m709904475_gshared
Yde:_Environment_get_OSVersion_m1247315981
zga:__ZN6Object17FindObjectsOfTypeEPKN5Unity4TypeER13dynamic_arrayIPS_Lj4EEb
jec:__ZNSt3__26vectorINS_4pairIiiEE13stl_allocatorIS2_L18MemLabelIdentifier1ELi16EEE21__push_back_slow_pathIKS2_EEvRT_
dTf:_Capture_get_Length_m1952322390
rBc:__ZN9JSONWrite8TransferI4PPtrI9Texture2DEEEvRT_PKc17TransferMetaFlags
WJb:__ZN13MonoBehaviour17RemoveFromManagerEv
nrb:__ZN12ImageFilters14AddImageFilterERK11ImageFilter
H9c:__ZL23RegisterModuleICalls_UIv
Nzb:__ZL11DecodeValuePPKcS0_
H2h:_ShimEnumerator_MoveNext_m2013866013_gshared
x5:__ZN13MemoryManagerC2Ev
_Sa:__ZN12SkinMeshInfo10DeallocateEPS_
H8i:_Transform_SetParent_m1963830867
Jv:__ZN15SerializeTraitsI22OffsetPtrArrayTransferIN7mecanim13ValueConstantEEE8TransferI19StreamedBinaryWriteILb0EEEEvRS3_RT_
QIh:__ZL66AnimationOffsetPlayable_t1019600543_CustomAttributesCacheGeneratorP21CustomAttributesCache
D_a:__ZN20ArchiveStorageReader28AcquireAndPrefillUnusedBlockEjPNS_11CacheResultE
W9b:__Z12NHxRoughnessIA4_tEvP9Texture2DPT_iiii
T7i:_Touch_get_phase_m196706494_AdjustorThunk
VVf:_MethodDictionary_get_SyncRoot_m673971424
_ga:__ZN18AsyncUploadManagerD2Ev
l4b:__ZN9Transform5ResetEv
ZSb:__Z22TransferField_NonArrayI24GenerateTypeTreeTransfer16Converter_StringEvRK23StaticTransferFieldInfoR31RuntimeSerializationCommandInfoRT0_
yZc:_UNITY_FT_CMap_New
oxi:_AudioMixerPlayable_Equals_m3014217409_AdjustorThunk
PMf:_HttpWebRequest_System_Runtime_Serialization_ISerializable_GetObjectData_m3671622902
Ina:__Z17MainLoopKeepalivePv
RZi:_MatchCollection__ctor_m1944681790
Ejd:_HMACSHA512__ctor_m1667460019
rdb:__Z24ScheduleCullingAllGroupsR8JobFenceRK22SceneCullingParameters4PPtrI6CameraERK13CullingOutputRK13dynamic_arrayIP12CullingGroupLj4EERKS_
Tgk:_printf_core
iod:_ToBase64Transform_get_OutputBlockSize_m949275583
gOe:_MonoType_ToString_m473949831
Dcb:__Z14CalcHullBoundsPK8Vector3fPKhhRK5PlaneRK10Matrix4x4fR10MinMaxAABB
pYf:_RealProxy__ctor_m2147093603
HJg:_RaycastHit2D_get_point_m442317739_AdjustorThunk
HLb:__ZN11PreloadData39ShouldIgnoreInGarbageDependencyTrackingEv
UX:__ZNK14SoundHandleAPI12GetFrequencyEv
F0e:_List_1__ctor_m3511181530_gshared
q5a:__Z19SetupLODFadeKeywordR17ShaderPassContexti
Rhf:_ReadOnlyCollection_1_get_Count_m2180604490_gshared
HTb:__Z18Transfer_BlittableI19StreamedBinaryWriteILb0EELb0E5RectTIfEEvRK29SerializationCommandArgumentsR31RuntimeSerializationCommandInfo
j6j:_GC_set_fl_marks
uSa:__ZL25CheckCopyTextureArgumentsRK7ApiGLESP11GLESTextureS3_
Tga:__ZN13dynamic_arrayI26EnlightenSystemInformationLj8EE6insertEPS0_PKS0_S4_
cZc:_tt_name_entry_ascii_from_utf16
tOe:_MulticastNotSupportedException__ctor_m2164514827
d7d:_DateTime_System_IConvertible_ToChar_m2489529194_AdjustorThunk
CSb:__Z29Transfer_Blittable_ArrayFieldI24GenerateTypeTreeTransferyEvRT_R9ArrayInfoRK23StaticTransferFieldInfo
jT:__ZN4FMOD7SystemI9playSoundE17FMOD_CHANNELINDEXPNS_5SoundEbPPNS_7ChannelE
dwi:_AttributeHelperEngine_GetRequiredComponents_m120894667
khh:__ZL74RuntimeArray_CustomAttributesCacheGenerator_Array_BinarySearch_m1368352453P21CustomAttributesCache
a5:__GLOBAL__sub_I_runtime_graphics_mesh2_lump_cpp
wQh:__ZL68PreferBinarySerialization_t2472773525_CustomAttributesCacheGeneratorP21CustomAttributesCache
evh:__ZL78Convert_t2607082565_CustomAttributesCacheGenerator_Convert_ToSByte_m1183867428P21CustomAttributesCache
BA:__ZN27AnimationLayerMixerPlayable17LayerMixerProcessEP35AnimationPlayableEvaluationConstantP32AnimationPlayableEvaluationInputP33AnimationPlayableEvaluationOutputM17AnimationPlayableFvS1_S3_S5_EMS_FvS1_S3_S5_ESA_MS_FvS5_S1_S3_S5_ifE
PHj:__ZN6il2cpp2os4File4ReadEPNS0_10FileHandleEPciPi
mv:__ZN18StreamedBinaryReadILb0EE21TransferSTLStyleArrayI13dynamic_arrayI12PPtrKeyframeLj4EEEEvRT_17TransferMetaFlags
UTe:_List_1_Remove_m2616693989_gshared
pCb:__ZN10VertexData13SwapEndianessEv
pjk:_realloc
Isc:__Z57Register_UnityEngine_Transform_INTERNAL_get_localRotationv
QTg:__Z65RuntimeInvoker_Void_t1841601450_RuntimeObject_DateTime_t693205669PFvvEPK10MethodInfoPvPS4_
$ng:_Type_get_IsInterface_m3583817465
KIb:__ZN30RuntimeInitializeOnLoadManager23VirtualRedirectTransferER17RemapPPtrTransfer
jnk:dynCall_viif
Jdg:_MonoField_get_DeclaringType_m1591666235
mGi:_InternalEnumerator_1__ctor_m2111763266_AdjustorThunk
yVf:_Enumerator_MoveNext_m4234629003
P1c:_cf2_hint_lock
qQb:__ZL26Transfer_SimpleNativeClassI17RemapPPtrTransfer8GradientLb0EEvRK29SerializationCommandArgumentsR31RuntimeSerializationCommandInfo
_gh:__ZL69RuntimeArray_CustomAttributesCacheGenerator_Array_GetValue_m518505780P21CustomAttributesCache
YVg:__Z52RuntimeInvoker_UInt64_t2909196914_Single_t2076509932PFvvEPK10MethodInfoPvPS4_
q8g:__Z59RuntimeInvoker_Boolean_t3825574718_RaycastHit2D_t4063908774PFvvEPK10MethodInfoPvPS4_
kvh:__ZL78Convert_t2607082565_CustomAttributesCacheGenerator_Convert_ToSByte_m1880147062P21CustomAttributesCache
qNe:_MonoType_GetDefaultConstructor_m925465120
Nog:_Type_IsArrayImpl_m3073208555
O2:__ZN13UploadHandlerD2Ev
ylk:dynCall_viiiiiffi
DHh:__ZL95Physics2D_t2540166467_CustomAttributesCacheGenerator_Physics2D_Raycast_m2303387255____distance2P21CustomAttributesCache
Mc:_emscripten_glBlendFuncSeparate
j9f:_GenericTypeParameterBuilder_IsPrimitiveImpl_m1198748291
h9:__Z20scripting_string_newPKc
Yqc:__Z43Material_CUSTOM_Internal_CreateWithMaterialP12Il2CppObjectS0_
ZFe:_Directory_GetCurrentDirectory_m44486537
WQh:__ZL56UnityEventBase_t828812576_CustomAttributesCacheGeneratorP21CustomAttributesCache
m5e:_Collection_1_System_Collections_ICollection_CopyTo_m1047946700_gshared
qNc:__ZN16PhysicsManager2D20GetRigidBodyVelocityERK11Rigidbody2D
m5d:_Convert_ToInt64_m4057339019
$Of:_AsnEncodedData_Default_m4197142414
rSj:__ZN6il2cpp2vm6Thread13MemoryBarrierEv
bRj:__ZNSt3__218uninitialized_copyIPNS_4pairIK10KeyWrapperIP11Il2CppClassES4_EES8_EET0_T_SA_S9_
DHj:__ZN6il2cpp2os4File17GetFileAttributesERKNSt3__212basic_stringIcNS2_11char_traitsIcEENS2_9allocatorIcEEEEPi
KF:__ZNSt3__26__sortIRPFbPKN8Animator11AnimatorJobES4_EPS4_EEvT0_S9_T_
bR:__ZN17AudioCustomFilterD2Ev
rP:__Z91Register_UnityEngine_Animations_AnimatorControllerPlayable_INTERNAL_CALL_ResetTriggerStringv
s4b:__ZN9Transform16ResetReplacementEv
jvc:__ZNK8GUIStyle13GetLineHeightEv
Pek:_MusicManager__ctor_m1133544053
ERa:__ZN18GfxFramebufferGLES18ReleaseFramebufferEP17RenderSurfaceBaseP14GfxContextGLES
MWi:_Context_GetDynamicPropertyCollection_m1987747444
mQf:_X509Certificate2_get_Version_m1927399907
Ubc:__ZN13ProduceHelperI6CameraLb0EE7ProduceE18MemLabelIdentifier18ObjectCreationMode
jLd:_Image_RadialCut_m3229543088
k4:__ZN19CloudServiceHandler34HandleSaveFileWebRequestPlayerLoopEv
SB:__ZN7mecanim21ValueArrayReverseCopyEPKNS_18ValueArrayConstantEPKNS_10ValueArrayES2_PS3_PKi
OQ:__Z31GetParentSampleClipFromInstancePN11SoundHandle8InstanceE
E7b:__ZNK28RectTransformPropertyBinding13GetFloatValueERKN11UnityEngine9Animation10BoundCurveE
sfb:__ZN6Camera22StandaloneCustomRenderENS_10RenderFlagEP6ShaderRKN4core12basic_stringIcNS3_20StringStorageDefaultIcEEEEPNS_21PerformRenderFunctionE
sck:__ZN6il2cpp2os16ThreadLocalValue8GetValueEPPv
tBj:__ZN6il2cpp2vm13MetadataCache14GetGenericInstEPKPK10Il2CppTypej
jnd:_SHA384Managed_Initialize_m712692291
hHi:_InternalEnumerator_1__ctor_m2688327768_gshared
mVi:_ChannelInfo__ctor_m2502026239
Vb:invoke_iiidii
ynh:__ZL60CallingConvention_t3354538265_CustomAttributesCacheGeneratorP21CustomAttributesCache
$sc:__Z52Object_CUSTOM_GetOffsetOfInstanceIDInCPlusPlusObjectv
kZ:__ZN9AudioClip15InitializeClassEv
rp:setThrew
O9b:__ZL21BuildEmptyCubeTexturePKci11ColorRGBA3217TextureColorSpace
y_b:__ZN14SafeBinaryRead21TransferSTLStyleArrayINSt3__26vectorIN9ShaderLab20SerializedSubProgramENS1_9allocatorIS4_EEEEEEvRT_17TransferMetaFlags
kBd:_StandaloneInputModule_set_cancelButton_m2642677329
xCc:__Z15Transfer_StringI8JSONReadLb1EEvRK29SerializationCommandArgumentsR31RuntimeSerializationCommandInfo
Nxa:__ZN6prcoreL17RemapGenericFloatI17TexFormatRGBFloat15TexFormatRGHalfEEvPKNS_9InnerInfoE
I6a:__Z25DoForwardShaderRenderLoopR17RenderLoopContextR13dynamic_arrayI16RenderObjectDataLj4EERK11CullResultsbbbN6Camera10RenderFlagE
qwe:_GameObject_GetComponent_TisRuntimeObject_m2812611596_gshared
CYc:_sfnt_load_face
aVc:_UNITY_FT_Render_Glyph_Internal
Ojg:_UTF8Encoding_GetByteCount_m2372933408
JWi:_Context_get_NeedsContextSink_m1907794755
tYc:_UNITY_ft_service_list_lookup
ozf:_ARC4Managed_GenerateKey_m716135508
jQb:__Z18Transfer_BlittableI17RemapPPtrTransferLb1E11ColorRGBA32EvRK29SerializationCommandArgumentsR31RuntimeSerializationCommandInfo
Ouc:__ZN5IMGUI21SelectReceivingWindowER8GUIStateb
uM:__ZNK26AnimatorControllerPlayable17ValidateGoToStateERiS0_
ZMi:_InternalEnumerator_1_get_Current_m3179981210_gshared
Ymb:__ZN13BaseAllocator13TryDeallocateEPv
QUb:__Z29Transfer_Blittable_ArrayFieldI19StreamedBinaryWriteILb0EEfEvRT_R9ArrayInfoRK23StaticTransferFieldInfo
bRd:_Array_CreateInstance_m1054139389
jxg:_GUIStyleState_GetGUIStyleState_m2816150617
MHi:_InternalEnumerator_1__ctor_m967618647_AdjustorThunk
olb:__ZN16MemoryFileSystem5WriteER13FileEntryDatayPvPy
xKd:_LayoutGroup_GetAlignmentOnAxis_m1783063916
h7h:_Dictionary_2_System_Collections_ICollection_get_IsSynchronized_m1738433079_gshared
wrb:__ZNSt3__26vectorIN12FlareManager10FlareEntryENS_9allocatorIS2_EEE21__push_back_slow_pathIKS2_EEvRT_
j5f:_Default_check_arguments_with_score_m1714931543
Cmd:_SHA1_Create_m4086509717
nij:_UnityEvent_1_GetDelegate_m3098147632_gshared
M8g:__Z111RuntimeInvoker_Int32_t2071877448_RuntimeObject_AnimatorClipInfo_t3905751349_Int32_t2071877448_Int32_t2071877448PFvvEPK10MethodInfoPvPS4_
seg:_MonoMethodInfo_GetMethodInfo_m3298558752
yR:__ZN13AudioListener17RemoveFromManagerEv
Gd:_glAttachShader
pHd:_Dropdown_SetAlpha_m2769981009
k4a:__ZNK6Camera19GetProjectionMatrixEv
jfj:_Predicate_1_BeginInvoke_m1856151290_gshared
Qbe:_StackTrace__ctor_m2404985356
Zaa:__Z38PreallocateObjectFromPersistentManagerib
r7d:_DateTime_System_IConvertible_ToSingle_m3927769066
tVf:_CostDelegate__ctor_m80452417
c5:__GLOBAL__sub_I_runtime_interfaces_lump_cpp
Rvb:__ZNK9Texture2D20GetUnscaledTextureIDEv
x5d:_Convert_ToSByte_m883113940
atk:_glFenceSync__wrapper
see:_Exception_get_Message_m173095527
uP:__Z103Register_UnityEngine_Animations_AnimatorControllerPlayable_INTERNAL_CALL_IsParameterControlledByCurveIDv
i4e:_Queue_1_Peek_m1463479953_gshared
Kwi:_AudioClipPlayable_INTERNAL_CALL_GetStartDelayInternal_m3715907549
jWh:__ZL53InputField_t1631627530_CustomAttributesCacheGeneratorP21CustomAttributesCache
QCd:_ButtonClickedEvent__ctor_m938038541
kZb:__ZN18StreamedBinaryReadILb0EE21TransferSTLStyleArrayI13dynamic_arrayI4AABBLj4EEEEvRT_17TransferMetaFlags
wUg:__Z119RuntimeInvoker_Int32_t2071877448_RuntimeObject_Int32_t2071877448_Int32_t2071877448_CharU26_t1894467670_SByte_t454417549PFvvEPK10MethodInfoPvPS4_
Cpg:_UInt16_System_IConvertible_ToDouble_m4100549304_AdjustorThunk
ZAa:__Z29ClearRepeatingLogMessageStatev
Prd:_Single_System_IConvertible_ToInt16_m962677079
nga:__ZN21EnlightenSceneMappingaSERKS_
Zcf:_Collection_1_SetItem_m546457615_gshared
Kck:__ZNK6il2cpp8metadata21Il2CppGenericInstHashclEPK17Il2CppGenericInst
bsd:_Single_System_IConvertible_ToUInt32_m2447833283
ijf:_ReadOnlyCollection_1_System_Collections_IList_Add_m3806843030_gshared
sWa:__ZN7ApiGLESD2Ev
dhb:__ZN9Transform47ClearTransformHierarchyAndApplyToSerializedDataEv
uLi:_InternalEnumerator_1_get_Current_m4083613828_AdjustorThunk
zvi:_Application_LoadLevel_m393995325
Kkd:_RijndaelManaged_GenerateKey_m3366247933
FFe:_BinaryReader_ReadUInt64_m1893783375
xyi:_Bounds_op_Equality_m2161830280
Qkb:__ZN17PersistentManager9AddStreamEv
Cnk:dynCall_fidi
$Jj:__ZN15dense_hashtableINSt3__24pairIK10KeyWrapperINS1_IPK9FieldInfoP11Il2CppClassEEEjEES9_17ReflectionMapHashIS8_EN14dense_hash_mapIS9_jSD_NS9_14EqualsComparerINS0_8equal_toIS8_EEEENS0_9allocatorISB_EEE9SelectKeyESI_SK_E12resize_deltaEjj
Fxc:__Z47Register_UnityEngine_GUIStyle_set_imagePositionv
gxc:__Z49GUIStyle_CUSTOM_INTERNAL_CALL_Internal_DrawCursor13Il2Cpp_IntPtrRK5RectTIfEP12Il2CppObjectiRK10ColorRGBAf
zii:_ScrollRect_set_movementType_m3292965850
kuh:__ZL59AttributeTargets_t1984597432_CustomAttributesCacheGeneratorP21CustomAttributesCache
PKg:_RectTransform_set_anchorMin_m4247668187
q3:__ZN11UnityEngine15CloudWebService14RestDownloaderD2Ev
Ljb:__Z29StdTemplateConversionFunctionIjhEbPvR14SafeBinaryRead
Wqj:__ZL25UnresolvedVirtualCall_149P12Il2CppObject23SpriteState_t1353336012S1_PK10MethodInfo
CTe:_List_1_GrowIfNeeded_m2986672263_gshared
KFi:_ArrayReadOnlyList_1_Remove_m2325516426_gshared
g$d:_Hashtable_get_Count_m830088216
aic:__ZNK13MonoBehaviour13GetScriptTypeEv
Kpa:__ZN13RenderTexture12SetDimensionE16TextureDimension
d5i:_ScriptableObject_CreateInstance_m3921674852
Qzf:_MD4Managed__ctor_m796835377
we:_SDL_FreeRW
Jsf:_PKCS1_OS2IP_m1273945439
Lmd:_SHA1Internal_FillBuff_m891541953
Fxh:__ZL62ResolveEventHandler_t3842432458_CustomAttributesCacheGeneratorP21CustomAttributesCache
jad:__Z34CanvasRenderer_Get_Custom_PropCullP12Il2CppObject
mFi:_ArrayReadOnlyList_1_get_IsReadOnly_m2717922212_gshared
_W:__ZN20SoundChannelInstance8getDelayE14FMOD_DELAYTYPEPjS1_
rak:__ZNSt3__26__treeINS_12__value_typeIPvxEENS_19__map_value_compareIS2_S3_NS_4lessIS2_EELb1EEENS_9allocatorIS3_EEE12__find_equalIS2_EERPNS_16__tree_node_baseIS2_EESF_RKT_
oMd:_InputField_set_customCaretColor_m3534590098
Jii:_ScrollRect_set_viewport_m323693490
yrh:__ZL66RijndaelManagedTransform_t135163252_CustomAttributesCacheGeneratorP21CustomAttributesCache
pye:_NumberFormatter_FormatExponential_m3975285307
RTc:__ZNSt3__26vectorIN20TextRenderingPrivate8FontImpl13CharacterInfoE13stl_allocatorIS3_L18MemLabelIdentifier1ELi16EEE8__appendEj
v:tempBigInt
Ee:_emscripten_glVertexAttrib1fv
c$b:__ZNSt3__26vectorIN9ShaderLab20SerializedSubProgram12UAVParameterENS_9allocatorIS3_EEE7reserveEj
Xni:_AnimationCurve_Init_m1486386337
uBi:_Component_GetComponents_m3712441745
_Md:_InputField_get_selectionAnchorPosition_m466595604
Jth:__ZL99Thread_t241561612_CustomAttributesCacheGenerator_Thread_t241561612____ExecutionContext_PropertyInfoP21CustomAttributesCache
Ovd:_DecoderReplacementFallback_get_DefaultString_m3399348550
Thj:_UnityAction_4_Invoke_m3312096275_gshared
YZh:__ZL111LayoutUtility_t4076838048_CustomAttributesCacheGenerator_LayoutUtility_U3CGetPreferredHeightU3Em__5_m1524880643P21CustomAttributesCache
HLj:__ZN24dense_hashtable_iteratorINSt3__24pairIK10KeyWrapperINS1_IPK10MethodInfoP11Il2CppClassEEEjEES9_17ReflectionMapHashIS8_EN14dense_hash_mapIS9_jSD_NS9_14EqualsComparerINS0_8equal_toIS8_EEEENS0_9allocatorISB_EEE9SelectKeyESI_SK_E30advance_past_empty_and_deletedEv
T3i:_RectTransformUtility_ScreenPointToRay_m1842507230
Geb:__ZN16ReflectionProbes16UpdateSampleDataEv
_Lb:__ZN14SafeBinaryRead21TransferSTLStyleArrayI10vector_setI4PPtrI10MonoScriptENSt3__24lessIS4_EE13stl_allocatorIS4_L18MemLabelIdentifier76ELi16EEEEEvRT_17TransferMetaFlags
FUi:_SafeHandle_Finalize_m1839546519
vBb:__ZN14Texture2DArray5ResetEv
cEc:__ZN8JSONRead21TransferSTLStyleArrayINSt3__26vectorI10RectOffset13stl_allocatorIS3_L18MemLabelIdentifier1ELi16EEEEEEvRT_S5_17TransferMetaFlags
xPi:_InternalEnumerator_1_MoveNext_m252820768_AdjustorThunk
sXi:_Context_AllocateNamedDataSlot_m3200404053
RTg:__Z64RuntimeInvoker_Void_t1841601450_RuntimeObject_Single_t2076509932PFvvEPK10MethodInfoPvPS4_
kPf:_X509EnhancedKeyUsageExtension_Decode_m3866320499
lye:_NumberFormatter_AppendIntegerStringWithGroupSeparator_m1401773574
p1e:_List_1_Remove_m1237648310_gshared
QBf:_CipherSuite_get_ServerHMAC_m3566778727
hkh:__ZL64DebuggerBrowsableState_t944457511_CustomAttributesCacheGeneratorP21CustomAttributesCache
$e:_JS_Sound_Play
yLd:_Image_IsRaycastLocationValid_m864962354
FQg:__Z181RuntimeInvoker_Void_t1841601450_RuntimeObject_Int32_t2071877448_Int32_t2071877448_RuntimeObject_Int32_t2071877448_Int32_t2071877448_RuntimeObject_Int32_t2071877448_Int32_t2071877448PFvvEPK10MethodInfoPvPS4_
$Zb:__ZN9ShaderLab16SerializedShader8TransferI14SafeBinaryReadEEvRT_
HEa:__ZN5Mutex7TryLockEv
cF:__ZN7mecanim8skeleton13SkeletonAlignEPKNS0_8SkeletonERKN4math7_float4ES7_i
Hac:__ZN19ShaderPropertySheet16SetVectorIndexedEN9ShaderLab16FastPropertyNameEifRK8Vector4fNS_8SetFlagsE
Kq:__ZN14SafeBinaryRead21TransferSTLStyleArrayIN4core12basic_stringIcNS1_20StringStorageDefaultIcEEEEEEvRT_17TransferMetaFlags
C$h:__ZL106PlayerController_t4148409433_CustomAttributesCacheGenerator_PlayerController_PlayDeadAnimation_m3881269730P21CustomAttributesCache
LYf:_RemotingConfiguration_RegisterWellKnownServiceType_m2491506630
SCh:__ZL89Screen_t786852042_CustomAttributesCacheGenerator_Screen_t786852042____height_PropertyInfoP21CustomAttributesCache
toh:__ZL55_TypeBuilder_t2783404358_CustomAttributesCacheGeneratorP21CustomAttributesCache
Xrj:__ZL25UnresolvedVirtualCall_204P12Il2CppObjectPK10MethodInfo
nkb:__Z29StdTemplateConversionFunctionIayEbPvR14SafeBinaryRead
aXe:_List_1_System_Collections_IEnumerable_GetEnumerator_m2923618987_gshared
ZYe:_List_1_System_Collections_IList_IndexOf_m4061554721_gshared
T3:__ZN11UnityEngine15CloudWebService14DataDispatcher4StopEv
spi:_AnimationLayerMixerPlayable_SetLayerAdditive_m4206337590_AdjustorThunk
e$b:__ZNSt3__26vectorIN9ShaderLab20SerializedSubProgram12UAVParameterENS_9allocatorIS3_EEE8__appendEj
N7e:_Collection_1_GetEnumerator_m434271983_gshared
ANj:__ZNK15dense_hashtableINSt3__24pairIK10KeyWrapperINS1_IPK9EventInfoP11Il2CppClassEEEjEES9_17ReflectionMapHashIS8_EN14dense_hash_mapIS9_jSD_NS9_14EqualsComparerINS0_8equal_toIS8_EEEENS0_9allocatorISB_EEE9SelectKeyESI_SK_E12test_deletedERK24dense_hashtable_iteratorISB_S9_SD_SM_SI_SK_E
Tod:_X509Certificate_ToString_m1582581274
x4h:_Enumerator_get_Current_m2986380627_gshared
rsa:__ZN17ScriptingGCHandle7AcquireE18ScriptingObjectPtr25ScriptingGCHandleWeakness
tWi:_LifetimeServices_set_LeaseTime_m1487876644
v6f:_ConstructorBuilder_not_supported_m3687319507
U_:__ZN19AudioPlayableOutputC2EjP13PlayableGraph
eih:__ZL48IList_t3321498491_CustomAttributesCacheGeneratorP21CustomAttributesCache
hFg:_UnityWebRequest_get_disposeUploadHandlerOnDispose_m573074478
Urd:_Single_System_IConvertible_ToInt64_m3555853323_AdjustorThunk
GQi:_InternalEnumerator_1__ctor_m3901400705_AdjustorThunk
qmk:dynCall_iifiii
CCa:__Z21HasAlphaTextureFormat13TextureFormat
SZ:__ZN12AudioManager6UpdateEv
xCa:__ZN14ImageReference9BlitImageERKS_NS_8BlitModeE
heg:_MonoMethod_get_MethodHandle_m1882915015
Ew:__ZN8Animator12AddToManagerEv
vmh:__ZL93ConstructorInfo_t2851816542_CustomAttributesCacheGenerator_ConstructorInfo_Invoke_m2144827141P21CustomAttributesCache
o2h:_ShimEnumerator_get_Key_m1171725158_gshared
SKb:__ZN23CachedSerializationDataD2Ev
keb:__ZNK25CameraStackRenderingState31CalculateStereoCameraTargetTypeEv
Ltb:__ZN14RenderSettings23VirtualRedirectTransferER14SafeBinaryRead
dGc:__ZNK13b2CircleShape5CloneEP16b2BlockAllocator
$$j:__ZN6il2cpp2os10ThreadImpl15CurrentThreadIdEv
Fcf:_Collection_1_System_Collections_IList_get_IsReadOnly_m4005091053_gshared
ND:__ZN30dense_hashtable_const_iteratorINSt3__24pairIKN11UnityEngine9Animation14GenericBindingENS3_10BoundIndexEEES4_NS3_25GenericBindingHashFunctorEN14dense_hash_mapIS4_S6_S8_NS3_30GenericBindingValueArrayUniqueE13stl_allocatorIS7_L18MemLabelIdentifier1ELi16EEE9SelectKeyESA_SD_E30advance_past_empty_and_deletedEv
mhe:_Array_InternalArray__ICollection_Contains_TisColor32_t874517518_m2818328910_gshared
Csb:__ZN17GlobalGameManager8TransferI17RemapPPtrTransferEEvRT_
Jwf:_AppDomainInitializer_EndInvoke_m4003801172
Ohh:__ZL66RuntimeArray_CustomAttributesCacheGenerator_Array_Sort_m2544329074P21CustomAttributesCache
GJg:_RaycastHit2D_get_point_m442317739
xtb:__ZN16LevelGameManager8TransferI18StreamedBinaryReadILb0EEEEvRT_
H4c:_UNITY_tt_face_load_fpgm
DFb:__ZN12InputManagerD0Ev
Dak:__ZN6il2cpp6icalls8mscorlib6System11Diagnostics10StackTrace9get_traceEP15Il2CppExceptionib
JFd:_DefaultControls_CreateUIObject_m2810394112
Wyg:_GUIStyle_get_overflow_m1125058093
XBa:__ZNK16LightmapSettings14GetLightProbesEv
Gii:_ScrollRect_get_scrollSensitivity_m1160815603
Jig:_UnicodeEncoding_GetBytes_m1337660232
SXb:__Z18Transfer_BlittableI18StreamedBinaryReadILb0EELb1EtEvRK29SerializationCommandArgumentsR31RuntimeSerializationCommandInfo
ujk:_posix_memalign
Xac:__ZN13ProduceHelperI12MeshRendererLb0EE7ProduceE18MemLabelIdentifier18ObjectCreationMode
t3e:_List_1_get_Count_m1249351212_gshared
EQi:_InternalEnumerator_1_get_Current_m747506907_AdjustorThunk
Jyi:_Camera_get_eventMask_m4241372419
Nwg:_GUILayoutUtility_LayoutFromEditorWindow_m1847418289
IBf:_CertificateValidationCallback2_BeginInvoke_m3996282202
BIf:_SslClientStream_get_ClientCertSelectionDelegate_m2316959461
RYd:_SynchronizedArrayListWrapper_get_SyncRoot_m1466044127
cca:__ZNK15MonoScriptCache7ReleaseEv
Uvj:__ZN6il2cpp2vm5Class13HasReferencesEP11Il2CppClass
ng:_glBindTexture
K7e:_Collection_1_ClearItems_m3585785594_gshared
Hhk:_snprintf
bZh:__ZL84HorizontalOrVerticalLayoutGroup_t1968298610_CustomAttributesCacheGenerator_m_SpacingP21CustomAttributesCache
R4f:_Binder__ctor_m1361613966
XMd:_InputField_set_caretPosition_m888572237
M9f:_ILGenerator__cctor_m3943061018
gYd:_ArrayListWrapper_Clone_m1506311066
FDi:_Event_get_character_m3740896233
Kza:__Z36scripting_liveness_calculation_begin17ScriptingClassPtriPFvPP12Il2CppObjectiPvES3_PFvvES7_
dCf:_CipherSuite_set_Context_m4127897124
oUa:__ZN16UniformCacheGLES6CreateERK20GpuProgramParameters
Xjg:_UTF8Encoding_Fallback_m811555654
ZI:__ZN7mecanim12statemachine13StateConstant8TransferI24GenerateTypeTreeTransferEEvRT_
Mme:_Array_InternalArray__IndexOf_TisPlayableBinding_t2498078091_m398853908_gshared
a5i:_ScriptableObject_t1975622470_marshal_pinvoke_cleanup
yhg:_Encoding_GetString_m1894033578
dif:_ReadOnlyCollection_1_System_Collections_IList_Clear_m1918003010_gshared
DNg:__Z77RuntimeInvoker_Void_t1841601450_RuntimeObject_RuntimeObject_Int32_t2071877448PFvvEPK10MethodInfoPvPS4_
rqk:_emscripten_glGetProgramInfoLog__wrapper
GK:__ZN25AnimatedPropertyEvaluator29BindCurveToScriptingObjectPtrERKN13AnimationClip10FloatCurveEj18ScriptingObjectPtrb
qLh:__ZL94Font_t4239498691_CustomAttributesCacheGenerator_Font_InvokeTextureRebuilt_Internal_m2007522718P21CustomAttributesCache
$jg:_UTF8Encoding_InternalGetChars_m373801468
Uda:__ZN17PersistentManager23DestroyFromFileInternalEi
WFh:__ZL98Object_t1021602117_CustomAttributesCacheGenerator_Object_DoesObjectWithInstanceIDExist_m2570795274P21CustomAttributesCache
m5i:_ScrollViewState__ctor_m535685782
N9d:_Decimal_System_IConvertible_ToChar_m2425091200_AdjustorThunk
U6a:__Z19SetupMotionMatricesR6CameraR18RPDataMotionVector
Qde:_Enum_ToString_m2112979707
Z6i:_TextGenerator_ValidatedSettings_m1640214759
Tph:__ZL55SoapServices_t3397513225_CustomAttributesCacheGeneratorP21CustomAttributesCache
iWf:_MonoMethodMessage_get_MethodName_m3580519713
rG:__ZN26AnimatorControllerPlayable18PrepareForPlaybackERN7mecanim6memory9AllocatorE
Zce:_Enum_t2459695545_marshal_pinvoke_cleanup
x5i:_HitInfo_t1761367055_marshal_pinvoke_cleanup
Cle:_Array_FindLastIndex_TisRuntimeObject_m986818300_gshared
Sjg:_UTF8Encoding_GetBytes_m4170182058
Qwe:_Mesh_GetAllocArrayFromChannel_TisColor32_t874517518_m2030100417_gshared
jid:__Z66Register_UnityEngine_Networking_UnityWebRequest_get_isNetworkErrorv
lta:__ZN22CreateGpuProgramOutputC2Ev
Mtg:_Object__ctor_m197157284
UEh:__ZL99SortingLayer_t221838959_CustomAttributesCacheGenerator_SortingLayer_GetLayerValueFromID_m4029056996P21CustomAttributesCache
pIe:_MemoryStream_InternalConstructor_m2423667240
o1i:_CapturingGroup_set_Index_m2175936006
eXf:_SoapMethodAttribute_SetReflectionObject_m3431595769
jli:_Slider_set_maxValue_m2951480075
Abc:__ZN8GUILayer12CleanupClassEv
jOd:_InputField_OnSubmit_m2856515494
ha:invoke_vidi
lgc:__ZNK15GUIEventManager15GetEventAtIndexEi
q8c:__ZN2UI14CanvasRenderer17SyncDirtyElementsER8JobFence
OXb:__Z18Transfer_BlittableI18StreamedBinaryReadILb0EELb0ExEvRK29SerializationCommandArgumentsR31RuntimeSerializationCommandInfo
AEd:_ColorBlock_op_Inequality_m1517672458
B3j:__ZN6il2cpp5utils11StringUtils15StringDuplicateEPKc
hJh:__ZL156AnimatorControllerPlayable_t1744083903_CustomAttributesCacheGenerator_AnimatorControllerPlayable_INTERNAL_CALL_GetAnimatorTransitionInfoInternal_m1417370130P21CustomAttributesCache
jgb:__Z15CanAddComponentR10GameObjectPKN5Unity4TypeE
Esa:__ZNK9ShaderLab21ShaderRasterStateDesc16ToGfxRasterStateEPK19ShaderPropertySheetS3_R14GfxRasterState
k6:_tlsf_memalign
t2f:_CspParameters__ctor_m2480441577
zck:__ZN6il2cpp2os9EventImplC2Ebb
VWi:_DynamicPropertyCollection_NotifyMessage_m840388347
y2i:_Uri_ParseUri_m5711497
UJ:__ZN4PPtrI13MonoBehaviourE8TransferI19StreamedBinaryWriteILb0EEEEvRT_
QZg:__Z98RuntimeInvoker_RuntimeObject_RuntimeObject_RayU26_t3651946800_Single_t2076509932_Int32_t2071877448PFvvEPK10MethodInfoPvPS4_
W6:__Z20IsMatrixBuiltinParamPKcPi
M8e:_Collection_1_CheckWritable_m2467777750_gshared
$Wh:__ZL108MaskableGraphic_t540192618_CustomAttributesCacheGenerator_MaskableGraphic_ParentMaskStateChanged_m3643747340P21CustomAttributesCache
wLj:__ZN15dense_hashtableINSt3__24pairIK10KeyWrapperINS1_IPK10MethodInfoP11Il2CppClassEEEjEES9_17ReflectionMapHashIS8_EN14dense_hash_mapIS9_jSD_NS9_14EqualsComparerINS0_8equal_toIS8_EEEENS0_9allocatorISB_EEE9SelectKeyESI_SK_E16reset_thresholdsEv
oac:__ZN8Renderer19PostInitializeClassEv
i8i:_TrackedReference_t1045890189_marshal_pinvoke_back
EGi:_InternalEnumerator_1_get_Current_m1943362081_AdjustorThunk
taj:_Vector3_get_sqrMagnitude_m1814096310_AdjustorThunk
Ufk:_Score_set_score_m3493347087
P8j:__ZN6il2cpp6icalls8mscorlib6System8Delegate23CreateDelegate_internalEP20Il2CppReflectionTypeP12Il2CppObjectP22Il2CppReflectionMethodb
ghh:__ZL82RuntimeArray_CustomAttributesCacheGenerator_Array_GetValue_m1507415734____indices0P21CustomAttributesCache
d5f:_Default_check_type_m2363631305
gKb:__ZN18DelayedCallManager18CancelCallDelayed2E4PPtrI6ObjectEPF15CallObjectStatePS1_PvES7_
TYe:_List_1__cctor_m911493842_gshared
bnb:__ZN25ThreadsafeLinearAllocator10ReallocateEPvji
FMb:__Z18Transfer_BlittableI14SafeBinaryReadLb1E11QuaternionfEvRK29SerializationCommandArgumentsR31RuntimeSerializationCommandInfo
Gka:__ZN18SpriteAtlasManagerD0Ev
Ome:_Array_InternalArray__IndexOf_TisRaycastHit2D_t4063908774_m3739817942_gshared
Seg:_MonoProperty_GetAccessors_m3704698731
q8j:_GC_disable
DCb:__ZN10Matrix4x4f8TransferI14SafeBinaryReadEEvRT_
GLe:_UnmanagedMemoryStream_ReadByte_m2501145010
As:__ZN15SerializeTraitsI13dynamic_arrayIN11UnityEngine9Animation14GenericBindingELj4EEE19ResizeSTLStyleArrayERS4_i18MemLabelIdentifier
E_f:_ObjectRecord_UnchainFixup_m3025030310
lea:__Z6AppendRKN4core12basic_stringIcNS_20StringStorageDefaultIcEEEEPKc
ugh:__ZL60MulticastDelegate_t3201952435_CustomAttributesCacheGeneratorP21CustomAttributesCache
xjh:__ZL54Collection_1_t686054069_CustomAttributesCacheGeneratorP21CustomAttributesCache
Jza:__ZL14OnWorldStoppedv
cVb:__Z18Transfer_BlittableI18StreamedBinaryReadILb1EELb0E8Vector3fEvRK29SerializationCommandArgumentsR31RuntimeSerializationCommandInfo
PZg:__Z81RuntimeInvoker_RuntimeObject_Ray_t2469606224_Single_t2076509932_Int32_t2071877448PFvvEPK10MethodInfoPvPS4_
NLh:__ZL84Canvas_t209405766_CustomAttributesCacheGenerator_Canvas_get_sortingOrder_m3120854436P21CustomAttributesCache
cWh:__ZL61Image_t2042527209_CustomAttributesCacheGenerator_m_FillCenterP21CustomAttributesCache
rNa:__ZN7ApiGLES18ClearBufferSubDataEjN2gl12BufferTargetEll
_L:__ZN8Animator7SetBoolEib
vlc:__Z37Camera_Get_Custom_PropAllCamerasCountv
QBb:__ZN14Texture2DArray8TransferI18StreamedBinaryReadILb0EEEEvRT_
ASj:__ZN6il2cpp6icalls8mscorlib6System5Array9GetLengthEP11Il2CppArrayi
mbb:__Z18ApplyOcclusionMaskR19ProbeOcclusionCacheRK17LightProbeContextRK10RenderNodeb
qKa:__ZN13GfxDeviceGLES13AfterDrawCallEv
JHe:_FileStreamAsyncResult__ctor_m1096228032
i$c:_Split_Cubic
ib:invoke_fiiii
sFh:__ZL78Time_t31991979_CustomAttributesCacheGenerator_Time_get_unscaledTime_m862335845P21CustomAttributesCache
n9d:_DBNull_System_IConvertible_ToSByte_m1228193074
r7e:_Collection_1__ctor_m2818834331_gshared
cwe:_Array_InternalArray__get_Item_TisUICharInfo_t3056636800_m3872982785_gshared
iYg:__Z68RuntimeInvoker_UInt16_t986882611_UInt16_t986882611_UInt16_t986882611PFvvEPK10MethodInfoPvPS4_
J$e:_List_1__ctor_m2168280176_gshared
osi:_AnimatorControllerPlayable_INTERNAL_CALL_GetLayerIndexInternal_m2875146206
vbk:__ZN6il2cpp2vm14MetadataLoader16LoadMetadataFileEPKc
b0j:__ZN6il2cpp2os10ThreadImpl22CreateForCurrentThreadEv
SIh:__ZL136AnimationOffsetPlayable_t1019600543_CustomAttributesCacheGenerator_AnimationOffsetPlayable_INTERNAL_CALL_GetPositionInternal_m1117100583P21CustomAttributesCache
Iaf:_Collection_1_Insert_m3041550124_gshared
jHe:_FileStream_FlushBuffer_m2594140542
_xc:__Z64Register_UnityEngine_GUIStyle_GetFontInternalDuringLoadingThreadv
cef:_Collection_1_System_Collections_IList_get_Item_m1995028750_gshared
n4j:__ZN6il2cpp2vm8Profiler12GCHeapResizeEx
Jnk:dynCall_viiifi
gRa:__ZN18GfxFramebufferGLES20ActiveContextChangedEPP17RenderSurfaceBaseS2_
cRa:__Z19PluginsRenderMarkeri
_Fh:__ZL80Object_t1021602117_CustomAttributesCacheGenerator_Object_Instantiate_m2439155489P21CustomAttributesCache
pL:__ZN10HumanTrait18InitializeBoneNameEv
pai:_DefaultComparer__ctor_m899694595_gshared
rqi:_AnimationPlayableOutput_GetHandle_m1362491789_AdjustorThunk
i2i:__ZN23InterfaceActionInvoker1ItE6InvokeEjP11Il2CppClassP12Il2CppObjectt
uBb:__ZN14Texture2DArray21AwakeFromLoadThreadedEv
OYb:__Z29Transfer_Blittable_ArrayFieldI18StreamedBinaryReadILb0EEyEvRT_R9ArrayInfoRK23StaticTransferFieldInfo
Kci:_EqualityComparer_1_get_Default_m875724809_gshared
bYj:__ZNSt3__214__split_bufferIN6il2cpp2vm5Image20EmbeddedResourceDataERNS_9allocatorIS4_EEEC2EjjS7_
nKd:_HorizontalOrVerticalLayoutGroup_get_spacing_m2859152439
Enh:__ZL57DispIdAttribute_t607560947_CustomAttributesCacheGeneratorP21CustomAttributesCache
kR:__ZN12AudioManager17RemoveAudioSourceEP11AudioSource
$rk:_emscripten_glBindProgramARB__wrapper
Xhh:__ZL83RuntimeArray_CustomAttributesCacheGenerator_RuntimeArray____LongLength_PropertyInfoP21CustomAttributesCache
kUg:__Z151RuntimeInvoker_Int32_t2071877448_RuntimeObject_Int32_t2071877448_Int32_t2071877448_RuntimeObject_Int32_t2071877448_DecoderFallbackBufferU26_t3597875002PFvvEPK10MethodInfoPvPS4_
kCi:_CullingGroup_Finalize_m3172731580
ZCg:_Matrix4x4__cctor_m3092679229
Sve:_Array_InternalArray__get_Item_TisUInt64_t2909196914_m2580870875_gshared
pQj:__ZN15dense_hashtableINSt3__24pairIK10KeyWrapperINS1_IP11Il2CppClassjEEES4_EES6_N6il2cpp8metadata14ArrayClassHashEN14dense_hash_mapIS6_S4_SB_NS6_14EqualsComparerINSA_17ArrayClassCompareEEENS0_9allocatorIS8_EEE9SelectKeyESF_SH_E4swapERSK_
A8b:__ZN13ProduceHelperI14SpriteRendererLb0EE7ProduceE18MemLabelIdentifier18ObjectCreationMode
N$:__ZN5physx14PxLightCpuTask12addReferenceEv
yOc:__Z10b2DistanceP16b2DistanceOutputP14b2SimplexCachePK15b2DistanceInput
Sxb:__ZN21EnlightenSceneMapping8TransferI19StreamedBinaryWriteILb0EEEEvRT_
CZj:__ZN6il2cpp2gc16GarbageCollector19InitializeFinalizerEv
UB:__ZN7mecanim8skeleton18CreateSkeletonMaskEjPKNS0_19SkeletonMaskElementERNS_6memory9AllocatorE
Ehh:__ZL66RuntimeArray_CustomAttributesCacheGenerator_Array_Sort_m4096942812P21CustomAttributesCache
suc:__ZN10GUIManager10DoGUIEventER10InputEventb
vCf:_Context_get_ClientWriteKey_m2235605337
ERb:__Z35Transfer_Blittable_FixedBufferFieldI24GenerateTypeTreeTransferxEvRK29SerializationCommandArgumentsR31RuntimeSerializationCommandInfo
i1h:_Enumerator__ctor_m3597047336_AdjustorThunk
V7:__Z20CalculateSqrDistanceRK8Vector3fRK4AABB
t0g:__Z66RuntimeInvoker_Playable_t1896841784_AudioMixerPlayable_t1831808911PFvvEPK10MethodInfoPvPS4_
R_j:__ZN6il2cpp2vm12GenericClass8GetClassEP18Il2CppGenericClass
aV:__Z32AudioMixerDuckingProcessCallbackP21UnityAudioEffectStatePfS1_jii
S5f:_CustomAttributeTypedArgument_GetHashCode_m999147081_AdjustorThunk
r9b:__ZN26CustomRenderTextureManagerD2Ev
sHe:_FileStream_Read_m3880951166
SR:__ZN12AudioManager8TransferI24GenerateTypeTreeTransferEEvRT_
mwa:__Z25GetBytesFromTextureFormat13TextureFormat
uCa:__ZN9Texture3D19UnloadFromGfxDeviceEb
iwi:_AudioClipPlayable__ctor_m1273139759
VPb:__Z18Transfer_BlittableI17RemapPPtrTransferLb0EsEvRK29SerializationCommandArgumentsR31RuntimeSerializationCommandInfo
Vte:_Dictionary_2_Do_CopyTo_TisRuntimeObject_TisRuntimeObject_m2625001464_gshared
Iwh:__ZL67Math_t2022911894_CustomAttributesCacheGenerator_Math_Min_m105057611P21CustomAttributesCache
_s:__Z14resize_trimmedINSt3__26vectorIN13AnimationClip9PPtrCurveE13stl_allocatorIS3_L18MemLabelIdentifier25ELi16EEEEEvRT_j
zK:__ZN16MecanimAnimation25RegisterIAnimationBindingEPKN5Unity4TypeEiP17IAnimationBinding
_ba:__Z32scripting_class_get_assemblyname17ScriptingClassPtr
DOc:__ZN9b2Simplex9ReadCacheEPK14b2SimplexCachePK15b2DistanceProxyRK11b2TransformS5_S8_
M6h:_Dictionary_2_Resize_m2532139610_gshared
o6i:_StackTraceUtility__cctor_m1132099289
k1e:_List_1_IndexOf_m2019441835_gshared
vIh:__ZL85AudioClip_t1932558630_CustomAttributesCacheGenerator_AudioClip_get_length_m3881628918P21CustomAttributesCache
fng:_TimeSpan_Equals_m2029123271_AdjustorThunk
SBj:__ZN6il2cpp2vm13MetadataCache23GetInvokerMethodPointerEPK10MethodInfoPK20Il2CppGenericContext
wVa:__ZN9GfxDevice21RegisterNativeTextureE9TextureIDi16TextureDimension
Jfe:_CultureInfo__ctor_m456863818
Q9j:__ZN6il2cpp6icalls8mscorlib6System10Reflection4Emit11TypeBuilder20create_generic_classEP27Il2CppReflectionTypeBuilder
DEj:__ZNSt3__26vectorIPK10MethodInfoNS_9allocatorIS3_EEE26__swap_out_circular_bufferERNS_14__split_bufferIS3_RS5_EE
qSe:_Enumerator_MoveNext_m2504790928_gshared
zxg:_GUISkin_set_button_m412653849
Zi:_emscripten_glUniformMatrix4fv
M5i:_SliderState__ctor_m1096533539
Z2b:__ZN12ScriptMapperD2Ev
VSh:__ZL85AxisEventData_t1524870173_CustomAttributesCacheGenerator_U3CmoveDirU3Ek__BackingFieldP21CustomAttributesCache
jjd:_KeyedHashAlgorithm_Dispose_m1864300576
Fcj:_X509Certificate_PEM_m49854707
sti:_AnimatorControllerPlayable_GetParameter_m4243058543_AdjustorThunk
Zuf:_PKCS12_get_RNG_m3620550062
nPf:_X509BasicConstraintsExtension__ctor_m3320418592
Pbj:_ExtendedKeyUsageExtension_Decode_m901297139
b0b:__Z32TransferEnumWithNameForceIntSizeI14SafeBinaryRead7FogModeEvRT_RT0_PKc17TransferMetaFlags
Xrc:__Z52Register_UnityEngine_RenderTexture_Internal_GetWidthv
bjh:__ZL89SafeWaitHandle_t481461830_CustomAttributesCacheGenerator_SafeWaitHandle__ctor_m1710231470P21CustomAttributesCache
a7j:_GC_check_leaked
F1b:__ZN9ShaderLab20SerializedSubProgram16TextureParameter8TransferI19StreamedBinaryWriteILb0EEEEvRT_
tqe:_Array_InternalArray__Insert_TisVector4_t2243707581_m1643342708_gshared
wob:__ZNK7Hash12812PackToUInt32Ev
Tei:_Mask_OnSiblingGraphicEnabledDisabled_m865494155
SLf:_KeysCollection_System_Collections_ICollection_get_SyncRoot_m2289369147
$3:__ZN11UnityEngine15CloudWebService16SessionContainer8AddEventEPNS0_14CloudEventInfoE
qUa:__Z4TrimRKN4core12basic_stringIcNS_20StringStorageDefaultIcEEEES5_
rmi:_Text_set_resizeTextMaxSize_m4034967714
Iih:__ZL55GuidAttribute_t222072359_CustomAttributesCacheGeneratorP21CustomAttributesCache
Mug:_GUIStyle_SetDefaultFont_m2095841351
D5f:_CustomAttributeNamedArgument_Equals_m2691468532
Efh:__ZL74String_t_CustomAttributesCacheGenerator_String_Concat_m3881798623____args0P21CustomAttributesCache
Lqh:__ZL103CryptoConfig_t896479599_CustomAttributesCacheGenerator_CryptoConfig_CreateFromName_m2169102076____args1P21CustomAttributesCache
lAb:__ZN10VertexData8TransferI14SafeBinaryReadEEvRT_
dT:__ZN4FMOD8ChannelI8setDelayE14FMOD_DELAYTYPEjj
k1d:_Stack__ctor_m2410583781
KOg:__Z42RuntimeInvoker_UInt32_t2149682021_IntPtr_tPFvvEPK10MethodInfoPvPS4_
b5f:_Default_GetBetterMethod_m4255740863
G6f:_ConstructorBuilder_GetILGenerator_m1731893569
dYj:__ZNSt3__214__split_bufferIN6il2cpp2vm5Image20EmbeddedResourceDataERNS_9allocatorIS4_EEED2Ev
eaa:__ZL20SortItemByInstanceIDRKN18AwakeFromLoadQueue4ItemES2_
kbg:_TypeBuilder_create_runtime_class_m2719530260
Hld:_RNGCryptoServiceProvider_RngClose_m2921734810
pOh:__ZL85GUIStyle_t1799908754_CustomAttributesCacheGenerator_GUIStyle_set_richText_m1853532836P21CustomAttributesCache
mC:__ZNK34AnimationStateMachineMixerPlayable26GetInterruptedPosePlayableEv
Bed:__ZN20UnityConnectSettings8TransferI24GenerateTypeTreeTransferEEvRT_
FE:__ZN34BlobWriteTransferSTLStyleArrayImplI22OffsetPtrArrayTransferIbEEclERS1_17TransferMetaFlagsR9BlobWrite
Rzh:__ZL199U3CCreateWhereIteratorU3Ec__Iterator1D_1_t2523986802_CustomAttributesCacheGenerator_U3CCreateWhereIteratorU3Ec__Iterator1D_1_System_Collections_Generic_IEnumeratorU3CTSourceU3E_get_Current_m517722874P21CustomAttributesCache
hnf:_SimpleCollator_IsHalfKana_m4255579023
HJf:_InternalAsyncResult_get_Count_m1291942796
p5e:_Collection_1_System_Collections_IList_Contains_m3365884450_gshared
x2j:__ZNK15dense_hashtableINSt3__24pairIK10KeyWrapperIPK19Il2CppGenericMethodEP10MethodInfoEES6_N6il2cpp8metadata23Il2CppGenericMethodHashEN14dense_hash_mapIS6_S9_SD_NS6_14EqualsComparerINSC_26Il2CppGenericMethodCompareEEENS0_9allocatorISA_EEE9SelectKeyESH_SJ_E10test_emptyERK30dense_hashtable_const_iteratorISA_S6_SD_SL_SH_SJ_E
i_a:__Z16FlaggedAsSkippedIN4core12basic_stringIcNS0_20StringStorageDefaultIcEEEEEbRK13FileEntryInfoRKT_19FileEnumerationFlag
Ycf:_Collection_1_set_Item_m3440986310_gshared
dga:__ZL31InitializeRendererUpdateManagerPv
ICd:_BaseMeshEffect__ctor_m2843647600
Iyf:_ASN1__ctor_m3688855288
CWg:__Z106RuntimeInvoker_RuntimeObject_Int16_t4041245914_RuntimeObject_BooleanU26_t3168250738_BooleanU26_t3168250738PFvvEPK10MethodInfoPvPS4_
KX:__ZN13AudioPlayable22ClearFMODResourceCacheEPN4FMOD6SystemE
DZ:__ZN13AudioListener12CleanupClassEv
mEf:_ClientSessionInfo_Dispose_m2571428025
tPd:_LayoutGroup_DelayedSetDirty_m4276695617
yHf:_RecordProtocol_decryptRecordFragment_m2510859489
ZNh:__ZL105GUIStyle_t1799908754_CustomAttributesCacheGenerator_GUIStyle_INTERNAL_set_Internal_clipOffset_m2024478897P21CustomAttributesCache
txd:_BaseRaycaster_get_sortOrderPriority_m3340181311
sGb:__ZN11TimeManager8TransferI19StreamedBinaryWriteILb0EEEEvRT_
_He:_DelegatePInvokeWrapper_ReadDelegate_t3184826381
Lzh:__ZL91HashSet_1_t2624254809_CustomAttributesCacheGenerator_HashSet_1_OnDeserialization_m627602129P21CustomAttributesCache
h0c:_compare_uni_maps
jcf:_Collection_1_get_Count_m804306016_gshared
Qcd:__ZN11UnityEngine15PlatformWrapper27GetGraphicsCapsSupportFlagsEv
I6c:__ZNSt3__218__insertion_sort_3IRPFbPN2UI6CanvasES3_EPS3_EEvT0_S8_T_
Wfh:__ZL80Decimal_t724701077_CustomAttributesCacheGenerator_Decimal_op_Explicit_m714968249P21CustomAttributesCache
Eae:_Decimal_Equals_m1115043331
NUb:__ZN12NativeBufferI16Converter_StringE15SetupForWritingER9ArrayInfo
qBd:_StandaloneInputModule_DeactivateModule_m2952848884
_Rh:__ZL119RenderPipelineManager_t984453155_CustomAttributesCacheGenerator_RenderPipelineManager_CleanupRenderPipeline_m2242901458P21CustomAttributesCache
L5h:_ValueCollection_System_Collections_Generic_ICollectionU3CTValueU3E_Clear_m231380274_gshared
uyd:_Entry__ctor_m1176697586
EFe:_BinaryReader_ReadUInt32_m1363572147
lGh:__ZL119PlayableHandle_t213697122_CustomAttributesCacheGenerator_PlayableHandle_INTERNAL_CALL_SetInputCountInternal_m3510545880P21CustomAttributesCache
Rvh:__ZL79Convert_t2607082565_CustomAttributesCacheGenerator_Convert_ToUInt32_m3391339025P21CustomAttributesCache
Tfb:__ZN13MonoBehaviour22DoScriptRebuildWarningEv
xlc:__Z38Camera_CUSTOM_INTERNAL_CALL_RaycastTryP12Il2CppObjectRK3Rayfi
Ami:_Text_get_verticalOverflow_m3134063496
tti:_AnimatorControllerPlayable_StringToHash_m2562221043
_Ti:_GCHandle_get_Target_m2327042781
EPf:_PublicKey_get_EncodedKeyValue_m3051963850
$Ug:__Z50RuntimeInvoker_Char_t3454481338_Single_t2076509932PFvvEPK10MethodInfoPvPS4_
Gaf:_Collection_1_GetEnumerator_m1417525918_gshared
$kk:_llvm_cttz_i32
IPf:_PublicKey_DecodeDSA_m1169363495
Avc:__ZN11IMGUIModule25GetGUIStyleScriptingClassEv
f3c:_tt_get_interface
Ise:_Array_Sort_TisRuntimeObject_m143182644_gshared
b2f:_AsymmetricKeyExchangeFormatter__ctor_m3362140205
yTj:__ZN6il2cpp5utils9PathUtils7CombineIcEENSt3__212basic_stringIT_NS3_11char_traitsIS5_EENS3_9allocatorIS5_EEEERKSA_SC_
JLf:_NameObjectCollectionBase_BaseGet_m667273025
qTg:__Z104RuntimeInvoker_RuntimeObject_Byte_t3683104436_RuntimeObject_SByte_t454417549_RuntimeObject_RuntimeObjectPFvvEPK10MethodInfoPvPS4_
mCc:__ZN9JSONWrite8TransferI13dynamic_arrayIiLj4EEEEvRT_PKc17TransferMetaFlags
k9:__Z18ConvertUTF16toUTF8PPKtS0_PPhS2_15ConversionFlags
w1j:__ZN6il2cpp2os20PathErrnoToErrorCodeERKNSt3__212basic_stringIcNS1_11char_traitsIcEENS1_9allocatorIcEEEEi
vog:_TypeLoadException__ctor_m1903359728
nuj:__ZL16my_g_bit_nth_msfj
J3h:_Transform_1_BeginInvoke_m3014766640_gshared
Ijd:_KeySizes__ctor_m3526899007
VQj:__ZN15dense_hashtableINSt3__24pairIK10KeyWrapperIP11Il2CppClassES4_EES5_N6il2cpp8metadata16SZArrayClassHashEN14dense_hash_mapIS5_S4_SA_NS5_14EqualsComparerINS9_19SZArrayClassCompareEEENS0_9allocatorIS7_EEE9SelectKeyESE_SG_E12expand_arrayEjN21dense_hash_map_traits17integral_constantIbLb0EEE
zBe:_Int16_System_IConvertible_ToInt32_m191782913_AdjustorThunk
$8i:_SpriteAtlasManager__cctor_m1344469326
IQh:__ZL69ArgumentCache_t4810721_CustomAttributesCacheGenerator_m_FloatArgumentP21CustomAttributesCache
o6e:_Collection_1_CopyTo_m1578267616_gshared
wgg:_EncoderReplacementFallback__ctor_m2208438262
d4a:__Z23SetupStereoFlareElementP11FlareVertexRK8Vector2fS3_S3_RK11ColorRGBA32RK10Matrix4x4fRK8Vector3fb
OXg:__Z91RuntimeInvoker_X509ChainStatusFlags_t480677120_RuntimeObject_RuntimeObject_SByte_t454417549PFvvEPK10MethodInfoPvPS4_
fwj:__ZN6il2cpp2vm5Class15GetInstanceSizeEPK11Il2CppClass
Q6g:__Z37RuntimeInvoker_Enumerator_t3806193287PFvvEPK10MethodInfoPvPS4_
ta:invoke_iiiifiiii
Y9h:_Dictionary_2_CopyTo_m1495142643_gshared
wFc:__ZN9rapidjson8internal6u64toaEyPc
Vij:_EventFunction_1_BeginInvoke_m3064802067_gshared
zwh:__ZL67IndexOutOfRangeException_t3527622107_CustomAttributesCacheGeneratorP21CustomAttributesCache
CQj:__ZNK15dense_hashtableINSt3__24pairIK10KeyWrapperINS1_IP11Il2CppClassjEEES4_EES6_N6il2cpp8metadata14ArrayClassHashEN14dense_hash_mapIS6_S4_SB_NS6_14EqualsComparerINSA_17ArrayClassCompareEEENS0_9allocatorIS8_EEE9SelectKeyESF_SH_E12test_deletedERK30dense_hashtable_const_iteratorIS8_S6_SB_SJ_SF_SH_E
iGe:_Directory_GetFiles_m4036267478
tN:__Z64AnimationOffsetPlayable_CUSTOM_INTERNAL_CALL_GetRotationInternalR9HPlayableR11Quaternionf
wze:_NumberFormatInfo_get_CurrencyNegativePattern_m3972163809
KRa:__ZL19BlitFramebufferImplRN4gles23BlitFramebufferDrawQuadER9GfxDevice9TextureIDRK8Vector4f
DPb:__Z18Transfer_BlittableI17RemapPPtrTransferLb0EhEvRK29SerializationCommandArgumentsR31RuntimeSerializationCommandInfo
BKj:__ZN15dense_hashtableINSt3__24pairIK10KeyWrapperIPK10Il2CppTypeEjEES6_N6il2cpp8metadata14Il2CppTypeHashEN14dense_hash_mapIS6_jSB_NS6_14EqualsComparerINSA_26Il2CppTypeEqualityComparerEEENS0_9allocatorIS8_EEE9SelectKeyESF_SH_E4findERS7_
C_g:__Z83RuntimeInvoker_Void_t1841601450_QuaternionU26_t4187826802_QuaternionU26_t4187826802PFvvEPK10MethodInfoPvPS4_
Sff:_ReadOnlyCollection_1_System_Collections_IList_Add_m2333231354_gshared
GVc:_UNITY_FT_List_Add
abg:_OpCodes__cctor_m939885911
EN:__Z87Register_UnityEngine_Animations_AnimationPlayableOutput_INTERNAL_CALL_InternalGetTargetv
pAf:_PKCS1_RSASP1_m1748738009
Zub:__ZN12CubemapArray21AwakeFromLoadThreadedEv
fHg:_PlayableHandle_CompareVersion_m276961171
J3i:_UriParser_InitializeAndValidate_m251943319
aod:_SymmetricAlgorithm_set_Padding_m3081984460
bGb:__ZN9InputAxis8TransferI18StreamedBinaryReadILb0EEEEvRT_
l0f:_StreamingContext_t1417235061_marshal_pinvoke_back
tXd:_ArrayList_RemoveAt_m2578928333
jNb:__Z18Transfer_BlittableI14SafeBinaryReadLb0EaEvRK29SerializationCommandArgumentsR31RuntimeSerializationCommandInfo
kTh:__ZL92PointerEventData_t1599784723_CustomAttributesCacheGenerator_U3CworldNormalU3Ek__BackingFieldP21CustomAttributesCache
Yef:_ReadOnlyCollection_1_System_Collections_IList_set_Item_m1233322304_gshared
Wbj:_GeneralNames_get_DNSNames_m2721668874
MUg:__Z76RuntimeInvoker_Boolean_t3825574718_TimeSpan_t3430258949_TimeSpan_t3430258949PFvvEPK10MethodInfoPvPS4_
cde:_Enum_System_IConvertible_ToByte_m38374586
Gef:_ReadOnlyCollection_1_System_Collections_Generic_IListU3CTU3E_RemoveAt_m1592158292_gshared
H3f:_PlatformNotSupportedException__ctor_m3301654967
Dok:_emscripten_glFrustum__wrapper
PJh:__ZL126AnimatorControllerPlayable_t1744083903_CustomAttributesCacheGenerator_AnimatorControllerPlayable_CrossFadeInternal_m1115142950P21CustomAttributesCache
QHf:_ReceiveRecordAsyncResult_get_CompletedWithError_m2670396551
jdh:__Z37RuntimeInvoker_Enumerator_t2983962278PFvvEPK10MethodInfoPvPS4_
pae:_Decimal_Equals_m1798565377
xsb:__ZN17GlobalGameManager8TransferI24GenerateTypeTreeTransferEEvRT_
f5g:__Z38RuntimeInvoker_ContentType_t1028629049PFvvEPK10MethodInfoPvPS4_
xWh:__ZL66InputField_t1631627530_CustomAttributesCacheGenerator_m_CaretColorP21CustomAttributesCache
Ofc:__ZNSt3__26vectorINS_4pairI11ShaderTagIDS2_EENS_9allocatorIS3_EEE6assignIPS3_EENS_9enable_ifIXaasr21__is_forward_iteratorIT_EE5valuesr16is_constructibleIS3_NS_15iterator_traitsISA_E9referenceEEE5valueEvE4typeESA_SA_
S7f:_TypeBuilder_check_created_m2929267877
Ov:__ZN19StreamedBinaryWriteILb0EE8TransferIKN4math7_float3EEEvRT_PKc17TransferMetaFlags
Y0a:__Z20SyncFenceCullResultsR11CullResults
fTa:__ZN15TextureTFMethod20IsBoneCountSupportedEi
wM:__ZN26AnimatorControllerPlayable9GotoStateEiifff
Pxg:_GUISkin_set_horizontalScrollbarThumb_m2119687595
_ie:_PlayableHandle_IsPlayableOfType_TisAudioMixerPlayable_t1831808911_m1065481197_AdjustorThunk
Ktb:__ZN14RenderSettings23VirtualRedirectTransferER24GenerateTypeTreeTransfer
q7d:_DateTime_System_IConvertible_ToSByte_m2575078084_AdjustorThunk
VQb:__Z22TransferField_NonArrayI17RemapPPtrTransfer27Converter_SimpleNativeClassI8GUIStyleEEvRK23StaticTransferFieldInfoR31RuntimeSerializationCommandInfoRT0_
Zui:_AnimatorStateInfo_IsTag_m1529621725_AdjustorThunk
X7b:__ZNK17AnimationCurveTplIfE20EvaluateWithoutCacheEfRf
S1j:__ZN6il2cpp2os6Thread12QueueUserAPCEPFvPvES2_
Ita:__ZN19ShaderPropertySheet10SetTextureERK23FastTexturePropertyNameP7Texture
Ije:_Array_InternalArray__IEnumerable_GetEnumerator_TisDictionaryEntry_t3048875398_m3498834924_gshared
AAg:_GUIStyleState__ctor_m3611888666
Z7e:_Collection_1_IsValidItem_m1304951912_gshared
pfc:__ZN4Mesh10SetNormalsEPK8Vector3fj
Ieg:_PropertyInfo__ctor_m1808219471
oSc:__Z66Register_UnityEngine_Physics2D_INTERNAL_CALL_GetRayIntersectionAllv
z3d:_Convert_ToDateTime_m4161927553
Y7f:_TypeBuilder_GetConstructors_m774120094
MLh:__ZL87Canvas_t209405766_CustomAttributesCacheGenerator_Canvas_set_overrideSorting_m3982973573P21CustomAttributesCache
s3j:__ZNSt3__212basic_stringIDsNS_11char_traitsIDsEENS_9allocatorIDsEEE9__grow_byEjjjjjj
ot:__ZN17AnimationCurveTplIfE8TransferI14SafeBinaryReadEEvRT_
ORg:__Z75RuntimeInvoker_Boolean_t3825574718_RuntimeObject_MonoIOErrorU26_t1029615899PFvvEPK10MethodInfoPvPS4_
$1i:_RegularExpression_set_GroupCount_m2991393456
Iee:_Calendar_get_EraNames_m452820602
vzb:__ZNSt3__26vectorIN15QualitySettings14QualitySettingENS_9allocatorIS2_EEE6assignIPS2_EENS_9enable_ifIXaasr21__is_forward_iteratorIT_EE5valuesr16is_constructibleIS2_NS_15iterator_traitsIS9_E9referenceEEE5valueEvE4typeES9_S9_
lob:__ZNK5Unity9Component10GetEnabledEv
p2a:__ZNK19ShaderPropertySheet11HasPropertyERKN9ShaderLab16FastPropertyNameE
b7d:_DateTime_System_IConvertible_ToByte_m2670443498_AdjustorThunk
p5:__GLOBAL__sub_I_runtime_utilities4_lump_cpp
xGj:_il2cpp_class_get_image
mda:__Z16AsyncReadRequestP16AsyncReadCommand
Wyh:__ZL81BigInteger_t925946153_CustomAttributesCacheGenerator_BigInteger__ctor_m4013661868P21CustomAttributesCache
gyf:_BigInteger_op_Addition_m1734797151
zXe:_List_1_CheckMatch_m1814522134_gshared
W6e:_Collection_1_System_Collections_IList_set_Item_m3488446830_gshared
r8f:_EnumBuilder_CreateNotSupportedException_m62763134
qgd:__ZNK12HeaderHelper3GetERKN4core12basic_stringIcNS0_20StringStorageDefaultIcEEEE
SQf:_X509Chain_CheckRevocation_m2480313486
bMe:_Math_Log_m3371716878
_ug:_GUILayoutUtility_Layout_m3812180708
UFb:__ZN9InputAxis8TransferI14SafeBinaryReadEEvRT_
taa:__ZNK21ExecutionOrderManager30GetCustomAwakeFromLoadQueueForEPKN5Unity4TypeE
Gfd:__Z27RegisterModule_UnityConnectv
__d:_Hashtable__ctor_m4280223555
cmg:_Scheduler_Remove_m1930366072
oyi:_Bounds_get_size_m1728027642_AdjustorThunk
kYf:_RealProxy__ctor_m3041043303
Fxe:_NumberFormatter_Init_m2654758994
tjd:_HMACSHA1__ctor_m1168389339
FDh:__ZL100Input_t1785128008_CustomAttributesCacheGenerator_Input_INTERNAL_get_compositionCursorPos_m2426914348P21CustomAttributesCache
YMc:__ZNK17Physics2DSettings22GetTypeVirtualInternalEv
fN:__Z96Register_UnityEngine_Animations_AnimationClipPlayable_INTERNAL_CALL_SetRemoveStartOffsetInternalv
xU:__ZN10ObjectPoolIN4FMOD12ChannelGroupENS0_13ChannelGroupIEE7SetSizeEi
aqf:_PrimalityTest_BeginInvoke_m966469054
xif:_ReadOnlyCollection_1_System_Collections_Generic_ICollectionU3CTU3E_Clear_m1785953911_gshared
urg:_UInt64_System_IConvertible_ToInt16_m2797150165_AdjustorThunk
Eve:_Array_InternalArray__get_Item_TisLabelData_t3712112744_m863115768_gshared
dDe:_Int32_Parse_m753946802
ev:__ZN18StreamedBinaryReadILb0EE21TransferSTLStyleArrayI22OffsetPtrArrayTransferIN7mecanim9animation10ValueDeltaEEEEvRT_17TransferMetaFlags
q5b:__ZN9Polygon2D7SetPathEiRK13dynamic_arrayI8Vector2fLj4EE
c6:__Z22ValidateTlsfAllocationPvjiS_
r1e:_List_1_RemoveAt_m2331128844_gshared
Qqi:_AnimatorControllerPlayable_GetFloatString_m3678921564
Ibg:_UnmanagedMarshal_ToMarshalAsAttribute_m3695569337
GOb:__Z14resize_trimmedINSt3__26vectorI17AnimationCurveTplIfE13stl_allocatorIS3_L18MemLabelIdentifier1ELi16EEEEEvRT_j
jeb:__ZN25CameraStackRenderingState19SetupLastEyeCamerasERK11CameraStack
ckc:__Z12GUIDToStringRK9UnityGUID
xid:__GLOBAL__sub_I_runtime_vr_plugininterface_lump_cpp
SOd:_LayoutElement_get_minHeight_m2070403283
LQ:__ZN11SoundHandleC2ERKS_
Uei:_Mask_OnEnable_m501850981
iAf:_RSASslSignatureFormatter__ctor_m2530528184
szi:_Canvas_get_targetDisplay_m316548313
cO:__Z75AnimatorControllerPlayable_CUSTOM_INTERNAL_CALL_GetAnimatorClipInfoInternalR9HPlayableihP12Il2CppObject
Hpf:_BigInteger_op_Addition_m1196561843
Pjb:__Z29StdTemplateConversionFunctionItxEbPvR14SafeBinaryRead
zWi:_FormatterData__ctor_m3974986124
Wkh:__ZL64FileNotFoundException_t4200667904_CustomAttributesCacheGeneratorP21CustomAttributesCache
Tkd:_RijndaelManagedTransform_get_CanReuseTransform_m3735256596
v_d:_Comparer__cctor_m1327316974
dGe:_MonoIO_ExistsFile_m1421941572
A8d:_DateTime_op_GreaterThanOrEqual_m3818963848
ZGa:__ZNSt3__26__treeINS_12__value_typeI18VertexChannelsInfoP17VertexDeclarationEENS_19__map_value_compareIS2_S5_NS_4lessIS2_EELb1EEE13stl_allocatorIS5_L18MemLabelIdentifier14ELi16EEE12__find_equalIS2_EERPNS_16__tree_node_baseIPvEENS_21__tree_const_iteratorIS5_PNS_11__tree_nodeIS5_SG_EEiEESJ_RKT_
Fz:__ZN17AnimationPlayable18DeallocateBindingsEv
khb:__ZN6Camera25StandaloneRenderToCubemapEP7TextureiPFvPK9SceneNodePK4AABBR9IndexListPvESA_j
MFd:_DefaultControls_SetDefaultTextValues_m1707718380
LBd:_TouchInputModule_UseFakeInput_m2112019004
Mxd:_EventSystem_get_baseEventDataCache_m4294741599
Ptb:__ZN14RenderSettings18TransferDeprecatedI14SafeBinaryReadEEvRT_
qOh:__ZL85GUIStyle_t1799908754_CustomAttributesCacheGenerator_GUIStyle_Internal_Draw_m694122665P21CustomAttributesCache
K6:__ZN12TLSAllocatorI14StackAllocatorE8AllocateEji
oba:__ZN16ScriptingManager18GetMonoScriptCacheEi
cPg:__Z62RuntimeInvoker_Void_t1841601450_RuntimeObject_Int64_t909078037PFvvEPK10MethodInfoPvPS4_
awg:_GUIStyle_get_stretchHeight_m3396762700
pxj:__ZN15dense_hashtableINSt3__24pairIK10KeyWrapperIPK11Il2CppClassEPKcEES6_N6il2cpp5utils11PointerHashIS3_EEN14dense_hash_mapIS6_S9_SE_NS6_14EqualsComparerINS0_8equal_toIS5_EEEENS0_9allocatorISA_EEE9SelectKeyESJ_SL_E15set_deleted_keyERKSA_
TJd:_GridLayoutGroup_CalculateLayoutInputHorizontal_m2355123124
Izh:__ZL84Locale_t4255929017_CustomAttributesCacheGenerator_Locale_GetText_m512920887____args1P21CustomAttributesCache
qNb:__Z18Transfer_BlittableI14SafeBinaryReadLb1EyEvRK29SerializationCommandArgumentsR31RuntimeSerializationCommandInfo
WRh:__ZL89U3CInvokeMessageIdSubscribersU3Ec__AnonStorey0_t1899782350_CustomAttributesCacheGeneratorP21CustomAttributesCache
Syc:__ZN8JSONRead8TransferIfEEvRT_PKc17TransferMetaFlagsb
iJ:__ZN25RuntimeAnimatorController8TransferI17RemapPPtrTransferEEvRT_
YBi:_Coroutine__ctor_m1253937571
pjf:_ReadOnlyCollection_1_System_Collections_ICollection_get_IsSynchronized_m4063596282_gshared
iTd:__ZN21InterfaceFuncInvoker2IP12Il2CppObjectP6Type_tS1_E6InvokeEjP11Il2CppClassS1_S3_S1_
Sjk:__ZNSt3__212basic_stringIcNS_11char_traitsIcEENS_9allocatorIcEEE6appendEPKcj
Olh:__ZL54TypeBuilder_t3308873219_CustomAttributesCacheGeneratorP21CustomAttributesCache
aya:__ZN6prcoreL17RemapGenericFloatI18TexFormatARGBFloat17TexFormatRGBAHalfEEvPKNS_9InnerInfoE
x9e:_Collection_1_CheckWritable_m691269733_gshared
_V:__ZN11AudioSource21ApplyCachedParametersE12SoundChannel
fdh:__Z54RuntimeInvoker_Void_t1841601450_IntPtr_t_RuntimeObjectPFvvEPK10MethodInfoPvPS4_
V8f:_GenericTypeParameterBuilder_GetAttributeFlagsImpl_m3338182267
j0:__ZN13Simd4iFactoryIN6detail9FourTupleEEC2Eiiii
yKe:_SynchronizedReader__ctor_m1408327515
afj:_X509Store_LoadCrl_m1146720614
Y8g:__Z59RuntimeInvoker_Int32_t2071877448_KeyValuePair_2_t3749587448PFvvEPK10MethodInfoPvPS4_
pkf:_ReadOnlyCollection_1_System_Collections_IList_Clear_m1858417639_gshared
c0d:_Slot_t2022531261_marshal_pinvoke_cleanup
Bvi:_LogCallback__ctor_m898185969
sxb:__ZN15SerializeTraitsI33EnlightenTerrainChunksInformationE8TransferI14SafeBinaryReadEEvRS0_RT_
HPc:__ZN6b2Body12SetTransformERK6b2Vec2f
Eac:__ZNK32RendererMaterialAnimationBinding9BindValueER6ObjectRKN11UnityEngine9Animation14GenericBindingERNS3_10BoundCurveE
wub:__Z13GetIAnimationv
YCa:__ZL18stbir__support_onef
iWe:_List_1_System_Collections_IList_Remove_m2040310137_gshared
QZi:_Match_get_Regex_m3526002767
glh:__ZL49Stream_t3255436806_CustomAttributesCacheGeneratorP21CustomAttributesCache
qLg:__Z48RuntimeInvoker_Boolean_t3825574718_RuntimeObjectPFvvEPK10MethodInfoPvPS4_
_Ac:__Z26Transfer_UnityEngineObjectI9JSONWriteLb0EEvRK29SerializationCommandArgumentsR31RuntimeSerializationCommandInfo
Ioa:__ZN9ShaderLab4Pass9ApplyPassEjPK19ShaderPropertySheetR17ShaderPassContextP6ShaderiPKNS_10GrabPassesEPNS_11SubProgramsE
Hua:__ZNSt3__26vectorIN4core12basic_stringIcNS1_20StringStorageDefaultIcEEEE13stl_allocatorIS5_L18MemLabelIdentifier1ELi16EEE6assignINS_11__wrap_iterIPS5_EEEENS_9enable_ifIXaasr21__is_forward_iteratorIT_EE5valuesr16is_constructibleIS5_NS_15iterator_traitsISF_E9referenceEEE5valueEvE4typeESF_SF_
Bqg:_UInt32_System_IConvertible_ToInt16_m2251335934_AdjustorThunk
D7c:__ZNSt3__27__sort5IRNS_6__lessIN2UI14DepthSortEntryES3_EEPS3_EEjT0_S7_S7_S7_S7_T_
USd:_Boolean_System_IConvertible_ToType_m3990189691
kMj:__ZNSt3__218uninitialized_copyIPNS_4pairIK10KeyWrapperINS1_IPK11Il2CppImageP11Il2CppClassEEEjEESC_EET0_T_SE_SD_
Ca:invoke_vdd
En:FUNCTION_TABLE_fiii
RMi:_InternalEnumerator_1_Dispose_m3838127340_AdjustorThunk
Cce:_Double_System_IConvertible_ToUInt32_m624993430
Hn:FUNCTION_TABLE_fiif
pTh:__ZL89PointerEventData_t1599784723_CustomAttributesCacheGenerator_U3CdraggingU3Ek__BackingFieldP21CustomAttributesCache
U8b:__ZNK30SpriteRendererAnimationBinding12GetPPtrValueERKN11UnityEngine9Animation10BoundCurveE
s5c:__ZZ29InitializeTextRenderingModulevEN27cleanupAfterLoadRegistrator7ForwardEv
amg:_Scheduler_Add_m376749205
AA:__ZN27AnimationLayerMixerPlayable24ProcessAnimationLayerMixEP33AnimationPlayableEvaluationOutputP35AnimationPlayableEvaluationConstantP32AnimationPlayableEvaluationInputS1_if
Idb:__Z29PluginsIssueRenderingExtEvent26UnityRenderingExtEventTypePv
lXj:__ZN15dense_hashtableINSt3__24pairIK10KeyWrapperINS1_IPKcS4_EEEiEES6_24NamespaceAndNamePairHashN14dense_hash_mapIS6_iS9_NS6_14EqualsComparerI26NamespaceAndNamePairEqualsEENS0_9allocatorIS8_EEE9SelectKeyESD_SF_E12resize_deltaEjj
TOi:_InternalEnumerator_1_Dispose_m3464626239_AdjustorThunk
E9b:__Z14RandomRotationP9Texture2DPhiiii
lZf:_SingleCallIdentity__ctor_m1512303454
tLi:_InternalEnumerator_1_MoveNext_m1594563423_AdjustorThunk
qnf:_SimpleCollator_IsIgnorable_m2485013022
QLh:__ZL86Canvas_t209405766_CustomAttributesCacheGenerator_Canvas_get_sortingLayerID_m1396307660P21CustomAttributesCache
U_e:_List_1_System_Collections_IList_Insert_m2036969360_gshared
tNd:_InputField_GetUnclampedCharacterLineFromPosition_m1912794077
Nri:_AnimatorControllerPlayable_SetTrigger_m2446912300
zHe:_ReadDelegate__ctor_m885671467
Z8d:_DateTimeOffset_ToString_m2121173678_AdjustorThunk
rzh:__ZL50X509Crl_t1699034837_CustomAttributesCacheGeneratorP21CustomAttributesCache
aXg:__Z74RuntimeInvoker_RuntimeObject_RuntimeObject_Int16_t4041245914_RuntimeObjectPFvvEPK10MethodInfoPvPS4_
YMa:__ZN4gles14UseGLSLProgramER15DeviceStateGLESjbij
Iuk:_glDeleteProgram__wrapper
Elc:__Z50Register_UnityEngine_Camera_INTERNAL_get_pixelRectv
aIh:__ZL119AudioClipPlayable_t192218916_CustomAttributesCacheGenerator_AudioClipPlayable_INTERNAL_CALL_GetClipInternal_m2079955679P21CustomAttributesCache
sxa:__ZN6prcoreL18BlitFloatToIntegerERK14ImageReferenceRS0_
Bvf:_X509CertificateCollection_get_Item_m410866272
hwg:_Rect_get_yMax_m2915146103
Xlj:_EqualityComparer_1_System_Collections_IEqualityComparer_Equals_m1705945391_gshared
$Pc:__ZN7b2Timer5ResetEv
u3:__ZN11UnityEngine15CloudWebService14RestDownloader17OnCompleteContentEv
lKd:_LayoutGroup_SetChildAlongAxis_m1615929339
eXg:__Z75RuntimeInvoker_RuntimeObject_RuntimeObject_Double_t4078015681_RuntimeObjectPFvvEPK10MethodInfoPvPS4_
tWg:__Z200RuntimeInvoker_Boolean_t3825574718_RuntimeObject_RuntimeObject_RuntimeObject_Int32_t2071877448_DateTimeU26_t3448131235_SByte_t454417549_BooleanU26_t3168250738_SByte_t454417549_ExceptionU26_t1467204777PFvvEPK10MethodInfoPvPS4_
Ta:invoke_viffi
hia:__ZNSt3__26vectorI20ProcessCallbackGroupNS_9allocatorIS1_EEEC2ERKS4_
yC:__ZN17AnimationPlayable28UpdateInternalStateRecursiveILi1ELb0EEEvPK35AnimationPlayableEvaluationConstant
P1e:_List_1_System_Collections_ICollection_get_SyncRoot_m1429670979_gshared
Wa:invoke_vifff
lGi:_InternalEnumerator_1__ctor_m2111763266_gshared
qoc:__Z53Register_UnityEngine_Input_INTERNAL_get_mousePositionv
utk:_glGetVertexAttribiv__wrapper
_e:_emscripten_request_fullscreen
YJg:_Rect_get_xMin_m1161102488
ama:__ZN20LocalFileSystemWebGL6DeleteER13FileEntryDatab
bae:_Decimal_System_IConvertible_ToUInt16_m1621568250
af:_emscripten_glDisableVertexAttribArray
YFh:__ZL79Object_t1021602117_CustomAttributesCacheGenerator_Object_Instantiate_m938141395P21CustomAttributesCache
Xm:FUNCTION_TABLE_iiiifiiii
Xmg:_TimeSpan_get_TotalMinutes_m1645177229_AdjustorThunk
wc:invoke_fifffi
z4h:_Enumerator__ctor_m3539306986_gshared
SNa:__ZN4gles23ClearCurrentFramebufferEP7ApiGLESbbbRK10ColorRGBAffi
$A:__ZN7mecanim12statemachine20CreateStateWorkspaceEjjjRNS_6memory9AllocatorE
Qqf:__ZN21InterfaceFuncInvoker3IP22ByteU5BU5D_t3397334013S1_iiE6InvokeEjP11Il2CppClassP12Il2CppObjectS1_ii
kHi:_InternalEnumerator_1_System_Collections_IEnumerator_get_Current_m3680087284_gshared
mf:_emscripten_glDeleteObjectARB
HPa:__Z14DecompressDXT3iiiPKjPj
oLe:_UnexceptionalStreamReader_Read_m3839775235
Iya:__ZN6prcoreL27StretchGenericFloatBilinearI18TexFormatARGBFloatEEvPKNS_9InnerInfoE
Yrc:__Z53Register_UnityEngine_RenderTexture_Internal_GetHeightv
Bwe:_Dropdown_GetOrAddComponent_TisRuntimeObject_m2875934266_gshared
yYf:_RealProxy_SetTargetDomain_m3940877656
vHh:__ZL97Physics2D_t2540166467_CustomAttributesCacheGenerator_Physics2D_Linecast_m3607674036____layerMask2P21CustomAttributesCache
tya:__ZN6prcoreL17RemapGenericFloatI17TexFormatRGBAHalf18TexFormatARGBFloatEEvPKNS_9InnerInfoE
ide:_Enum_System_IConvertible_ToInt32_m2459904362
cvc:__ZNK8GUIStyle21DrawWithTextSelectionER8GUIStateRK5RectTIfER10GUIContentbbbbbiiRK10ColorRGBAfSA_
hXg:__Z61RuntimeInvoker_RuntimeObject_Double_t4078015681_RuntimeObjectPFvvEPK10MethodInfoPvPS4_
lPc:__ZNSt3__27__sort4IRN18Overlap2DQueryBase29ColliderHitsByDepthComparitorEPP10Collider2DEEjT0_S7_S7_S7_T_
qvc:__Z14GetBuiltinSkini
Wvd:_DecoderReplacementFallbackBuffer_Reset_m2576819665
PNi:_InternalEnumerator_1_MoveNext_m607849555_AdjustorThunk
Iwd:_BaseInput_set_compositionCursorPos_m2632248731
znj:_Enumerator_System_Collections_IEnumerator_Reset_m2573763156_gshared
TFe:_DirectoryInfo_Initialize_m2216118894
Hqd:_WindowsIdentity_Dispose_m2649088337
J3b:__ZN2UI13RectTransform23VirtualRedirectTransferER14SafeBinaryRead
vgj:_InvokableCall_1__ctor_m54675381_gshared
L6e:_Collection_1_System_Collections_IList_Contains_m323652826_gshared
wTe:_List_1_System_Collections_ICollection_get_SyncRoot_m3733894943_gshared
EZe:_List_1_Reverse_m302978607_gshared
l0b:__ZNSt3__26vectorIN9ShaderLab20SerializedSubProgramENS_9allocatorIS2_EEE6assignIPS2_EENS_9enable_ifIXaasr21__is_forward_iteratorIT_EE5valuesr16is_constructibleIS2_NS_15iterator_traitsIS9_E9referenceEEE5valueEvE4typeES9_S9_
ZCc:__Z18Transfer_BlittableI8JSONReadLb0E8BitFieldEvRK29SerializationCommandArgumentsR31RuntimeSerializationCommandInfo
xZf:_SoapServices_RegisterInteropXmlType_m2949236705
bLj:__ZNK15dense_hashtableINSt3__24pairIK10KeyWrapperIPK10Il2CppTypeEjEES6_N6il2cpp8metadata14Il2CppTypeHashEN14dense_hash_mapIS6_jSB_NS6_14EqualsComparerINSA_26Il2CppTypeEqualityComparerEEENS0_9allocatorIS8_EEE9SelectKeyESF_SH_E10test_emptyERK24dense_hashtable_iteratorIS8_S6_SB_SJ_SF_SH_E
ZVb:__ZL17Transfer_GUIStyleI18StreamedBinaryReadILb1EELb0EEvRK29SerializationCommandArgumentsR31RuntimeSerializationCommandInfo
Rud:_String_CharCopy_m2550399897
lZg:__Z234RuntimeInvoker_RuntimeObject_Int16_t4041245914_RuntimeObject_Int32_t2071877448_Int32_t2071877448_Int32_t2071877448_SByte_t454417549_SByte_t454417549_SByte_t454417549_SByte_t454417549_Int16_t4041245914_SByte_t454417549_SByte_t454417549PFvvEPK10MethodInfoPvPS4_
u_b:__ZN9ShaderLab14SerializedPass8TransferI14SafeBinaryReadEEvRT_
iwc:__Z71Register_UnityEngine_GUILayoutUtility_INTERNAL_CALL_Internal_MoveWindowv
QZ:__ZN12AudioManager16SetListenerPauseEb
hLc:__ZNSt3__26__sortIRN10ClipperLib12LocMinSorterEPNS1_12LocalMinimumEEEvT0_S6_T_
HTj:__ZN6il2cpp2vm9Exception25RaiseOutOfMemoryExceptionERKNS_5utils10StringViewIDsEE
m7e:_Collection_1_IsValidItem_m2254106115_gshared
f8f:_TypeBuilder_GetEvent_m3876348075
Hli:_Slider_OnMove_m641164662
ea:invoke_viiiiiiiiiii
sgk:___syscall_ret
dmg:_Scheduler__ctor_m3716265742
Fsf:_MACAlgorithm_Final_m4076939925
u5b:__ZN14qsort_internal30FindAndMovePivotToLastPositionIP8Vector2fi26PointDistanceSortPredicateEEvT_S4_T0_T1_
SGf:_TlsServerKeyExchange_ProcessAsSsl3_m462106368
SAb:__ZN11ChannelInfo8TransferI19StreamedBinaryWriteILb0EEEEvRT_
SGi:_InternalEnumerator_1_System_Collections_IEnumerator_get_Current_m3583252352_gshared
I7f:_EnumBuilder_get_FullName_m2818393911
W4a:__ZN14qsort_internal13Partition3WayIP17RODataReplacementi19ROSorterReplacementEENSt3__24pairIT_S6_EES6_S6_T0_T1_
xJe:_StreamAsyncResult_get_Done_m2858832609
Hnc:__Z34Register_UnityEngine_Gradient_Initv
lkj:_ObjectPool_1_set_countAll_m1742773675_gshared
V$f:_SerializationEntry_get_Value_m1628109884_AdjustorThunk
jxd:_BaseInputModule_GetAxisEventData_m3903709281
Tve:_Array_InternalArray__get_Item_TisUriScheme_t1876590943_m1821482697_gshared
jxf:_BigInteger__ctor_m3239748086
xla:__ZN13ScreenManager23SetIsOrientationEnabledE18EnabledOrientationb
kpj:__ZL24UnresolvedVirtualCall_57P12Il2CppObjectiPK10MethodInfo
yfk:_U3CReadScoresFromDBU3Ec__Iterator2__ctor_m1703987519
rvh:__ZL79Convert_t2607082565_CustomAttributesCacheGenerator_Convert_ToUInt16_m1043031438P21CustomAttributesCache
GA:__ZN7mecanim5human25HumanPoseAddOverrideLayerERNS0_9HumanPoseERKS1_fRKNS_6bitsetILj70EEE
R7b:__ZN13ProduceHelperI9TransformLb0EE7ProduceE18MemLabelIdentifier18ObjectCreationMode
$xc:__Z45Register_UnityEngine_GUIStyle_GetFontInternalv
ioi:_AnimationEvent_set_floatParameter_m4139544688
aZg:__Z42RuntimeInvoker_AlertDescription_t844791462PFvvEPK10MethodInfoPvPS4_
ss:__ZNSt3__26vectorI14AnimationEvent13stl_allocatorIS1_L18MemLabelIdentifier25ELi16EEE7reserveEj
Cai:_DefaultComparer_GetHashCode_m2506382068_gshared
BBi:_Component_SendMessageUpwards_m19741277
qei:_EqualityComparer_1_System_Collections_IEqualityComparer_GetHashCode_m1012273405_gshared
doe:_Array_InternalArray__ICollection_Add_TisHitInfo_t1761367055_m2956071622_gshared
lNi:_InternalEnumerator_1_MoveNext_m470170271_AdjustorThunk
Fgb:__ZN10GameObject23VirtualRedirectTransferER18StreamedBinaryReadILb0EE
WQe:_Enumerator_get_Current_m2577424081_gshared
rQi:_InternalEnumerator_1_Dispose_m2270401482_AdjustorThunk
Bg:_glFrontFace
s$f:_ObjectRecord_get_IsUnsolvedObjectReference_m2202692850
tTf:_FactoryCache_Cleanup_m4130035987
dXi:__ZN23InterfaceActionInvoker1IP18Context_t502196753E6InvokeEjP11Il2CppClassP12Il2CppObjectS1_
fM:__ZN26AnimatorControllerPlayable14SetLayerWeightEif
P6b:__ZN13ProduceHelperI19LowerResBlitTextureLb0EE7ProduceE18MemLabelIdentifier18ObjectCreationMode
_9a:__ZNSt3__26vectorI16ShadowCasterData13stl_allocatorIS1_L18MemLabelIdentifier2ELi16EEE21__push_back_slow_pathIKS1_EEvRT_
Oie:_PlayableHandle_IsPlayableOfType_TisAnimationClipPlayable_t4099382200_m682525715_AdjustorThunk
jhj:_UnityAction_1_Invoke_m1279802577_gshared
drg:_UInt32_ToString_m1783596809
Z3i:_Vector3_get_forward_m1201659139
q2e:_List_1_Sort_m269561757_gshared
tOh:__ZL110GUIStyle_t1799908754_CustomAttributesCacheGenerator_GUIStyle_INTERNAL_CALL_Internal_DrawPrefixLabel_m557487542P21CustomAttributesCache
$5c:__Z51Register_UnityEngine_TextGenerator_GetLinesInternalv
Unj:_HashSet_1_Init_m1258286688_gshared
Dvf:_X509CertificateEnumerator_System_Collections_IEnumerator_get_Current_m1643583406
Yff:_ReadOnlyCollection_1_System_Collections_IList_RemoveAt_m525136953_gshared
wle:__ZN21InterfaceFuncInvoker1Ii19Vector4_t2243707581E6InvokeEjP11Il2CppClassP12Il2CppObjectS0_
FAi:_Collision2D_get_gameObject_m4234358314
Kxa:__ZN6prcoreL17RemapGenericFloatI17TexFormatRGBFloat18TexFormatRGBAFloatEEvPKNS_9InnerInfoE
irg:_UInt64_System_IConvertible_ToBoolean_m3012279573_AdjustorThunk
Xog:_Type_get_IsGenericTypeDefinition_m2147901038
SYa:__ZN12HandlerChain10ToAbsoluteEPKc
AXi:_ContextAttribute_Freeze_m4133346275
bxe:_GregorianCalendar__ctor_m3794576475
_qg:_UInt32_TryParse_m4283512434
sNc:__ZN16PhysicsManager2D12BeginContactEP9b2Contact
sYj:__ZN15dense_hashtableI10KeyWrapperIP18Il2CppGenericClassES3_N6il2cpp8metadata22Il2CppGenericClassHashEN14dense_hash_setIS3_S6_NS3_14EqualsComparerINS5_25Il2CppGenericClassCompareEEENSt3__29allocatorIS3_EEE8IdentityESA_SD_E8min_sizeEjj
CQ:__ZN9AudioClip11CreateSoundEv
f2h:_ShimEnumerator_MoveNext_m3313047792_gshared
_7e:_Collection_1_ConvertItem_m2185647560_gshared
Cng:_TimeSpan_op_Inequality_m257547441
Kkg:_ExecutionContext_GetObjectData_m1456913356
MPj:__ZN14dense_hash_mapI10KeyWrapperINSt3__24pairIPK9FieldInfoP11Il2CppClassEEEj17ReflectionMapHashIS8_ENS9_14EqualsComparerINS1_8equal_toIS8_EEEENS1_9allocatorINS2_IKS9_jEEEEEC2EjRKSB_RKSF_
IEg:_Object_set_hideFlags_m2204253440
mLj:__ZNK15dense_hashtableINSt3__24pairIK10KeyWrapperINS1_IPK10MethodInfoP11Il2CppClassEEEjEES9_17ReflectionMapHashIS8_EN14dense_hash_mapIS9_jSD_NS9_14EqualsComparerINS0_8equal_toIS8_EEEENS0_9allocatorISB_EEE9SelectKeyESI_SK_E13find_positionERSA_
A7f:_EnumBuilder_get_Assembly_m4285228003
bLa:__ZN13GfxDeviceGLES20CreateComputeProgramEPKhj
lIg:_PlayableOutput__ctor_m3826671654
Wye:_DateTimeFormatInfo_get_RoundtripPattern_m562440017
cfd:__ZN11UnityEngine7Connect16PersistentValues13RestoreValuesER8JSONRead
y_a:__ZN20ArchiveStorageReader31TryToReadDirectoryFromBlockDataEyPKvj
Ebi:_DefaultComparer__ctor_m3947565964_gshared
hce:_Double_System_IConvertible_ToByte_m3004284950_AdjustorThunk
BZf:_TypeEntry_get_AssemblyName_m1762285107
uWj:__ZN6il2cpp2vmL11GetIdentityEP14Il2CppIUnknown
L6j:_GC_push_gc_structures
sCd:_AspectRatioFitter_get_aspectRatio_m3023618874
_Ej:__ZN6il2cpp6icalls8mscorlib6SystemL8IsPublicEPK9EventInfo
rVf:_Enumerator__ctor_m3782962052
kOj:__ZN15dense_hashtableINSt3__24pairIK10KeyWrapperIPK14Il2CppAssemblyEPK22Il2CppMonoAssemblyNameEES6_N6il2cpp5utils11PointerHashIS4_EEN14dense_hash_mapIS6_SA_SF_NS6_14EqualsComparerINS0_8equal_toIS5_EEEENS0_9allocatorISB_EEE9SelectKeyESK_SM_E4swapERSP_
e1d:_Enumerator_get_Current_m1271212567
W3j:__ZThn4_N6il2cpp2vm13ComObjectBase18ReleaseMarshalDataEP13Il2CppIStream
tUa:__Z22GetShaderCachePathGLESv
MVg:__Z51RuntimeInvoker_UInt16_t986882611_Double_t4078015681PFvvEPK10MethodInfoPvPS4_
xBg:_Input_set_compositionCursorPos_m1615567306
eNf:_IPAddress_ParseIPV6_m2209709575
lii:_U3CClickRepeatU3Ec__Iterator0_MoveNext_m1747924386
Jsj:_Comparison_1_Invoke_m1670081898_gshared
ani:_Toggle_set_group_m3833595685
MPd:_LayoutRebuilder_ForceRebuildLayoutImmediate_m566681977
jBb:__ZNSt3__213__stable_sortIRNS_4lessI4PPtrI11SpriteAtlasEEENS_11__wrap_iterIPS4_EEEEvT0_SA_T_NS_15iterator_traitsISA_E15difference_typeEPNSD_10value_typeEi
gUa:__ZNSt3__26vectorIPN19ConstantBuffersGLES11ConstBufferENS_9allocatorIS3_EEE21__push_back_slow_pathIKS3_EEvRT_
r1g:__Z74RuntimeInvoker_AnimatorControllerPlayable_t1744083903_Playable_t1896841784PFvvEPK10MethodInfoPvPS4_
loe:_Array_InternalArray__ICollection_Add_TisVector4_t2243707581_m698578249_gshared
k8:__ZN8keywords6CreateEPKc
S:Math_imul
Fyg:_GUIStyle_set_active_m2896743432
xFb:__ZN14SpriteRenderer15SetupPropertiesEv
Jzb:__ZN11PlayerPrefs6GetIntERKN4core12basic_stringIcNS0_20StringStorageDefaultIcEEEEi
Nzj:__ZN6il2cpp5utils13dynamic_arrayIPK10Il2CppTypeLj4EEC2ERKS5_
jrd:_SecurityFrame_t1002202659_marshal_pinvoke_back
J5c:__Z45TextGenerator_CUSTOM_INTERNAL_get_rectExtentsP12Il2CppObjectP5RectTIfE
DBf:_CertificateValidationCallback_Invoke_m2500463874
uOh:__ZL102GUIStyle_t1799908754_CustomAttributesCacheGenerator_GUIStyle_Internal_GetCursorFlashOffset_m3177259302P21CustomAttributesCache
jje:_SetPropertyUtility_SetStruct_TisChar_t3454481338_m2333420724_gshared
p7e:_Collection_1_IsSynchronized_m2601980439_gshared
z$d:_Hashtable_ContainsKey_m2716576664
r_i:_PatternCompiler_EmitCategory_m1696942454
mae:_Decimal_decimalFloorAndTrunc_m3655683429
Foe:_Array_InternalArray__ICollection_CopyTo_TisInt32_t2071877448_m984622488_gshared
a9:__ZN18ScriptingArguments9AddObjectE18ScriptingObjectPtr
M9c:__Z39CanvasGroup_Get_Custom_PropInteractableP12Il2CppObject
JMc:__ZN16CircleCollider2D23VirtualRedirectTransferER18StreamedBinaryReadILb0EE
WSh:__ZL97AxisEventData_t1524870173_CustomAttributesCacheGenerator_AxisEventData_get_moveVector_m1338727516P21CustomAttributesCache
gOa:__ZN17GenericDynamicVBOC2ER9GfxDevice13GfxBufferModejj
ZWi:_Context_get_HasDynamicSinks_m1998518649
zPc:__Z28GetPhysics2DScriptingClassesv
nuc:__ZZN10GUIManager14InitGUIManagerEvEN41PreUpdateIMGUISendQueuedEventsRegistrator7ForwardEv
Yri:_AnimatorControllerPlayable_ResetTrigger_m758725835_AdjustorThunk
Z1:__ZN11UnityEngine15CloudWebService17SessionEventQueue10PurgeItemsEj
w4i:_UpdatedEventHandler_BeginInvoke_m4238510153
nwd:_AbstractEventData_get_used_m4208553917
rfb:__ZN6Camera16StandaloneRenderENS_10RenderFlagEP6ShaderRKN4core12basic_stringIcNS3_20StringStorageDefaultIcEEEE
eQd:_Array_System_Collections_IList_get_Item_m2088124007
yQd:_Array_GetLength_m2083296647
Dkj:_SymmetricTransform_OFB_m397918932
osh:__ZL58SecurityElement_t2325568386_CustomAttributesCacheGeneratorP21CustomAttributesCache
mvb:__ZNK12CubemapArray13GetIsReadableEv
iZd:_SynchronizedArrayListWrapper_ToArray_m1522185111
tVb:__Z18Transfer_BlittableI18StreamedBinaryReadILb1EELb1EtEvRK29SerializationCommandArgumentsR31RuntimeSerializationCommandInfo
Mqd:_SecurityContext_get_FlowSuppressed_m420202521
nRg:__Z55RuntimeInvoker_DayOfWeek_t721777893_DateTime_t693205669PFvvEPK10MethodInfoPvPS4_
lJa:__ZN9GfxDevice20DeallocRenderSurfaceEP17RenderSurfaceBase
Ysg:_ValueType_ToString_m3796301715
B_h:__ZL127U3CShowReadyScreenU3Ec__Iterator0_t4161106453_CustomAttributesCacheGenerator_U3CShowReadyScreenU3Ec__Iterator0_Reset_m189089021P21CustomAttributesCache
NYj:__ZNK15dense_hashtableI10KeyWrapperIP18Il2CppGenericClassES3_N6il2cpp8metadata22Il2CppGenericClassHashEN14dense_hash_setIS3_S6_NS3_14EqualsComparerINS5_25Il2CppGenericClassCompareEEENSt3__29allocatorIS3_EEE8IdentityESA_SD_E12test_deletedEj
Hoc:__Z53Register_UnityEngine_Quaternion_INTERNAL_CALL_Inversev
Ore:_Array_qsort_TisUICharInfo_t3056636800_m2607408901_gshared
jvg:_GUILayoutGroup__ctor_m992523271
vqb:__ZN12BaseRenderer23RendererBecameInvisibleEv
ZTc:__ZN20TextRenderingPrivate8FontImpl13CharacterInfo8TransferI18StreamedBinaryReadILb0EEEEvRT_
_Sb:__Z29Transfer_Blittable_ArrayFieldI24GenerateTypeTreeTransferfEvRT_R9ArrayInfoRK23StaticTransferFieldInfo
yPg:__Z76RuntimeInvoker_RuntimeObject_RuntimeObject_SByte_t454417549_SByte_t454417549PFvvEPK10MethodInfoPvPS4_
eib:__ZN19CustomRenderTexture9AddParentE4PPtrIS_E
JHi:_InternalEnumerator_1_MoveNext_m930150026_AdjustorThunk
yyb:__ZN8Gradient8TransferI14SafeBinaryReadEEvRT_
Jij:_UnityEvent_1_Invoke_m1533100983_gshared
G$h:__ZL168U3CPlayDeadAnimationU3Ec__Iterator0_t561160527_CustomAttributesCacheGenerator_U3CPlayDeadAnimationU3Ec__Iterator0_System_Collections_IEnumerator_get_Current_m3175768844P21CustomAttributesCache
Gua:__ZNSt3__26vectorIN4core12basic_stringIcNS1_20StringStorageDefaultIcEEEE13stl_allocatorIS5_L18MemLabelIdentifier1ELi16EEE7reserveEj
uMf:_FileWebRequest__ctor_m4003648606
qYh:__ZL71SpriteState_t1353336012_CustomAttributesCacheGenerator_m_DisabledSpriteP21CustomAttributesCache
kde:_Enum_System_IConvertible_ToSByte_m3488526280
ybg:_TypeBuilder_ToString_m1952363535
cYi:_Identity_set_Disposed_m628843469
cEg:_MonoBehaviour_StopAllCoroutines_m1675795839
AEa:__ZN18IDCollectorFunctorD0Ev
SAj:__ZNK15dense_hashtableI10KeyWrapperIPK19Il2CppGenericMethodES4_N6il2cpp8metadata23Il2CppGenericMethodHashEN14dense_hash_setIS4_S7_NS4_14EqualsComparerINS6_26Il2CppGenericMethodCompareEEENSt3__29allocatorIS4_EEE8IdentityESB_SE_E4findERKS4_
uri:_AnimatorControllerPlayable_GetIntegerString_m2944800090
SFh:__ZL82Object_t1021602117_CustomAttributesCacheGenerator_Object_DestroyObject_m2343493981P21CustomAttributesCache
Vla:__ZNK20LocalFileSystemPosix9IsSymLinkERK13FileEntryData
F5j:_GC_new_free_list_inner
oai:_DefaultComparer_Equals_m85211180_gshared
cbf:_Collection_1_System_Collections_IList_IndexOf_m1950953062_gshared
xNe:_MonoType_InternalGetEvent_m532443236
X9e:_Collection_1_IndexOf_m2700825189_gshared
WRi:_Comparer_1_get_Default_m2605397692_gshared
S0g:__Z93RuntimeInvoker_Void_t1841601450_PlayableHandleU26_t4210769902_Int32_t2071877448_RuntimeObjectPFvvEPK10MethodInfoPvPS4_
OH:__ZN25RuntimeAnimatorController8TransferI14SafeBinaryReadEEvRT_
NDc:__ZN8JSONRead8TransferI10RectOffsetEEvRT_PKc17TransferMetaFlagsb
dXj:__ZNK15dense_hashtableINSt3__24pairIK10KeyWrapperINS1_IPKcS4_EEEiEES6_24NamespaceAndNamePairHashN14dense_hash_mapIS6_iS9_NS6_14EqualsComparerI26NamespaceAndNamePairEqualsEENS0_9allocatorIS8_EEE9SelectKeyESD_SF_E12test_deletedERK24dense_hashtable_iteratorIS8_S6_S9_SH_SD_SF_E
H1:__ZN9JSONWrite8TransferIN11UnityEngine15CloudWebService14DataErrorEvent15FileErrorDetailEEEvRT_PKc17TransferMetaFlags
rvd:_Decoder__ctor_m2623573910
mEa:__Z21ClearFenceWithoutSyncR8JobFence
Sgf:_ReadOnlyCollection_1_System_Collections_Generic_IListU3CTU3E_RemoveAt_m1731148677_gshared
sT:__ZN12SoundManager20RegisterModifiedClipEP10SampleClip
TV:__ZN11AudioSource4PlayEd
G_j:__ZN6il2cpp2vm6Object16GetVirtualMethodEP12Il2CppObjectPK10MethodInfo
aoj:_HashSet_1_Add_m199171953_gshared
Jyj:__ZN15dense_hashtableI10KeyWrapperIPK17Il2CppGenericInstES4_N6il2cpp8metadata21Il2CppGenericInstHashEN14dense_hash_setIS4_S7_NS4_14EqualsComparerINS6_24Il2CppGenericInstCompareEEENSt3__29allocatorIS4_EEE8IdentityESB_SE_E13set_empty_keyERKS4_
Ula:__ZNK20LocalFileSystemPosix8IsHiddenERK13FileEntryData
ldi:_EqualityComparer_1_System_Collections_IEqualityComparer_Equals_m3589836321_gshared
qsf:_SmallXmlParser_IsNameChar_m1561000202
odj:_X501__cctor_m2610532554
Qnh:__ZL95SafeHandle_t2733794115_CustomAttributesCacheGenerator_SafeHandle_DangerousGetHandle_m1328172664P21CustomAttributesCache
X8g:__Z48RuntimeInvoker_Int32_t2071877448_Link_t865133271PFvvEPK10MethodInfoPvPS4_
l1h:_Enumerator_VerifyState_m3173176371_gshared
Tud:_StringComparer__ctor_m2275216983
e3g:__Z83RuntimeInvoker_Void_t1841601450_RuntimeObject_Internal_DrawArgumentsU26_t3595831378PFvvEPK10MethodInfoPvPS4_
o1e:_List_1_CheckCollection_m2220107869_gshared
Mvb:__ZN7Cubemap23VirtualRedirectTransferER18StreamedBinaryReadILb0EE
SDf:_RecordProtocol_EncodeRecord_m3884270352
Ymd:_SHA256_Create_m896954069
L3c:_Read_CVT
p6d:_Convert_ToUInt32_m776714429
sXa:__ZN12FileAccessor4SeekEx10FileOrigin
URb:__ZL26Transfer_SimpleNativeClassI24GenerateTypeTreeTransfer17AnimationCurveTplIfELb0EEvRK29SerializationCommandArgumentsR31RuntimeSerializationCommandInfo
Gxb:__ZN24GenerateTypeTreeTransfer8TransferI13dynamic_arrayI33EnlightenTerrainChunksInformationLj4EEEEvRT_PKc17TransferMetaFlags
VBi:_Coroutine_t2299508840_marshal_pinvoke
lga:__ZN16LightmapSettings20DidChangeActiveSceneEP10UnitySceneS1_
s_h:__ZL59g_AssemblyU2DCSharp_Assembly_CustomAttributesCacheGeneratorP21CustomAttributesCache
mFj:__ZN6il2cpp5utils9PathUtils8BasenameIcEENSt3__212basic_stringIT_NS3_11char_traitsIS5_EENS3_9allocatorIS5_EEEERKSA_
JU:__ZN10AudioMixer11SetupGroupsEv
LEh:__ZL91Resources_t339470017_CustomAttributesCacheGenerator_Resources_GetBuiltinResource_m582410469P21CustomAttributesCache
Wvc:__Z35Register_UnityEngine_Event_get_typev
dtf:_PrivateKeyInfo_DecodeRSA_m1427048948
TTj:__ZN6il2cpp2vm9Exception23GetInvalidCastExceptionERKNS_5utils10StringViewIDsEE
qyf:_BigInteger_op_GreaterThanOrEqual_m2643115413
d4f:_Assembly_FillName_m1934025015
WEe:_IntPtr_op_Explicit_m1073656736
Itd:_String_IndexOf_m2126171214
sEe:_Int64_ToString_m1544341651_AdjustorThunk
zC:__ZN8Animator28BuildControllerPlayableCacheEv
rAe:_Guid_CheckNull_m2903986431
xxh:__ZL62CrossContextDelegate_t754146990_CustomAttributesCacheGeneratorP21CustomAttributesCache
dyi:_Bounds__ctor_m1202659404
iaa:__Z63ThreadAndSerializationSafeCheckGetMonoBehaviourBeingTransferredv
p8j:_GC_enable
NFf:_TlsClientCertificateVerify_ProcessAsSsl3_m3377063356
cBd:_StandaloneInputModule_set_repeatDelay_m2820945738
wGe:_EndOfStreamException__ctor_m4268387737
iqg:_UInt16_ToString_m4213290405
loc:__Z37Register_UnityEngine_Input_GetAxisRawv
eRh:__ZL123UnitySynchronizationContext_t1205147244_CustomAttributesCacheGenerator_UnitySynchronizationContext_ExecuteTasks_m2941058172P21CustomAttributesCache
c3e:_List_1_GetIndex_m433539411_gshared
wqh:__ZL59StreamingContext_t1417235061_CustomAttributesCacheGeneratorP21CustomAttributesCache
KH:__ZNK18AnimatorController28HasMultiThreadedStateMachineEv
rde:_Enum_GetName_m1226611481
vtj:_Func_2_Invoke_m4121137703_gshared
FV:__ZN11AudioSource5ResetEv
_ch:__Z74RuntimeInvoker_DictionaryEntry_t3048875398_RuntimeObject_Int32_t2071877448PFvvEPK10MethodInfoPvPS4_
fVg:__Z53RuntimeInvoker_DateTime_t693205669_Single_t2076509932PFvvEPK10MethodInfoPvPS4_
zBb:__ZN14Texture2DArray23VirtualRedirectTransferER18StreamedBinaryReadILb0EE
W0i:_Literal_CompileLiteral_m276843152
A3b:__ZN2UI13RectTransform13AwakeFromLoadE17AwakeFromLoadMode
S0i:_Reference__ctor_m4110013284
w9a:__ZN14qsort_internal30FindAndMovePivotToLastPositionIP20ShadowCasterSortDatai26ShadowCasterSortDataSorterEEvT_S4_T0_T1_
nzj:__ZNK15dense_hashtableI10KeyWrapperIPK19Il2CppGenericMethodES4_N6il2cpp8metadata23Il2CppGenericMethodHashEN14dense_hash_setIS4_S7_NS4_14EqualsComparerINS6_26Il2CppGenericMethodCompareEEENSt3__29allocatorIS4_EEE8IdentityESB_SE_E3endEv
qMb:__Z18Transfer_BlittableI14SafeBinaryReadLb1EiEvRK29SerializationCommandArgumentsR31RuntimeSerializationCommandInfo
ZEa:__ZN17PersistentManager13GetAllFileIDsERKN4core12basic_stringIcNS0_20StringStorageDefaultIcEEEER13dynamic_arrayIxLj8EE
Phf:_ReadOnlyCollection_1_GetEnumerator_m713393110_gshared
rYf:_ProxyAttribute_GetPropertiesForNewContext_m3587421540
yRd:_Array_LastIndexOf_m4096535198
jXd:_ArrayList_Add_m1719188324
xce:_Double_System_IConvertible_ToSByte_m1653690240_AdjustorThunk
jZg:__Z59RuntimeInvoker_RuntimeObject_Byte_t3683104436_RuntimeObjectPFvvEPK10MethodInfoPvPS4_
Ek:_glGetStringi
xAg:_GUIStyleState_t3801000545_marshal_pinvoke
zYj:__ZNK15dense_hashtableI10KeyWrapperIP18Il2CppGenericClassES3_N6il2cpp8metadata22Il2CppGenericClassHashEN14dense_hash_setIS3_S6_NS3_14EqualsComparerINS5_25Il2CppGenericClassCompareEEENSt3__29allocatorIS3_EEE8IdentityESA_SD_E10test_emptyERK30dense_hashtable_const_iteratorIS3_S3_S6_SF_SA_SD_E
eL:__ZZN8Animator15InitializeClassEvEN43FunctorImpl_420kDidModifyAnimatorController4CallEPviR11MessageData
age:_CultureInfo_set_NumberFormat_m1618950525
UBb:__ZN18StreamedBinaryReadILb0EE21TransferSTLStyleArrayI13dynamic_arrayI8Vector4fLj4EEEEvRT_17TransferMetaFlags
bRf:_X509Store__ctor_m1573680316
qRf:_X509Chain_get_CertificateCollection_m324631835
Ddi:_EqualityComparer_1__cctor_m1011898363_gshared
bCd:_AnimationTriggers__ctor_m2623627182
Vle:_Array_InternalArray__IndexOf_TisClientCertificateType_t4001384466_m1168139450_gshared
I8f:_FieldBuilder_get_Name_m2243491233
t2:__ZN11UnityEngine15CloudWebService20WebRequestRestClient18GetResponseHeadersEv
Jdc:__ZN16PropertyAccessorC2Ev
Lzb:__ZNSt3__23mapIN4core12basic_stringIcNS1_20StringStorageDefaultIcEEEE9PrefValueNS_4lessIS5_EENS_9allocatorINS_4pairIKS5_S6_EEEEEixERSB_
PVb:__Z35Transfer_Blittable_FixedBufferFieldI18StreamedBinaryReadILb1EEaEvRK29SerializationCommandArgumentsR31RuntimeSerializationCommandInfo
ddc:__ZN15DirectorManager22ConstructPlayableGraphEv
ila:__ZN13ScreenManager16SetScreenTimeoutEi
DQb:__Z18Transfer_BlittableI17RemapPPtrTransferLb0EdEvRK29SerializationCommandArgumentsR31RuntimeSerializationCommandInfo
Vnd:_SymmetricAlgorithm_set_IV_m4262655606
ami:_StencilMaterial__cctor_m2963056855
amj:_EqualityComparer_1_System_Collections_IEqualityComparer_Equals_m315020809_gshared
sui:_AnimatorControllerPlayable_Play_m614561002_AdjustorThunk
M5f:_CustomAttributeNamedArgument_GetHashCode_m3715408876_AdjustorThunk
Q5c:__Z38Register_UnityEngine_Font_HasCharacterv
vQf:_X509Certificate2_AppendBuffer_m3517242299
Bdb:__Z35IntersectSpherePlaneBoundsOptimizedRKN4math7_float4EPS1_i
Yfe:_CultureInfo_get_IsNeutralCulture_m3874876470
CJh:__ZL137AnimatorControllerPlayable_t1744083903_CustomAttributesCacheGenerator_AnimatorControllerPlayable_CrossFadeInFixedTimeInternal_m3383124488P21CustomAttributesCache
abe:_Delegate_CreateDelegate_m3813023227
g3i:_Uri_get_AbsoluteUri_m2120317928
l$j:__ZN6il2cpp2os5posix15PosixWaitObject13InterruptWaitEv
dFd:_ColorTween_TweenValue_m3279916815
bw:__ZN7mecanim6memory16ChainedAllocator10DeallocateEPv
qxd:_BaseInputModule_IsModuleSupported_m4272494372
Nfa:__Z22CleanupLODGroupManagerPv
eoe:_Array_InternalArray__ICollection_Add_TisContentType_t1028629049_m2984242302_gshared
Svc:__Z21Event_CUSTOM_PopEventP12Il2CppObject
UYj:__ZN6il2cpp8metadata15GenericMetadata20RegisterGenericClassEP18Il2CppGenericClass
nl:_glUniform3fv
$Hb:__ZNSt3__218__insertion_sort_3IRN15ResourceManager10Dependency6SorterEPS2_EEvT0_S6_T_
SSe:_Enumerator_System_Collections_IEnumerator_Reset_m3796537546_AdjustorThunk
W4c:_UNITY_FT_Init_Class_tt_service_gx_multi_masters
pXg:__Z53RuntimeInvoker_Int32_t2071877448_TimeSpan_t3430258949PFvvEPK10MethodInfoPvPS4_
NMi:_InternalEnumerator_1_System_Collections_IEnumerator_Reset_m3249248421_AdjustorThunk
rNg:__Z64RuntimeInvoker_RuntimeObject_Int32_t2071877448_Int16_t4041245914PFvvEPK10MethodInfoPvPS4_
gNe:_IntComparer_Compare_m3057931085
c8a:__ZNK16LightmapSettings31GetRealtimeLightmapDecodeValuesEv
gV:__ZN5audio5mixer12SetSuspendedERNS0_16AudioMixerMemoryEb
pAa:__ZN17PersistentManager21UnloadNonDirtyStreamsEv
QQg:__Z63RuntimeInvoker_DSAParameters_t1872138834_BooleanU26_t3168250738PFvvEPK10MethodInfoPvPS4_
o8g:__Z62RuntimeInvoker_Boolean_t3825574718_PlayableBinding_t2498078091PFvvEPK10MethodInfoPvPS4_
IUj:__ZN6il2cpp2vm13LivenessStateC2EP11Il2CppClassjPFvPP12Il2CppObjectiPvES7_PFvvESB_
Zwe:_Array_ConvertAll_TisRuntimeObject_TisRuntimeObject_m2423585546_gshared
$1a:__ZN12ImageFilters4BlitER17ShaderPassContextP7TextureP13RenderTextureiPK18SharedMaterialDataPKcP6ShaderiNS_9BlitFlagsE11CubemapFaceRK8Vector2fSH_
LOf:_Oid__ctor_m1936781897
MFg:_Object_INTERNAL_CALL_Internal_InstantiateSingleWithParent_m1401308849
h2:__ZN11UnityEngine15CloudWebService10RestClientINS0_23WebRequestRestHeaderMapEED2Ev
cTi:_ResourceSet__ctor_m1222864106
usg:_UIntPtr_op_Explicit_m1113914169
y5e:_Collection_1_System_Collections_IList_get_Item_m3376056117_gshared
Jl:_emscripten_glDepthMask
xyd:__ZN23InterfaceActionInvoker1IP28PointerEventData_t1599784723E6InvokeEjP11Il2CppClassP12Il2CppObjectS1_
Foi:_AnimationClipPlayable_INTERNAL_CALL_CreateHandleInternal_m218917601
jfh:__ZL76UInt16_t986882611_CustomAttributesCacheGenerator_UInt16_TryParse_m1818885113P21CustomAttributesCache
RSe:_Enumerator_VerifyState_m3639069574_gshared
kPa:__ZN4crnd25static_huffman_data_model22prepare_decoder_tablesEv
Y4e:_Enumerator_MoveNext_m689054299_gshared
Pxf:_ModulusRing_Difference_m662924064
oMi:_InternalEnumerator_1_MoveNext_m1869236997_gshared
HDd:_CanvasUpdateRegistry_ObjectValidForUpdate_m855695984
wMd:_InputField_set_onValueChanged_m2406388125
GHh:__ZL95Physics2D_t2540166467_CustomAttributesCacheGenerator_Physics2D_Raycast_m2303387255____maxDepth5P21CustomAttributesCache
Uef:_ReadOnlyCollection_1_System_Collections_ICollection_get_SyncRoot_m2702046016_gshared
Ska:__ZL22CleanupUnityWebStreamsPv
HXb:__Z18Transfer_BlittableI18StreamedBinaryReadILb0EELb0E10ColorRGBAfEvRK29SerializationCommandArgumentsR31RuntimeSerializationCommandInfo
lLf:_ListDictionary_Add_m4276262662
lsj:__ZL25UnresolvedVirtualCall_220P12Il2CppObjectiPK10MethodInfo
qga:__Znaj
tld:_RIPEMD160Managed_GGG_m1639995340
gvk:_emscripten_glEnableClientState__wrapper
o7:__ZN17MessageIdentifierC2EPKcNS_7OptionsEPKN5Unity4TypeES1_
kO:__Z76AnimatorControllerPlayable_CUSTOM_INTERNAL_CALL_CrossFadeInFixedTimeInternalR9HPlayableifif
V3h:_Enumerator_System_Collections_IEnumerator_get_Current_m1648049763_gshared
Qak:__ZN6il2cpp6icalls8mscorlib4Mono8Security12Cryptography18KeyPairPersistence15_ProtectMachineEP12Il2CppString
plk:dynCall_viiifiii
ARg:__Z31RuntimeInvoker_Char_t3454481338PFvvEPK10MethodInfoPvPS4_
pqb:__ZN11GameManager15ThreadedCleanupEv
I$e:_List_1__ctor_m1337392449_gshared
rQd:_Array_System_Collections_IList_Remove_m2438892375
$Je:_TextWriter__ctor_m2225796097
fWi:__ZN21InterfaceFuncInvoker0IP24StringU5BU5D_t1642385972E6InvokeEjP11Il2CppClassP12Il2CppObject
Nob:__ZN14SafeBinaryRead8TransferI14ConstantStringEEvRT_PKc17TransferMetaFlags
c5i:_ScriptableObject_Internal_CreateScriptableObject_m1778903390
Lra:__ZNK6Camera16GetStereoEnabledEv
kt:__ZN13AnimationClip9PPtrCurveaSERKS0_
fac:__ZN12LightManager15InitializeClassEv
Lsa:__ZN9ShaderLab11shaderprops16GetComputeBufferEPK19ShaderPropertySheetS3_NS_16FastPropertyNameE
dzg:_GUIStyle_GetFontInternal_m3509743324
n9:__ZN18ScriptingArgumentsC2Ev
Kng:_TimeZone_IsDaylightSavingTime_m875882154
ZFi:_ArrayReadOnlyList_1_Insert_m503707439_gshared
Eqk:_emscripten_glBlendFuncSeparate__wrapper
ECf:_CipherSuiteCollection_System_Collections_IList_set_Item_m750275607
ari:_AnimatorControllerPlayable_SetFloatID_m3806317182
GMa:__Z17HasSampledTexture14GraphicsFormat13formatSupport
t3a:__ZNK25CameraStackRenderingState27GetStereoImageEffectTextureEb
Dmd:_SHA1CryptoServiceProvider__ctor_m3127563759
cq:__ZN8Vector3f8TransferI14SafeBinaryReadEEvRT_
Ygc:__ZN13BuildSettings13GetSceneIndexERKN4core12basic_stringIcNS0_20StringStorageDefaultIcEEEE
pEg:_DownloadHandler_Finalize_m3781185347
g_h:__ZL103BaseVertexEffect_t2504093552_CustomAttributesCacheGenerator_BaseVertexEffect_ModifyVertices_m3446986347P21CustomAttributesCache
Jo:FUNCTION_TABLE_ii
S4h:_Enumerator_MoveNext_m335649778_AdjustorThunk
jqb:__ZN10TagManager8TransferI18StreamedBinaryReadILb0EEEEvRT_
CLg:__Z45RuntimeInvoker_Char_t3454481338_RuntimeObjectPFvvEPK10MethodInfoPvPS4_
AAc:__Z18Transfer_BlittableI9JSONWriteLb0E8BitFieldEvRK29SerializationCommandArgumentsR31RuntimeSerializationCommandInfo
crg:_UInt32_ToString_m3894907091_AdjustorThunk
vke:_Array_InternalArray__IEnumerable_GetEnumerator_TisPlayableBinding_t2498078091_m2095426925_gshared
Jfj:_Predicate_1__ctor_m2863314033_gshared
Sfe:_CultureInfo_get_TextInfo_m1582311326
hne:_Array_ForEach_TisRuntimeObject_m1849351808_gshared
gAg:_GUIStyle_get_contentOffset_m1904924583
v2h:_ShimEnumerator_get_Key_m616785465_gshared
Wrf:_SmallXmlParser_Error_m1832158746
pUf:_RepeatContext_get_IsLazy_m1620488045
Dk:_glDeleteVertexArrays
blb:__Z24CreateDirectoryRecursiveRKN4core12basic_stringIcNS_20StringStorageDefaultIcEEEE
Uok:b41
g1b:__ZN9ShaderLab20SerializedSubProgram8TransferI18StreamedBinaryReadILb0EEEEvRT_
BJe:_StreamAsyncResult_get_AsyncWaitHandle_m4218169359
cOh:__ZL89GUIStyle_t1799908754_CustomAttributesCacheGenerator_GUIStyle_get_stretchWidth_m1223411161P21CustomAttributesCache
iuc:__Z22MonoGUIContentToNative18ScriptingObjectPtrR10GUIContent
ccb:__Z9EndJobSetR8JobFence11JobPriority
Wve:_Array_InternalArray__get_Item_TisContactPoint2D_t3659330976_m825151777_gshared
s6c:__ZN2UI13CanvasManager9AddCanvasEPNS_6CanvasE
vDa:__ZN9Texture3D8TransferI19StreamedBinaryWriteILb0EEEEvRT_
y4a:__ZNK6Camera22CalculateRenderingPathEv
UBc:__ZN9JSONWrite8TransferI5RectTIfEEEvRT_PKc17TransferMetaFlags
Voi:_AnimationClipPlayable_INTERNAL_CALL_GetRemoveStartOffsetInternal_m3895628593
aSa:__Z13ConvertMipmap14GraphicsFormatPKvS_Pviiii
iBf:_ContentInfo_get_Content_m1802070908
Ss:__ZN15SerializeTraitsIKN4math7_float4EE8TransferI14SafeBinaryReadEEvRS2_RT_
nnd:_SHA384Managed_processBlock_m3232296629
svf:_X509Certificate_get_PublicKey_m714501701
oYg:__Z70RuntimeInvoker_Boolean_t3825574718_UInt16_t986882611_Int32_t2071877448PFvvEPK10MethodInfoPvPS4_
DOd:_U3CMouseDragOutsideRectU3Ec__Iterator1_System_Collections_IEnumerator_get_Current_m561728752
nZc:_tt_sbit_decoder_load_image
Xtd:_String_LastIndexOf_m290475879
jHc:__ZN15b2DistanceJointD0Ev
lle:__ZN21InterfaceFuncInvoker1Ii22UILineInfo_t3621277874E6InvokeEjP11Il2CppClassP12Il2CppObjectS0_
xLd:_Image_get_layoutPriority_m2151045813
eRj:__ZN15dense_hashtableINSt3__24pairIK10KeyWrapperIP11Il2CppClassES4_EES5_N6il2cpp8metadata16SZArrayClassHashEN14dense_hash_mapIS5_S4_SA_NS5_14EqualsComparerINS9_19SZArrayClassCompareEEENS0_9allocatorIS7_EEE9SelectKeyESE_SG_EC2EjRKSA_RKSE_RKSI_
zse:_Array_Sort_TisInt32_t2071877448_m1860415737_gshared
RKe:_TextReader_Read_m975794707
Auc:__ZNSt3__24listIN10GUIManager12SortedScriptE11memory_poolIS2_EE6__sortI13OldSortScriptEENS_15__list_iteratorIS2_PvEESA_SA_jRT_
mrg:_UInt64_System_IConvertible_ToChar_m1930853313_AdjustorThunk
IFf:_TlsClientCertificate_SendCertificates_m1096074091
$Bd:_UIBehaviour_OnCanvasHierarchyChanged_m762109874
l0d:_SyncHashtable_get_Item_m408601391
Sqh:__ZL45DSA_t903174880_CustomAttributesCacheGeneratorP21CustomAttributesCache
Xgf:_ReadOnlyCollection_1_System_Collections_IEnumerable_GetEnumerator_m1401363518_gshared
c5e:_Stack_1_System_Collections_ICollection_CopyTo_m2104527616_gshared
agk:_TileManager_ReadTiles_m985135445
Big:_StringBuilder_AppendFormat_m1666670800
wab:__ZN18DeferredRenderLoop13RenderGBufferEP13RenderTexturePS1_b8JobFencePK25DeferredRenderLoopScratchRi
a2g:__Z97RuntimeInvoker_Boolean_t3825574718_RuntimeObject_TextGenerationSettings_t2543476768_RuntimeObjectPFvvEPK10MethodInfoPvPS4_
BKg:_Rect_Equals_m3806390726
meh:__Z80RuntimeInvoker_RuntimeObject_RaycastResult_t21186376_RuntimeObject_RuntimeObjectPFvvEPK10MethodInfoPvPS4_
Qu:__ZN13AnimationClip8TransferI17RemapPPtrTransferEEvRT_
lQb:__Z18Transfer_BlittableI17RemapPPtrTransferLb1E8BitFieldEvRK29SerializationCommandArgumentsR31RuntimeSerializationCommandInfo
SSj:__ZN6il2cpp6icalls8mscorlib6System9ThreadingL11ThreadStartEPv
qia:__ZN15DirectorManager12OnSampleTimeEv
njf:_ReadOnlyCollection_1_System_Collections_IList_Remove_m3878418841_gshared
BMd:_InputField_EnforceContentType_m1902926812
kra:__ZN12CachedReader10Align4ReadEv
HNc:__ZN15b2WorldManifold10InitializeEPK10b2ManifoldRK11b2TransformfS5_f
jef:_Collection_1_CopyTo_m42272870_gshared
lUj:__ZN6il2cpp2vm9Exception28GetMarshalDirectiveExceptionEPKc
lOe:_MulticastDelegate_GetObjectData_m3187757658
pob:__ZNK9Behaviour22GetTypeVirtualInternalEv
gDd:_CanvasScaler_set_referencePixelsPerUnit_m1188599784
Xjf:_ReadOnlyCollection_1_System_Collections_IList_get_Item_m887129009_gshared
amf:_Comparison_1_EndInvoke_m179917407_gshared
o7b:__ZNK28MonoBehaviourPropertyBinding12SetPPtrValueERKN11UnityEngine9Animation10BoundCurveEi
Ceb:__Z21GetScriptingArraySize17ScriptingArrayPtr
rTc:__ZN20TextRenderingPrivate8FontImpl8TransferI14SafeBinaryReadEEvRT_
A0i:__ZN23InterfaceActionInvoker1IP19LinkRef_t2090853131E6InvokeEjP11Il2CppClassP12Il2CppObjectS1_
Ppi:_AnimationOffsetPlayable_INTERNAL_CALL_CreateHandleInternal_m2301240007
mva:__Z35UnityPropertySheet_MakeSortedColorsRKNSt3__23mapIN9ShaderLab16FastPropertyNameE10ColorRGBAfNS_4lessIS2_EENS_9allocatorINS_4pairIKS2_S3_EEEEEER10vector_mapIS2_S3_S5_NS6_INS7_IS2_S3_EEEEE
S2g:__Z116RuntimeInvoker_Void_t1841601450_Rect_t3681755626_RuntimeObject_Int32_t2071877448_Int32_t2071877448_Int32_t2071877448PFvvEPK10MethodInfoPvPS4_
kzg:_GUIStyle_Draw_m4006459684
yRh:__ZL104PlayableExtensions_t2358977238_CustomAttributesCacheGenerator_PlayableExtensions_SetDuration_m3676215212P21CustomAttributesCache
iMg:__Z110RuntimeInvoker_Boolean_t3825574718_RuntimeObject_SByte_t454417549_Int64U26_t763825331_ExceptionU26_t1467204777PFvvEPK10MethodInfoPvPS4_
hKa:__ZN9GfxDevice17ImmediateTexCoordEifff
o$i:_Parser_ParseRegularExpression_m2390577313
T_c:_ft_black_new
MLc:__ZN10ClipperLib7Clipper13AppendPolygonEPNS_5TEdgeES2_
XRd:_Array_double_swapper_m1175307080
ECh:__ZL102GameObject_t1756533147_CustomAttributesCacheGenerator_GameObject_Internal_CreateGameObject_m3428198595P21CustomAttributesCache
x0i:_Alternation_AddAlternative_m623421443
SRf:_X509CertificateEnumerator_System_Collections_IEnumerator_Reset_m327358896
_Yg:__Z65RuntimeInvoker_Void_t1841601450_Byte_t3683104436_Byte_t3683104436PFvvEPK10MethodInfoPvPS4_
cqd:_Hash__ctor_m2554411450
aye:_NumberFormatter_AppendDigits_m1308372770
Krd:_Single_System_IConvertible_ToDateTime_m2510003459_AdjustorThunk
tbe:_Delegate_RemoveImpl_m3666700529
vok:_emscripten_glUniform4f__wrapper
FLf:_NameObjectCollectionBase_OnDeserialization_m3478980442
YK:__ZN25RuntimeAnimatorControllerC2E18MemLabelIdentifier18ObjectCreationMode
Lui:_AnimatorControllerParameter_get_name_m1366583724
nMd:_InputField_set_caretColor_m2252440840
E$:__Z78Register_UnityEngine_Audio_AudioPlayableOutput_INTERNAL_CALL_InternalSetTargetv
fH:__ZN8Animator8TransferI19StreamedBinaryWriteILb0EEEEvRT_
W6a:__ZNK6Camera16GetProjectionFarEv
dr:__Z24InverseTransformRotationRK23TransformAccessReadOnlyRKN4math7_float4E
jMe:_MissingFieldException__ctor_m1161042282
oWd:_Char_GetHashCode_m2343577184
zub:__ZNK14PlayableOutput11DerivesFromE17ScriptingClassPtr
ADa:__ZN7Texture34CreateFileTextureUploadInstructionE18TextureUploadFlagsj
s6i:_StateMachineBehaviour_OnStateExit_m1490844990
XJa:__ZN9GfxDevice21ResetDynamicResourcesEv
Q1a:__ZN13ComputeShader14SetBufferParamEjRKN9ShaderLab16FastPropertyNameE15ComputeBufferID
mtb:__ZThn280_N31CanvasBatchIntermediateRenderer20OnAssetBoundsChangedEv
n0f:_StreamingContext__ctor_m3063421596_AdjustorThunk
ajf:_ReadOnlyCollection_1_System_Collections_Generic_IListU3CTU3E_Insert_m3054305464_gshared
U6b:__ZN19LowerResBlitTexture13ApplySettingsEv
kgh:__ZL70IntPtr_t_CustomAttributesCacheGenerator_IntPtr_op_Explicit_m3896766622P21CustomAttributesCache
YG:__ZN8Animator8TransferI14SafeBinaryReadEEvRT_
QQj:__ZN15dense_hashtableINSt3__24pairIK10KeyWrapperIP11Il2CppClassES4_EES5_N6il2cpp8metadata16SZArrayClassHashEN14dense_hash_mapIS5_S4_SA_NS5_14EqualsComparerINS9_19SZArrayClassCompareEEENS0_9allocatorIS7_EEE9SelectKeyESE_SG_E4swapERSJ_
Cpb:__ZN17GlobalGameManager23VirtualRedirectTransferER18StreamedBinaryReadILb0EE
xme:_Array_InternalArray__IndexOf_TisTypeTag_t141209596_m2882894956_gshared
mli:_Slider_get_value_m4182660424
NFc:__ZNK14b2CapsuleShape5CloneEP16b2BlockAllocator
xx:__ZN17AnimationPlayable34CollectAnimatorControllerPlayablesER13dynamic_arrayIP26AnimatorControllerPlayableLj4EE
z_:__ZN16BaseVideoTexture19UpdateVideoTexturesEv
btb:__Z28BuildSingleStreamChannelInfo17ShaderChannelMaskRK20VertexChannelsLayoutS_S2_P11ChannelInfo
ZBa:__ZNK16LightmapSettings23HasLightProbeTetrahedraEv
VEf:_Context_get_WriteSequenceNumber_m243492531
Tzb:__ZN6Sprite23VirtualRedirectTransferER19StreamedBinaryWriteILb0EE
_lh:__ZL51Assembly_t4268412390_CustomAttributesCacheGeneratorP21CustomAttributesCache
Ptd:_String_LastIndexOfAny_m1473637802
ksc:__Z38Transform_CUSTOM_INTERNAL_set_positionP12Il2CppObjectRK8Vector3f
YXe:_List_1_System_Collections_ICollection_CopyTo_m3062449209_gshared
pKj:__ZNK15dense_hashtableINSt3__24pairIK10KeyWrapperINS1_IPK9FieldInfoP11Il2CppClassEEEjEES9_17ReflectionMapHashIS8_EN14dense_hash_mapIS9_jSD_NS9_14EqualsComparerINS0_8equal_toIS8_EEEENS0_9allocatorISB_EEE9SelectKeyESI_SK_E5beginEv
bta:__ZNK9ShaderLab7Program19HasMatchingVariantsERK13dynamic_arrayI16ShaderKeywordSetLj4EE
Nre:_Array_qsort_TisUICharInfo_t3056636800_TisUICharInfo_t3056636800_m1253367821_gshared
lNa:__ZN14DataBufferGLES11CopySubDataEPKS_jjj
se:_emscripten_glVertexPointer
xWa:__ZNSt3__26__treeI20DeviceDepthStateGLES11memcmp_lessIS1_S1_ENS_9allocatorIS1_EEE7destroyEPNS_11__tree_nodeIS1_PvEE
j8c:__ZN2UI13PrepareOutputERNS_7BatchesEjjNS_30AdditionalCanvasShaderChannelsE
jWe:_List_1_System_Collections_Generic_ICollectionU3CTU3E_get_IsReadOnly_m1614481629_gshared
zFj:__ZN6il2cpp2vm7Runtime47RaiseExecutionEngineExceptionIfMethodIsNotFoundEPK10MethodInfo
cab:__Z17GetFrustumPortionPK8Vector3fffPS_
Bsg:_UnauthorizedAccessException__ctor_m259001183
SVj:__ZN15dense_hashtableINSt3__24pairIK10KeyWrapperIP14Il2CppIUnknownEjEES5_N6il2cpp5utils11PointerHashIS3_EEN14dense_hash_mapIS5_jSB_NS5_14EqualsComparerINS0_8equal_toIS4_EEEENS0_9allocatorIS7_EEE9SelectKeyESG_SI_E14squash_deletedEv
_7i:_TouchScreenKeyboard_set_text_m3456054179
o7g:__Z71RuntimeInvoker_Void_t1841601450_BooleanU26_t3168250738_SByte_t454417549PFvvEPK10MethodInfoPvPS4_
cSh:__ZL60MovedFromAttribute_t922195725_CustomAttributesCacheGeneratorP21CustomAttributesCache
eGd:_DefaultControls_CreateDropdown_m1384069408
Wzd:_PointerEventData_get_clickCount_m4064532478
xhf:_ReadOnlyCollection_1_System_Collections_Generic_ICollectionU3CTU3E_get_IsReadOnly_m3508872969_gshared
gee:_EventArgs__cctor_m1350395667
UJg:_Rect_get_position_m24550734_AdjustorThunk
uij:_UnityEvent_1_GetDelegate_m4062537313_gshared
cfj:_X509Stores_Open_m2057354563
Mee:_CCGregorianCalendar_is_leap_year_m567513478
qPf:_Oid_get_Value_m2271181078
wSd:_Attribute_IsDefined_m2118467641
ctf:_PrivateKeyInfo_Normalize_m3959595934
K7g:__Z68RuntimeInvoker_Void_t1841601450_Int32_t2071877448_Color32_t874517518PFvvEPK10MethodInfoPvPS4_
aHi:_InternalEnumerator_1_System_Collections_IEnumerator_get_Current_m3125080595_gshared
Lbf:_Collection_1_System_Collections_IList_Add_m2091889616_gshared
Ydc:__ZN16StreamedResource8TransferI24GenerateTypeTreeTransferEEvRT_
BHc:__ZN11b2GearJoint4DumpEv
AHd:_DropdownItem_OnPointerEnter_m761897861
npi:_AnimationLayerMixerPlayable_INTERNAL_CALL_IsLayerAdditiveInternal_m364677421
$O:__Z90Register_UnityEngine_Animations_AnimatorControllerPlayable_INTERNAL_CALL_CrossFadeInternalv
CTa:__ZN10Matrix3x3f15InvertTransposeEv
Lhe:_Array_InternalArray__ICollection_Remove_TisKeyValuePair_2_t1174980068_m2768765894_gshared
mJb:__ZN24GenerateTypeTreeTransfer8TransferINSt3__26vectorIN4core12basic_stringIcNS3_20StringStorageDefaultIcEEEE13stl_allocatorIS7_L18MemLabelIdentifier12ELi16EEEEEEvRT_PKc17TransferMetaFlags
Pqi:_AnimatorControllerPlayable_GetFloat_m1229536053
t9e:_Collection_1_set_Item_m2199807215_gshared
ACh:__ZL96GameObject_t1756533147_CustomAttributesCacheGenerator_GameObject_SendMessage_m71956653____value1P21CustomAttributesCache
qPb:__Z29Transfer_Blittable_ArrayFieldI14SafeBinaryRead8Vector3fEvRT_R9ArrayInfoRK23StaticTransferFieldInfo
oqg:_UInt32_System_IConvertible_ToBoolean_m91295134
Qkg:_Monitor_Monitor_test_synchronised_m1542589500
pCh:__ZL85GameObject_t1756533147_CustomAttributesCacheGenerator_GameObject_get_layer_m725607808P21CustomAttributesCache
sah:__Z66RuntimeInvoker_Void_t1841601450_Int32_t2071877448_Slot_t2022531261PFvvEPK10MethodInfoPvPS4_
jUc:__ZN20TextRenderingPrivate8FontImpl18ResetCachedTextureEv
y_h:__ZL185U3CShowReadyScreenU3Ec__Iterator0_t4161106453_CustomAttributesCacheGenerator_U3CShowReadyScreenU3Ec__Iterator0_System_Collections_Generic_IEnumeratorU3CobjectU3E_get_Current_m3854207750P21CustomAttributesCache
Ffh:__ZL75String_t_CustomAttributesCacheGenerator_String_Concat_m626692867____values0P21CustomAttributesCache
BCh:__ZL98GameObject_t1756533147_CustomAttributesCacheGenerator_GameObject_SendMessage_m71956653____options2P21CustomAttributesCache
Rtf:_SymmetricTransform_TransformFinalBlock_m4192185386
dAe:_TextInfo__ctor_m1263401274
etg:_Version_get_Major_m3385239713
Sjj:_ListPool_1_Release_m3047738410_gshared
Y7i:_TouchScreenKeyboard_Open_m913506328
n6j:_GC_print_finalization_stats
JEf:_Context_get_SecurityProtocolFlags_m3295551796
J5h:_ValueCollection__ctor_m927733289_gshared
Ura:__ZN11NamedObject15ThreadedCleanupEv
WIc:__ZNK12b2WheelJoint10GetAnchorBEv
Fvi:_LowMemoryCallback__ctor_m4181659636
WMi:_InternalEnumerator_1__ctor_m2981879621_AdjustorThunk
hlc:__Z53Register_UnityEngine_Behaviour_get_isActiveAndEnabledv
vNf:_IPAddress_ToString_m267966740
Klj:_EqualityComparer_1__ctor_m3971803374_gshared
Iq:__ZNSt3__26vectorIN4core12basic_stringIcNS1_20StringStorageDefaultIcEEEENS_9allocatorIS5_EEE8__appendEj
W6g:__Z64RuntimeInvoker_Boolean_t3825574718_IntPtr_t_ObjectU26_t597476745PFvvEPK10MethodInfoPvPS4_
xHb:__ZN26PlayerSettingsSplashScreen8TransferI17RemapPPtrTransferEEvRT_
NKi:_InternalEnumerator_1_get_Current_m3922357178_gshared
iEj:__ZN6il2cpp6icalls8mscorlib6SystemL17CollectTypeFieldsINS_5utils10functional10TrueFilterEEEvP11Il2CppClassPKS7_iRNSt3__26vectorIP9FieldInfoNSB_9allocatorISE_EEEERKT_
VUh:__ZL72ColorBlock_t2652774230_CustomAttributesCacheGenerator_m_HighlightedColorP21CustomAttributesCache
aog:_Type_get_IsValueType_m1733572463
Oxg:_GUISkin_get_horizontalScrollbarThumb_m4062590908
_4b:__Z13GetTagManagerv
$Hi:_InternalEnumerator_1_Dispose_m1748410190_AdjustorThunk
pRc:__ZN14PhysicsQuery2D7RaycastERK8Vector2fS2_fRKN10Collider2D13ContactFilterEPKS3_bP12RaycastHit2Di
lie:_Array_InternalArray__ICollection_Remove_TisUInt16_t986882611_m65494986_gshared
Qhf:_ReadOnlyCollection_1_IndexOf_m3054637117_gshared
suj:__ZL10roundUp128PyS_
q0:__ZN11UnityEngine15CloudWebService17CloudJobSchedulerD0Ev
Ksd:_String_System_IConvertible_ToBoolean_m2696751322
yAa:__ZN18LoadSceneOperation7PerformEv
Hvg:_GUILayer_INTERNAL_CALL_HitTest_m693512502
S6c:__ZNK2UI11CanvasGroup22GetTypeVirtualInternalEv
Std:_String_LastIndexOfAny_m4281325295
KLc:__ZN10ClipperLib7Clipper14IntersectEdgesEPNS_5TEdgeES2_RNS_8IntPointE
h6g:__Z163RuntimeInvoker_Void_t1841601450_RuntimeObject_Int32_t2071877448_SByte_t454417549_SByte_t454417549_SingleU26_t4173844468_SingleU26_t4173844468_SingleU26_t4173844468PFvvEPK10MethodInfoPvPS4_
Suc:__Z21CleanupGlobalGUIStatev
Emg:_TimeSpan__ctor_m1888018443_AdjustorThunk
Lch:__Z74RuntimeInvoker_Int32_t2071877448_UIVertex_t1204258818_UIVertex_t1204258818PFvvEPK10MethodInfoPvPS4_
Hv:__ZN19StreamedBinaryWriteILb0EE21TransferSTLStyleArrayI22OffsetPtrArrayTransferIN7mecanim9animation10ValueDeltaEEEEvRT_17TransferMetaFlags
g0d:_SyncHashtable_get_Count_m3694444082
DIj:__ZNSt3__26vectorINS_12basic_stringIcNS_11char_traitsIcEENS_9allocatorIcEEEENS4_IS6_EEE8allocateEj
yLg:__Z56RuntimeInvoker_RuntimeObject_RuntimeObject_RuntimeObjectPFvvEPK10MethodInfoPvPS4_
ZUa:__ZN22VertexDeclarationCache5ClearEv
$tk:_emscripten_glUniform2i__wrapper
bjb:__ZN17PersistentManager12SetPathRemapERKN4core12basic_stringIcNS0_20StringStorageDefaultIcEEEES6_
Tz:__Z27ProcessRootMotionEmptyMixerP35AnimationPlayableEvaluationConstantP32AnimationPlayableEvaluationInputP33AnimationPlayableEvaluationOutput
Kbb:__ZN6Camera24PrepareCullingParametersERK23CameraCullingParameters13RenderingPathR11CullResults
Fgc:__Z12SetIUISystemP9IUISystem
KAa:__ZN19RuntimeSceneManager22EndIntegrateMainThreadEP10UnitySceneNS_11LoadingModeE
Wrh:__ZL84Evidence_t1407710183_CustomAttributesCacheGenerator_Evidence_GetHashCode_m1260371757P21CustomAttributesCache
Hhf:_ReadOnlyCollection_1_System_Collections_ICollection_get_IsSynchronized_m2344337514_gshared
KQb:__Z26Transfer_UnityEngineObjectI17RemapPPtrTransferLb0EEvRK29SerializationCommandArgumentsR31RuntimeSerializationCommandInfo
d6g:__Z34RuntimeInvoker_FitMode_t4030874534PFvvEPK10MethodInfoPvPS4_
Ztd:_String_IsNullOrEmpty_m2802126737
lVd:_Byte_Parse_m1442736478
JLa:__ZN13GfxDeviceGLES15OnDeviceCreatedEb
aEe:_Int64_Parse_m3258022240
Jtd:_String_IndexOfOrdinal_m3591623977
D7i:_Texture2D_get_whiteTexture_m1979591766
m2f:_CryptoConfig_EncodeLongNumber_m2352037787
Fog:_Type_GetMethod_m475234662
qsd:_Single_GetHashCode_m3102305584
gQe:_KeyValuePair_2__ctor_m1877755778_AdjustorThunk
RUi:_ActivationServices_get_ConstructionActivator_m1726426854
TSb:__Z29Transfer_Blittable_ArrayFieldI24GenerateTypeTreeTransfer4AABBEvRT_R9ArrayInfoRK23StaticTransferFieldInfo
Cuh:__ZL76Convert_t2607082565_CustomAttributesCacheGenerator_Convert_ToChar_m245844937P21CustomAttributesCache
Uth:__ZL52Activator_t1850728717_CustomAttributesCacheGeneratorP21CustomAttributesCache
p7j:_GC_adj_bytes_allocd
Rli:_SpriteState_t1353336012_marshal_pinvoke_cleanup
$ne:_Array_InternalArray__ICollection_Add_TisKeyframe_t1449471340_m887263954_gshared
h9i:_UIVertex__cctor_m803910084
Fpe:_Array_InternalArray__Insert_TisDateTime_t693205669_m1484996356_gshared
cYe:_List_1_System_Collections_IList_Remove_m3933652540_gshared
r7h:_Dictionary_2_System_Collections_IDictionary_GetEnumerator_m1484720898_gshared
NIe:_MonoIO_get_ConsoleInput_m2976499023
Yag:_OpCode_get_Size_m481593949_AdjustorThunk
CZd:_BitArrayEnumerator_checkVersion_m3839504595
MQd:_Array_GetUpperBound_m1352329707
qIc:__ZN13b2PulleyJoint24SolveVelocityConstraintsERK12b2SolverData
W7b:__ZNK17AnimationCurveTplIfE20FindIndexForSamplingERKNS0_5CacheEfRiS4_
Da:invoke_fiiifii
qDf:_RecordProtocol__ctor_m168945279
Q8d:_DateTimeOffset_Equals_m3728302791_AdjustorThunk
yAg:_GUIStyleState_t3801000545_marshal_pinvoke_back
P9a:__ZN20SphericalHarmonicsL219AddDirectionalLightERKN4math7_float3ERKNS0_7_float4E
Bng:_TimeSpan_op_GreaterThanOrEqual_m3997050520
tvh:__ZL77Convert_t2607082565_CustomAttributesCacheGenerator_Convert_ToUInt16_m36213644P21CustomAttributesCache
jia:__Z26ScheduleJobForEachInternalR8JobFencePFvPvjES1_iPFvS1_E11JobPriority
BPf:_OidEnumerator_MoveNext_m1889267785
G$a:__ZZ23InitPlayerLoopCallbacksvEN41PostLateUpdateProfilerEndFrameRegistrator7ForwardEv
jhc:__ZN9Scripting18RaiseMonoExceptionEPKcz
Cwb:__ZN9Texture2D8TransferI19StreamedBinaryWriteILb0EEEEvRT_
rxg:_GUISkin_set_box_m877476512
DHd:_OptionData__ctor_m3070653720
Hjj:_TweenRunner_1_StartTween_m3792842064_gshared
Fac:__ZN9ShaderLab16FastPropertyName15InitBy28BitHashEj
Srd:_Single_System_IConvertible_ToInt32_m3269519527_AdjustorThunk
$Rc:__ZN14PhysicsQuery2D8LinecastERK8Vector2fS2_RKN10Collider2D13ContactFilterEPKS3_bP12RaycastHit2Di
Jmd:_SHA1Internal_ProcessBlock_m4070037334
dDa:__ZN17PersistentManager17IsObjectAvailableEi
L8j:__ZN6il2cpp6icalls8mscorlib6System10Reflection14MonoMethodInfo15get_method_infoE12Il2CppIntPtrP16Il2CppMethodInfo
aDh:__ZL87RectOffset_t3387826427_CustomAttributesCacheGenerator_RectOffset_get_bottom_m4112328858P21CustomAttributesCache
Lqe:_Array_InternalArray__set_Item_TisDouble_t4078015681_m24756265_gshared
PXf:_ObjRef_GetObjectData_m3081609242
z7b:__ZN13ProduceHelperIN2UI13RectTransformELb0EE7ProduceE18MemLabelIdentifier18ObjectCreationMode
xCb:__ZN17PackedFloatVector12UnpackFloatsEPfiiii
Esh:__ZL113EncoderReplacementFallback_t4228544112_CustomAttributesCacheGenerator_EncoderReplacementFallback__ctor_m517300448P21CustomAttributesCache
dff:_ReadOnlyCollection_1__ctor_m3671019970_gshared
YC:__ZN17AnimationPlayable28UpdateInternalStateRecursiveILi3ELb0EEEvPK35AnimationPlayableEvaluationConstant
cLa:__ZN13GfxDeviceGLES21DestroyComputeProgramER12ObjectHandleI18ComputeProgram_TagPvE
R3d:_Convert_ToDecimal_m2007036836
Rfa:__ZN17UniqueIDGenerator16DestroyPureIndexEj
$ba:__ZL21AppendNestedClassName17ScriptingClassPtrRN4core17string_with_labelILi1EEE
W_b:__ZN14SafeBinaryRead21TransferSTLStyleArrayINSt3__26vectorIN9ShaderLab20SerializedSubProgram12UAVParameterENS1_9allocatorIS5_EEEEEEvRT_17TransferMetaFlags
YWi:_Context_NotifyDynamicSinks_m1367144344
m0h:_Enumerator__ctor_m1897170543_AdjustorThunk
P5:__ZNK13BaseAllocator10IsAssignedEv
z1:__ZN24TextDOMTransferWriteBaseI9JSONWriteE12PushMetaFlagEi
ZL:__ZN8Animator8SetFloatEif
pFf:_Context_get_Current_m2717045324
Qdj:_X509Certificate_GetSubjectName_m1189079906
wDf:_TlsClientCertificateVerify__ctor_m110646389
Mya:__ZN6prcoreL26RemapGenericIntegerToFloatI17TexFormatARGB888815TexFormatRFloatEEvPKNS_9InnerInfoE
F5:__ZN5Mutex6UnlockEv
fXi:_Context_GetServerContextSinkChain_m390126977
qIj:__ZN6il2cpp2vm17TypeNameParseInfoD2Ev
PNh:__ZL89GUIStyle_t1799908754_CustomAttributesCacheGenerator_GUIStyle_set_imagePosition_m327170707P21CustomAttributesCache
uKe:_StringReader_Read_m513112775
jyb:__ZNK8Renderer8GetLayerEv
s5e:_Collection_1_System_Collections_IList_Insert_m266942173_gshared
bsb:__ZN12FlareManager11DeleteFlareEi
X6e:_Collection_1_Add_m2613548553_gshared
bC:__ZN7mecanim9animation22DestroyBlendTreeOutputEPNS0_15BlendTreeOutputERNS_6memory9AllocatorE
h6a:__ZNK6Camera20GetReplacementShaderEv
fqk:_glProgramBinary__wrapper
A9d:_Decimal__ctor_m569480123_AdjustorThunk
OMf:_HttpWebRequest__cctor_m3013631978
lak:__ZNSt3__26__treeINS_12__value_typeINS_12basic_stringIcNS_11char_traitsIcEENS_9allocatorIcEEEEPFvvEEENS_19__map_value_compareIS7_SA_NS_4lessIS7_EELb1EEENS5_ISA_EEE4findIS7_EENS_15__tree_iteratorISA_PNS_11__tree_nodeISA_PvEEiEERKT_
h$b:__ZNSt3__26vectorIN9ShaderLab20SerializedSubProgram14ConstantBufferENS_9allocatorIS3_EEE7reserveEj
OCa:__ZL23stbir__calculate_memoryP11stbir__info
HTg:__Z83RuntimeInvoker_Void_t1841601450_Int64_t909078037_Int32_t2071877448_Int64_t909078037PFvvEPK10MethodInfoPvPS4_
JLj:__ZNK15dense_hashtableINSt3__24pairIK10KeyWrapperINS1_IPK10MethodInfoP11Il2CppClassEEEjEES9_17ReflectionMapHashIS8_EN14dense_hash_mapIS9_jSD_NS9_14EqualsComparerINS0_8equal_toIS8_EEEENS0_9allocatorISB_EEE9SelectKeyESI_SK_E12test_deletedERK24dense_hashtable_iteratorISB_S9_SD_SM_SI_SK_E
Jkh:__ZL90BinaryReader_t2491843768_CustomAttributesCacheGenerator_BinaryReader_ReadSByte_m1712621355P21CustomAttributesCache
cii:_Scrollbar_FindSelectableOnRight_m3219495255
Sci:_EqualityComparer_1_System_Collections_IEqualityComparer_GetHashCode_m487741360_gshared
J6c:__ZNSt3__227__insertion_sort_incompleteIRPFbPN2UI6CanvasES3_EPS3_EEbT0_S8_T_
gFc:__ZNK9rapidjson12GenericValueINS_4UTF8IcEE13JSONAllocatorE6AcceptINS_12PrettyWriterI16TempBufferWriterS2_S2_S3_EEEEbRT_
l2a:__ZNK6Camera18GetRenderRectangleEv
wAj:__ZN6il2cpp5utils13dynamic_arrayIPK10Il2CppTypeLj4EE7reserveEj
sOh:__ZL102GUIStyle_t1799908754_CustomAttributesCacheGenerator_GUIStyle_INTERNAL_CALL_SetMouseTooltip_m3411291301P21CustomAttributesCache
bgk:_Tile__ctor_m850840179
ope:_Array_InternalArray__ICollection_CopyTo_TisVector3_t2243707580_m509487340_gshared
PJd:_GridLayoutGroup_get_constraint_m1351424857
FO:__Z82AnimatorControllerPlayable_CUSTOM_INTERNAL_CALL_IsParameterControlledByCurveStringR9HPlayableP12Il2CppString
gDc:__ZL26Transfer_SimpleNativeClassI8JSONRead10RectOffsetLb1EEvRK29SerializationCommandArgumentsR31RuntimeSerializationCommandInfo
U9c:__Z44CanvasRenderer_CUSTOM_INTERNAL_CALL_SetColorP12Il2CppObjectRK10ColorRGBAf
mwe:_Component_GetComponentInChildren_TisRuntimeObject_m1823576579_gshared
Q5j:_GC_should_collect
dVi:_UrlAttribute_Equals_m1587451932
A0j:__ZNSt3__26__treeINS_12basic_stringIcNS_11char_traitsIcEENS_9allocatorIcEEEENS_4lessIS6_EENS4_IS6_EEE12__find_equalIS6_EERPNS_16__tree_node_baseIPvEESG_RKT_
kAc:__Z18Transfer_BlittableI9JSONWriteLb1EsEvRK29SerializationCommandArgumentsR31RuntimeSerializationCommandInfo
CLc:__ZN10ClipperLib8JoinHorzEPNS_5OutPtES1_S1_S1_NS_8IntPointEb
rCe:_Int16_ToString_m4099416068_AdjustorThunk
o3f:_DSAParameters_t1872138834_marshal_pinvoke_cleanup
Wra:__ZN6ObjectD2Ev
Qjc:__ZN9Transform16SetLocalRotationERK11Quaternionf
zri:_AnimatorControllerPlayable_INTERNAL_CALL_GetIntegerID_m1635852922
oKi:_InternalEnumerator_1_get_Current_m3206960238_AdjustorThunk
is:__ZN13AnimationClip16DecompressCurvesERNSt3__26vectorI24CompressedAnimationCurve13stl_allocatorIS2_L18MemLabelIdentifier25ELi16EEEE
K0a:__ZN13RenderManager37RenderCamerasWithScriptableRenderLoopEi
sqf:_ASN1_Element_m2600236165
eha:__ZN23InstancedPropInfoStaticL16RegisterCallbackEPv
mZj:__ZN15dense_hashtableINSt3__24pairIK10KeyWrapperIP12Il2CppObjectEN6il2cpp2gc9CachedCCWEEES5_NS7_5utils11PointerHashIS3_EEN14dense_hash_mapIS5_S9_SD_NS5_14EqualsComparerINS0_8equal_toIS4_EEEENS0_9allocatorISA_EEE9SelectKeyESI_SK_E16reset_thresholdsEv
dF:__ZN7mecanim8skeleton25SkeletonPoseComputeLocalQEPKNS0_8SkeletonEPKNS0_13SkeletonPoseTIN4math4trsXEEEPS7_ii
wZi:_MethodCall_Init_m3987198685
ZZj:__ZN6il2cpp2os19ReleaseSocketHandleEj
wRg:__Z92RuntimeInvoker_Void_t1841601450_DateTime_t693205669_DateTime_t693205669_TimeSpan_t3430258949PFvvEPK10MethodInfoPvPS4_
ajh:__ZL128SafeHandleZeroOrMinusOneIsInvalid_t1177681199_CustomAttributesCacheGenerator_SafeHandleZeroOrMinusOneIsInvalid__ctor_m3340306667P21CustomAttributesCache
d_:__ZN11AudioModule16GetDSPSampleRateEv
p2j:__ZN15dense_hashtableINSt3__24pairIK10KeyWrapperIPK19Il2CppGenericMethodEP10MethodInfoEES6_N6il2cpp8metadata23Il2CppGenericMethodHashEN14dense_hash_mapIS6_S9_SD_NS6_14EqualsComparerINSC_26Il2CppGenericMethodCompareEEENS0_9allocatorISA_EEE9SelectKeyESH_SJ_E5clearEv
Kdc:__ZN16PropertyAccessor5ClearEv
R6f:_TypeBuilder_get_next_table_index_m1415870184
Pkk:___cxa_can_catch
Ayf:_SequentialSearchPrimeGeneratorBase_GenerateNewPrime_m296245934
qWd:_Char_GetUnicodeCategory_m4273361321
BJh:__ZL137AnimatorControllerPlayable_t1744083903_CustomAttributesCacheGenerator_AnimatorControllerPlayable_CrossFadeInFixedTimeInternal_m2412303303P21CustomAttributesCache
A6a:__ZN6Camera28DefaultPerformRenderFunctionD0Ev
ZLe:_Math_Round_m565516458
PWi:_Identity_get_ClientDynamicProperties_m767245959
_Gi:_InternalEnumerator_1__ctor_m675130983_AdjustorThunk
O6h:_Dictionary_2_Clear_m899854001_gshared
e$j:__ZN6il2cpp2os5posix15PosixWaitObjectC2ENS2_4TypeE
t4a:__ZN6Camera21PostMultiCustomRenderENS_10RenderFlagEb
FLh:__ZL83Canvas_t209405766_CustomAttributesCacheGenerator_Canvas_get_scaleFactor_m1115379735P21CustomAttributesCache
gbg:_TypeBuilder_create_generic_class_m986834171
Poj:__ZL24UnresolvedVirtualCall_34P12Il2CppObjectS0_PK10MethodInfo
vqk:_emscripten_glVertexPointer__wrapper
gGa:__ZN23ShaderVariantCollection13WarmupShadersEv
IEf:_Context_set_ProtocolNegotiated_m1177527245
sqg:_UInt32_System_IConvertible_ToChar_m1056040486
Gba:__Z25GetCommonScriptingClassesv
pKf:_TlsStream_get_Length_m1562309511
$Aa:__Z27scripting_gc_collect_unsafei
i_:__ZN11AudioModule20SuspendVideoTexturesEv
FZd:_CaseInsensitiveComparer__ctor_m1125492797
aac:__ZN12CubemapArrayC2E18MemLabelIdentifier18ObjectCreationMode
Xch:__Z73RuntimeInvoker_DictionaryEntry_t3048875398_RuntimeObject_SByte_t454417549PFvvEPK10MethodInfoPvPS4_
q2d:_Convert_ToByte_m395020137
RGg:_Plane_ToString_m3541300360_AdjustorThunk
oSb:__Z26Transfer_UnityEngineObjectI24GenerateTypeTreeTransferLb0EEvRK29SerializationCommandArgumentsR31RuntimeSerializationCommandInfo
h2c:_UNITY_FT_GlyphLoader_CheckPoints
P_e:_List_1_System_Collections_ICollection_CopyTo_m1995866425_gshared
fOc:__ZN16b2PolygonContact7DestroyEP9b2ContactP16b2BlockAllocator
hLe:_TextWriter_WriteLine_m1754475888
UDa:__ZN15SharedLightData7PrecalcEv
Bub:__ZN20ScriptPlayableOutputD0Ev
MBa:__ZN10Matrix4x4fmLERKS_
ngj:_InvokableCall_1_Invoke_m769918017_gshared
eq:__ZN4PPtrI9TransformE8TransferI18StreamedBinaryReadILb0EEEEvRT_
wve:_Array_InternalArray__get_Item_TisDouble_t4078015681_m2215331088_gshared
ash:__ZL57PrincipalPolicy_t289802916_CustomAttributesCacheGeneratorP21CustomAttributesCache
oVb:__Z35Transfer_Blittable_FixedBufferFieldI18StreamedBinaryReadILb1EEsEvRK29SerializationCommandArgumentsR31RuntimeSerializationCommandInfo
Daf:_Collection_1_ClearItems_m3446813399_gshared
G6h:_Dictionary_2_Init_m3666073812_gshared
cFg:_UnityWebRequest_InternalSetUrl_m1669953255
f0e:_List_1_AsReadOnly_m1681105545_gshared
k_a:__ZN15ArchiveReadFileD0Ev
Ktf:_SymmetricTransform_TransformBlock_m1524716432
ble:_Array_compare_TisColor32_t874517518_m3842009370_gshared
h2g:__Z105RuntimeInvoker_Boolean_t3825574718_RuntimeObject_Vector2_t2243707579_RuntimeObject_Vector2U26_t3911752445PFvvEPK10MethodInfoPvPS4_
Wcd:__ZN11UnityEngine15PlatformWrapper18GetOperatingSystemEv
bQa:__ZNSt3__26vectorIP14DataBufferGLESNS_9allocatorIS2_EEE21__push_back_slow_pathIKS2_EEvRT_
qPi:_InternalEnumerator_1__ctor_m2458691472_AdjustorThunk
hkf:_ReadOnlyCollection_1_System_Collections_Generic_ICollectionU3CTU3E_Remove_m974176789_gshared
Zae:_Delegate_return_type_match_m4278947849
bOd:_InputField_GenerateHightlight_m1346735465
G2i:_Uri_ParseNoExceptions_m1151989845
src:__Z40SpriteRenderer_CUSTOM_GetSprite_INTERNALP12Il2CppObject
J1d:_GC_SuppressFinalize_m953228702
d2c:_FT_MSB
Dzf:_MD2__ctor_m3133818738
eAg:_GUIStyle_get_clipping_m2754700641
wRj:__ZN15dense_hashtableINSt3__24pairIK10KeyWrapperINS1_IP11Il2CppClassjEEES4_EES6_N6il2cpp8metadata14ArrayClassHashEN14dense_hash_mapIS6_S4_SB_NS6_14EqualsComparerINSA_17ArrayClassCompareEEENS0_9allocatorIS8_EEE9SelectKeyESF_SH_E3endEv
wZf:_SoapServices_PreLoad_m490411755
M1g:__Z97RuntimeInvoker_Void_t1841601450_PlayableHandleU26_t4210769902_Int32_t2071877448_Int32_t2071877448PFvvEPK10MethodInfoPvPS4_
ZQg:__Z63RuntimeInvoker_RuntimeObject_Int32_t2071877448_SByte_t454417549PFvvEPK10MethodInfoPvPS4_
Oak:__ZN6il2cpp6icalls8mscorlib4Mono8Security12Cryptography18KeyPairPersistence10_CanSecureEP12Il2CppString
OEi:_Action_1_Invoke_m4180501989_gshared
Wki:_Slider__ctor_m3124136916
lRi:_DefaultComparer__ctor_m3180706193_gshared
I0e:_List_1_System_Collections_Generic_IEnumerableU3CTU3E_GetEnumerator_m3625278020_gshared
KHa:__ZN13GfxDeviceGLES14SetRasterStateEPK17DeviceRasterState
qVg:__Z51RuntimeInvoker_Int16_t4041245914_Single_t2076509932PFvvEPK10MethodInfoPvPS4_
yNb:__Z30TransferField_LinearCollectionI14SafeBinaryReadEvRK29SerializationCommandArgumentsR31RuntimeSerializationCommandInfo
TMd:_InputField_set_caretPositionInternal_m231166704
b4i:_Transform_InverseTransformPoint_m2648491174
cEf:_TlsServerHello__ctor_m3032108168
vqa:__ZN14SafeBinaryRead11EndTransferEv
Dlh:__ZL98ILGenerator_t99948092_CustomAttributesCacheGenerator_ILGenerator_Mono_GetCurrentOffset_m3553856682P21CustomAttributesCache
NNb:__ZN14SafeBinaryRead8TransferI8MonoPPtrEEvRT_PKc17TransferMetaFlags
L9h:_Dictionary_2_System_Collections_Generic_ICollectionU3CSystem_Collections_Generic_KeyValuePairU3CTKeyU2CTValueU3EU3E_Remove_m1705959559_gshared
I_a:__ZN24dense_hashtable_iteratorINSt3__24pairIKN4core12basic_stringIcNS2_20StringStorageDefaultIcEEEEP20ArchiveStorageReaderEES6_20StringHash32FunctionIS6_EN14dense_hash_mapIS6_S9_SC_NS0_8equal_toIS6_EE13stl_allocatorISA_L18MemLabelIdentifier54ELi16EEE9SelectKeyESF_SI_EppEv
_Oi:_InternalEnumerator_1_System_Collections_IEnumerator_get_Current_m1533037706_gshared
xEh:__ZL111MonoBehaviour_t1158329972_CustomAttributesCacheGenerator_MonoBehaviour_StartCoroutine_Auto_Internal_m1014513456P21CustomAttributesCache
kTa:__ZN21UniformBufferTFMethod13MapBoneBufferEj
UHf:_RecordProtocol_SendChangeCipherSpec_m3542001341
wre:_Array_InternalArray__set_Item_TisVector3_t2243707580_m1390667454_gshared
euc:__ZN12GUIClipState10BeginOnGUIER10InputEvent
oTj:__ZNSt3__26vectorIcNS_9allocatorIcEEEC2Ej
joc:__Z40Register_UnityEngine_Input_GetKeyDownIntv
Hrf:_KeyPairPersistence_CanSecure_m2251009700
HA:__ZN7mecanim5human14HumanPoseClearERNS0_9HumanPoseERKNS_6bitsetILj70EEE
vLb:__ZN9TextAsset15ThreadedCleanupEv
JWf:_ReturnMessage_get_Properties_m531965085
S8f:_GenericTypeParameterBuilder_IsSubclassOf_m563999142
xee:_Exception_ToString_m627574695
PUc:__ZNSt3__26vectorIN20TextRenderingPrivate8FontImpl7IntRectE13stl_allocatorIS3_L18MemLabelIdentifier34ELi16EEE21__push_back_slow_pathIKS3_EEvRT_
kia:__Z21CompleteFenceInternalR8JobFence
Mvc:__Z30Event_Get_Custom_PropModifiersP12Il2CppObject
sKj:__ZN30dense_hashtable_const_iteratorINSt3__24pairIK10KeyWrapperINS1_IPK9FieldInfoP11Il2CppClassEEEjEES9_17ReflectionMapHashIS8_EN14dense_hash_mapIS9_jSD_NS9_14EqualsComparerINS0_8equal_toIS8_EEEENS0_9allocatorISB_EEE9SelectKeyESI_SK_E30advance_past_empty_and_deletedEv
bai:_Dictionary_2_ContainsValue_m2375979648_gshared
Nx:__ZN7mecanim9animation16CreateClipOutputEPKNS0_4ClipERNS_6memory9AllocatorE
Gpe:_Array_InternalArray__Insert_TisDecimal_t724701077_m1429254816_gshared
bkj:_ListPool_1_Get_m2998644518_gshared
NYb:__ZN18StreamedBinaryReadILb0EE21TransferSTLStyleArrayI13dynamic_arrayIyLj8EEEEvRT_17TransferMetaFlags
Img:_TimeSpan_get_Days_m1002111510
bFh:__ZL103SpriteRenderer_t1209076198_CustomAttributesCacheGenerator_SpriteRenderer_GetSprite_INTERNAL_m2252122683P21CustomAttributesCache
JFa:__ZNSt3__218__stable_sort_moveIRN10vector_mapI17ScriptingClassPtrPKN5Unity4TypeENS_4lessIS2_EENS_9allocatorINS_4pairIS2_S6_EEEEE13value_compareENS_11__wrap_iterIPSB_EEEEvT0_SJ_T_NS_15iterator_traitsISJ_E15difference_typeEPNSM_10value_typeE
QZb:__ZN6Shader21AwakeFromLoadThreadedEv
Oxa:__ZN6prcoreL17RemapGenericFloatI17TexFormatRGBFloat17TexFormatRGBAHalfEEvPKNS_9InnerInfoE
tWh:__ZL70InputField_t1631627530_CustomAttributesCacheGenerator_m_CharacterLimitP21CustomAttributesCache
x1e:_List_1_get_Capacity_m2443158653_gshared
TEc:__ZN8JSONRead21TransferSTLStyleArrayI13dynamic_arrayI8Vector2fLj4EEEEvRT_18MemLabelIdentifier17TransferMetaFlags
RBg:_LayerMask_op_Implicit_m2135076047
tid:__ZN13RuntimeStaticINSt3__26vectorIjNS0_9allocatorIjEEEELb0EE16StaticInitializeEPv
Y2:__ZN13UploadHandler10OnSentDataEj
_bk:__ZN6il2cpp2os9SemaphoreC2Eii
YGi:_InternalEnumerator_1_get_Current_m2960188445_AdjustorThunk
OYg:__Z56RuntimeInvoker_UriHostNameType_t2148127109_RuntimeObjectPFvvEPK10MethodInfoPvPS4_
PNb:__ZNSt3__26vectorI8MonoPPtr13stl_allocatorIS1_L18MemLabelIdentifier1ELi16EEE8__appendEj
vmi:_Text_set_alignByGeometry_m1514652028
Y4a:__ZN14qsort_internal30FindAndMovePivotToLastPositionIP17RODataReplacementi19ROSorterReplacementEEvT_S4_T0_T1_
vTa:__ZN15UniformTFMethod20IsBoneCountSupportedEi
Mod:_X509Certificate_GetExpirationDateString_m2351894475
isb:__ZN15SerializeTraitsI13dynamic_arrayI21PlatformShaderDefinesLj4EEE19ResizeSTLStyleArrayERS2_i18MemLabelIdentifier
lHe:_FileStream_get_Position_m465478322
bzj:__ZN14dense_hash_setI10KeyWrapperIPK19Il2CppGenericMethodEN6il2cpp8metadata23Il2CppGenericMethodHashENS4_14EqualsComparerINS6_26Il2CppGenericMethodCompareEEENSt3__29allocatorIS4_EEEC2EjRKS7_RKSA_
_lk:dynCall_viidi
Kpe:_Array_InternalArray__Insert_TisInt64_t909078037_m3039874636_gshared
ATd:_Convert_ToInt16_m1787678274
fni:_ToggleGroup_NotifyToggleOn_m997426227
mx:__ZN8Playable18OnApplicationPauseEb
cIf:_RSASslSignatureDeformatter_SetKey_m1150106904
AMh:__ZL74Event_t3028476042_CustomAttributesCacheGenerator_Event_Cleanup_m1195902101P21CustomAttributesCache
y9:__ZN24ScriptingMethodFiltering17FilterOnSignatureENS_18MethodSearchFilterE
i6f:_TypeBuilder_get_Module_m1668298460
Ohi:_Scrollbar_ClickRepeat_m3403943364
yNc:__ZThn4_N16PhysicsManager2D12BeginContactEP9b2Contact
ela:__ZN18ScreenManagerWebGL13SetLockCursorE14CursorLockMode
B1c:_cf2_arrstack_finalize
DNe:_MonoType_GetMethodsByName_m1854415088
A0h:_Enumerator_get_CurrentValue_m3147984131_gshared
_6f:_DerivedType_GetMethods_m165266904
ptf:_RSAManaged_EncryptValue_m4089823119
i7b:__ZN13MonoBehaviour19HandleNotificationsEPviR11MessageData
Bck:__ZN6il2cpp2os9EventImpl5ResetEv
Uai:_DefaultComparer_GetHashCode_m926363525_gshared
Nyg:_GUIStyle_set_focused_m1547304893
Oii:_ScrollRect_get_verticalScrollbar_m2455612493
$He:_ReadDelegate_Invoke_m2091885836
h8f:_TypeBuilder_GetField_m2112455315
zpk:b58
Cpk:b59
D0g:__Z80RuntimeInvoker_PlayableHandle_t213697122_PlayableGraph_t1041204988_RuntimeObjectPFvvEPK10MethodInfoPvPS4_
O0a:__ZN25CameraStackRenderingState18EndStereoRenderingEv
lpk:b52
mpk:b53
jpk:b50
kpk:b51
ppk:b56
qpk:b57
npk:b54
opk:b55
lpf:_Kernel_Multiply_m3585610531
BBf:_CertificateSelectionCallback_EndInvoke_m3525317639
rV:__ZN4PPtrI15AudioMixerGroupE8TransferI18StreamedBinaryReadILb0EEEEvRT_
vRh:__ZL116PlayableAsset_t2298101656_CustomAttributesCacheGenerator_PlayableAsset_Internal_GetPlayableAssetDuration_m1442951748P21CustomAttributesCache
X6d:_DateTime__ctor_m3604679583_AdjustorThunk
DGh:__ZL96Transform_t3275118058_CustomAttributesCacheGenerator_Transform_INTERNAL_get_position_m1881704498P21CustomAttributesCache
bSd:_SimpleEnumerator_Reset_m1341779532
NIj:__ZNSt3__214__split_bufferINS_12basic_stringIcNS_11char_traitsIcEENS_9allocatorIcEEEERNS4_IS6_EEEC2EjjS8_
Esf:_MACAlgorithm_Core_m2390605245
UNi:_InternalEnumerator_1_System_Collections_IEnumerator_get_Current_m30488070_gshared
c6b:__ZN10GameObject12CleanupClassEv
BKi:_InternalEnumerator_1_System_Collections_IEnumerator_Reset_m2624612805_AdjustorThunk
BMg:__Z77RuntimeInvoker_Byte_t3683104436_RuntimeObject_Int32_t2071877448_RuntimeObjectPFvvEPK10MethodInfoPvPS4_
TTi:_DllImportAttribute__ctor_m1165454237
oIa:__ZN9GfxDevice25SetShaderPropertiesSharedERK19ShaderPropertySheet
$ij:_IndexedSet_1_GetEnumerator_m3646001838_gshared
iPg:__Z96RuntimeInvoker_Int32_t2071877448_RuntimeObject_Int32_t2071877448_Int32_t2071877448_RuntimeObjectPFvvEPK10MethodInfoPvPS4_
eLb:__ZN10MonoScript17MainThreadCleanupEv
I6g:__Z39RuntimeInvoker_KeyValuePair_2_t38854645PFvvEPK10MethodInfoPvPS4_
DOa:__ZN18AsyncUploadManager19AsyncResourceUploadER9GfxDeviceii9TextureID
igi:_VertexHelper_AddUIVertexTriangleStream_m4009409241
TRi:_Comparer_1__ctor_m844571340_gshared
nbc:__ZL25InitializeDefaultMaterialv
sad:__Z53Register_UnityEngine_CanvasRenderer_get_materialCountv
vmg:_WaitHandle_Dispose_m441403862
MXa:__ZN19FileAccessorHandlerD2Ev
BSi:_Comparer_1__ctor_m2941434245_gshared
Jni:_VertexHelper_AddVert_m3290455716
Drh:__ZL56SHA256Managed_t2029745292_CustomAttributesCacheGeneratorP21CustomAttributesCache
zlh:__ZL126GenericTypeParameterBuilder_t1370236603_CustomAttributesCacheGenerator_GenericTypeParameterBuilder_MakeGenericType_m2955814622P21CustomAttributesCache
WEa:__ZN17PersistentManager12UnloadStreamERKN4core12basic_stringIcNS0_20StringStorageDefaultIcEEEEb
dK:__ZN15SerializeTraitsI9OffsetPtrIN7mecanim9animation17BlendTreeConstantEEE8TransferI19StreamedBinaryWriteILb0EEEEvRS4_RT_
Xka:__ZN13ScreenManager17RequestResolutionEiibi
J2f:_DESTransform__ctor_m4096028381
VGj:_il2cpp_unity_liveness_calculation_from_statics
Yte:_Dictionary_2_Do_CopyTo_TisDictionaryEntry_t3048875398_TisDictionaryEntry_t3048875398_m983412647_gshared
oB:__ZNK26AnimatorControllerPlayable11DerivesFromE17ScriptingClassPtr
Xlg:_Scheduler_get_Instance_m1989471839
yOf:_WebProxy_GetProxy_m1249556681
FOf:_WebRequest_System_Runtime_Serialization_ISerializable_GetObjectData_m3377822910
Kyb:__ZN8Renderer8TransferI17RemapPPtrTransferEEvRT_
zdh:__Z76RuntimeInvoker_Boolean_t3825574718_UIVertex_t1204258818_UIVertex_t1204258818PFvvEPK10MethodInfoPvPS4_
U9e:_Collection_1_Contains_m1299140035_gshared
Bpk:_glBlitFramebuffer__wrapper
foe:_Array_InternalArray__ICollection_Add_TisUICharInfo_t3056636800_m968274080_gshared
jkj:_ObjectPool_1__ctor_m1532275833_gshared
rLa:__ZN13GfxDeviceGLES19SetSinglePassStereoE16SinglePassStereo
qdh:__Z72RuntimeInvoker_Boolean_t3825574718_Color32_t874517518_Color32_t874517518PFvvEPK10MethodInfoPvPS4_
q4e:_Queue_1_System_Collections_ICollection_get_IsSynchronized_m3521628381_gshared
ypj:__ZL24UnresolvedVirtualCall_71P12Il2CppObjectS0_S0_iS0_S0_S0_PK10MethodInfo
dgh:__ZL64IntPtr_t_CustomAttributesCacheGenerator_IntPtr__ctor_m3803259710P21CustomAttributesCache
l0e:_List_1_GetIndex_m3262928832_gshared
BUi:_SafeHandle_DangerousRelease_m2167699172
efb:__Z24LookRotationToQuaternionRK8Vector3fS1_P11Quaternionf
cfb:__ZN16ReflectionProbes9GetCameraEv
gti:_AnimatorControllerPlayable_ResolveHash_m3629783965_AdjustorThunk
m2b:__ZL18IsGpuProgramUsable20ShaderGpuProgramTypePK6Shader
Twf:_ArgumentException__ctor_m2105824819
U8c:__ZN2UI6Canvas17SetSortingLayerIDEi
JCd:_BaseMeshEffect_get_graphic_m3358796463
b$j:__ZN6il2cpp2vm11MethodStack23CleanupForCurrentThreadEv
cuj:_Predicate_1_Invoke_m695569038_gshared
TQe:_Enumerator_VerifyState_m825848279_AdjustorThunk
zsb:__ZN20TierGraphicsSettings8TransferI24GenerateTypeTreeTransferEEvRT_
iAj:__ZN15dense_hashtableINSt3__24pairIK10KeyWrapperIN6il2cpp5utils13dynamic_arrayIPK10Il2CppTypeLj4EEEEPFvvEEESA_NS3_8metadata19Il2CppSignatureHashEN14dense_hash_mapISA_SD_SG_NSA_14EqualsComparerINSF_22Il2CppSignatureCompareEEENS0_9allocatorISE_EEE9SelectKeyESK_SM_E16reset_thresholdsEv
hNg:__Z77RuntimeInvoker_Int32_t2071877448_RuntimeObject_RuntimeObject_SByte_t454417549PFvvEPK10MethodInfoPvPS4_
iPb:__ZN14SafeBinaryRead21TransferSTLStyleArrayI13dynamic_arrayI4AABBLj4EEEEvRT_17TransferMetaFlags
hva:__ZN18UnityPropertySheet8TransferI19StreamedBinaryWriteILb0EEEEvRT_
qGf:_TlsServerCertificate_checkServerIdentity_m3836435780
Zia:__ZNSt3__26__treeINS_12__value_typeIiN11TypeManager18TypeCallbackStructEEENS_19__map_value_compareIiS4_NS_4lessIiEELb1EEENS_9allocatorIS4_EEE7destroyEPNS_11__tree_nodeIS4_PvEE
ruf:_PKCS12_Decrypt_m2353135969
sEi:_PersistentCallGroup_Initialize_m3908067069
udg:_MonoEvent_ToString_m386956596
ZPh:__ZL70RuntimePlatform_t1869584967_CustomAttributesCacheGenerator_FlashPlayerP21CustomAttributesCache
Fse:_Array_Sort_TisRuntimeObject_m3309514378_gshared
dAd:_PointerEventData_get_pointerPress_m880101744
Mra:__ZL19GetCameraTargetRectRK6Camerabb
T2h:_Transform_1_BeginInvoke_m1786442111_gshared
UJh:__ZL137AnimatorControllerPlayable_t1744083903_CustomAttributesCacheGenerator_AnimatorControllerPlayable_PlayInFixedTime_m135407725____fixedTime2P21CustomAttributesCache
WBe:_Int32_GetFormatException_m1729046182
Xfb:__ZN13dynamic_arrayIN10GameObject13ComponentPairELj4EE6insertEPS1_RKS1_
N5e:_Collection_1_get_Count_m3834276648_gshared
onb:__ZN21UnityDefaultAllocatorI17LowLevelAllocatorE10DeallocateEPv
N4:__GLOBAL__sub_I_runtime_camera2_lump_cpp
Tt:__ZN15PackedIntVector8TransferI14SafeBinaryReadEEvRT_
Tbg:_FieldInfo_get_IsLiteral_m267898096
iHh:__ZL105RectTransform_t3349966182_CustomAttributesCacheGenerator_RectTransform_INTERNAL_set_sizeDelta_m1402803191P21CustomAttributesCache
qJf:_SslStreamBase_EndNegotiateHandshake_m1732321201
p3h:_Transform_1_BeginInvoke_m1167293475_gshared
AR:__ZN13AudioListener8DoUpdateEv
bfh:__ZL71SByte_t454417549_CustomAttributesCacheGenerator_SByte_Parse_m1620039654P21CustomAttributesCache
l2d:__Z13bankers_roundd
oHb:__ZN14SafeBinaryRead8TransferI5RectTIfEEEvRT_PKc17TransferMetaFlags
xi:_emscripten_glGenFramebuffers
r$d:_Hashtable_CopyTo_m2778915805
Uia:__ZN17BaseObjectManager16StaticInitializeEPv
o6f:_ConstructorBuilder_get_IsCompilerContext_m2796899803
rBh:__ZL97Component_t3819376471_CustomAttributesCacheGenerator_Component_GetComponentsInChildren_m843288020P21CustomAttributesCache
Qle:_Array_IndexOf_TisUIVertex_t1204258818_m613887160_gshared
sIb:__ZN18StreamedBinaryReadILb0EE19TransferSTLStyleMapINSt3__28multimapIN4core12basic_stringIcNS4_20StringStorageDefaultIcEEEE4PPtrI6ObjectENS2_4lessIS8_EE13stl_allocatorINS2_4pairIKS8_SB_EEL18MemLabelIdentifier51ELi16EEEEEEvRT_17TransferMetaFlags
GFd:_FloatTween_GetDuration_m1757342579_AdjustorThunk
F$h:__ZL188U3CPlayDeadAnimationU3Ec__Iterator0_t561160527_CustomAttributesCacheGenerator_U3CPlayDeadAnimationU3Ec__Iterator0_System_Collections_Generic_IEnumeratorU3CobjectU3E_get_Current_m1169688788P21CustomAttributesCache
M2d:_DateTime_CoreParse_m2014268103
PZe:_List_1__ctor_m3698273726_gshared
xvi:_Application_InvokeOnBeforeRender_m799598445
sob:__ZN9Behaviour23VirtualRedirectTransferER17RemapPPtrTransfer
QAc:__Z18Transfer_BlittableI9JSONWriteLb0EyEvRK29SerializationCommandArgumentsR31RuntimeSerializationCommandInfo
Sra:__ZN13RenderTexture15ThreadedCleanupEv
Zgd:__ZNK20UnityWebRequestProtoI19TransportJavaScript16AtomicRefCounter14RedirectHelper14ResponseHelper15DownloadHandler13UploadHandler12HeaderHelper14AsyncOperationE19GetDownloadProgressEv
Qke:_Array_BinarySearch_TisRuntimeObject_m3361740551_gshared
fvb:__ZN12CubemapArray23VirtualRedirectTransferER14SafeBinaryRead
o2f:_CryptographicException__ctor_m1012314467
cid:__Z65Register_UnityEngine_Networking_UnityWebRequest_InternalSetMethodv
okf:_ReadOnlyCollection_1_System_Collections_IList_Add_m616574295_gshared
XBe:_Int32_ProcessTrailingWhitespace_m2812079777
hBa:__ZN18ProceduralMaterial9ReloadAllEbb
Aqc:__Z43RectTransform_CUSTOM_INTERNAL_set_sizeDeltaP12Il2CppObjectRK13Vector2fIcall
tOf:_WebProxy__ctor_m3679722173
zJi:_InternalEnumerator_1_Dispose_m2743309309_AdjustorThunk
kXj:__ZN15dense_hashtableINSt3__24pairIK10KeyWrapperINS1_IPKcS4_EEEiEES6_24NamespaceAndNamePairHashN14dense_hash_mapIS6_iS9_NS6_14EqualsComparerI26NamespaceAndNamePairEqualsEENS0_9allocatorIS8_EEE9SelectKeyESD_SF_E6insertERKS8_
Zqa:__ZN24GenerateTypeTreeTransfer18BeginArrayTransferEPKcS1_Ri17TransferMetaFlags
JOa:__Z16DecompressCrunchPKhRjR13TextureFormatiiii18MemLabelIdentifier
z2e:_List_1__ctor_m2082969060_gshared
nm:___syscall51
rm:___syscall54
WXj:__ZNSt3__26__treeINS_12__value_typeIP24Il2CppReflectionAssemblyPvEENS_19__map_value_compareIS3_S5_NS_4lessIS3_EELb1EEENS_9allocatorIS5_EEE12__find_equalIS3_EERPNS_16__tree_node_baseIS4_EESH_RKT_
Dhj:_UnityAction_2_Invoke_m1994351568_gshared
mFg:_UnityWebRequest_GetDownloadHandler_m982989709
$Tb:__Z18Transfer_BlittableI19StreamedBinaryWriteILb0EELb1EjEvRK29SerializationCommandArgumentsR31RuntimeSerializationCommandInfo
WG:__ZNK8Animator20IsAnyRendererVisibleEv
i2c:_cff_builder_add_point1
eYj:__ZN6il2cpp2vm5Image21GetCachedResourceDataEPK11Il2CppImageRKNSt3__212basic_stringIcNS5_11char_traitsIcEENS5_9allocatorIcEEEE
uKd:_HorizontalOrVerticalLayoutGroup_set_childControlWidth_m4209477792
rXg:__Z54RuntimeInvoker_TimeSpan_t3430258949_Double_t4078015681PFvvEPK10MethodInfoPvPS4_
Une:_Array_InternalArray__ICollection_Add_TisUInt32_t2149682021_m2629016323_gshared
GMb:__Z18Transfer_BlittableI14SafeBinaryReadLb0E10ColorRGBAfEvRK29SerializationCommandArgumentsR31RuntimeSerializationCommandInfo
Aa:invoke_iiiiiiiiii
YY:__ZNK7Texture10GetVRUsageEv
ype:_Array_InternalArray__Insert_TisKeyValuePair_2_t888819835_m975554221_gshared
FTg:__Z59RuntimeInvoker_RuntimeObject_Int64_t909078037_RuntimeObjectPFvvEPK10MethodInfoPvPS4_
zAa:__ZN18LoadSceneOperation19IntegrateTimeSlicedEi
gmg:_Scheduler_SchedulerThread_m2209572785
wnf:_SortKeyBuffer_GetResultAndReset_m2516956577
_kb:__ZN10FileSystem19SetCurrentDirectoryERKN4core12basic_stringIcNS0_20StringStorageDefaultIcEEEE
kkj:_ObjectPool_1_get_countAll_m4217365918_gshared
aca:__ZN16ScriptingManager24NotifyScriptCacheReleaseEi
Tyh:__ZL85UriParser_t1012511323_CustomAttributesCacheGenerator_UriParser_OnRegister_m4010407891P21CustomAttributesCache
mlh:__ZL63UnmanagedMemoryStream_t822875729_CustomAttributesCacheGeneratorP21CustomAttributesCache
_kc:__Z47Register_UnityEngine_Coroutine_ReleaseCoroutinev
gS:__ZN15AudioReverbZone13SetFMODValuesEv
lBi:_Component_GetComponentInChildren_m3925629424
B8:__ZL19StaticDestroyShaderPv
ne:_glRenderbufferStorageMultisample
sXf:_SoapTypeAttribute_get_XmlTypeName_m2546866572
uC:__ZN23AnimationPlayableOutput17SetTargetAnimatorEP8Animator
$ff:_ReadOnlyCollection_1_System_Collections_IList_get_IsFixedSize_m158012227_gshared
eej:_X509Chain__ctor_m1113875360
vPb:__Z35Transfer_Blittable_SingleValueFieldI14SafeBinaryReadfEvRT_R17GeneralMonoObjectRK23StaticTransferFieldInfo
LGf:_TlsServerHello_processProtocol_m1241336522
fzh:__ZL79ModulusRing_t80355992_CustomAttributesCacheGenerator_ModulusRing_Pow_m661630322P21CustomAttributesCache
Khe:_Array_InternalArray__ICollection_Remove_TisKeyValuePair_2_t888819835_m1287715465_gshared
NHi:_InternalEnumerator_1_System_Collections_IEnumerator_Reset_m324760031_AdjustorThunk
DXi:_ContextAttribute_IsContextOK_m3281216012
lJe:_PathTooLongException__ctor_m3212099251
w$f:_ObjectManager_RaiseDeserializationEvent_m1611173032
Gqi:_AnimatorControllerPlayable_INTERNAL_CALL_CreateHandleInternal_m1836196929
qv:__ZN17PackedFloatVector8TransferI18StreamedBinaryReadILb0EEEEvRT_
RCh:__ZL88Screen_t786852042_CustomAttributesCacheGenerator_Screen_t786852042____width_PropertyInfoP21CustomAttributesCache
Nvb:__ZN7Cubemap23VirtualRedirectTransferER17RemapPPtrTransfer
Qnc:__Z37Register_UnityEngine_Screen_get_widthv
oHd:_DropdownItem_get_image_m2752143412
npj:__ZL24UnresolvedVirtualCall_60P12Il2CppObjectaPK10MethodInfo
Pec:__ZN22BlockMemoryCacheWriter11GetPathNameEv
PId:_Graphic_Rebuild_m2617722358
Vnh:__ZL86SafeHandle_t2733794115_CustomAttributesCacheGenerator_SafeHandle_SetHandle_m1980208835P21CustomAttributesCache
v8d:_DateTime_ToString_m3108726445_AdjustorThunk
D0:__ZN19CloudServiceHandlerD2Ev
fve:_Array_InternalArray__get_Item_TisTableRange_t2011406615_m602485977_gshared
WNd:_InputField_Append_m2623574152
Mwf:_ApplicationException__ctor_m1120437222
_dg:_MonoMethod__ctor_m4091684020
np:stackAlloc
slc:__Z44Camera_CUSTOM_INTERNAL_CALL_ScreenPointToRayP12Il2CppObjectRK8Vector3fR3Ray
vYa:__ZN25SingleBlockMemoryFileData4LockEPPv
pZa:__ZN12HandlerChain5TouchER13FileEntryData
oag:_MethodBuilder_GetHashCode_m1713271764
Ufd:__ZNK21DownloadHandlerBuffer8GetBytesEv
fBg:_Input_GetKeyDown_m1771960377
R7g:__Z50RuntimeInvoker_Boolean_t3825574718_Link_t865133271PFvvEPK10MethodInfoPvPS4_
U5e:_Collection_1_IsSynchronized_m1319022347_gshared
Fmf:_MSCompatUnicodeTable_GetResource_m3816716847
Dmc:__Z32RectOffset_Get_Custom_PropBottomP12Il2CppObject
$Qd:_Array_CreateInstance_m15016505
eFh:__ZL103DataUtility_t4181890362_CustomAttributesCacheGenerator_DataUtility_INTERNAL_CALL_GetPadding_m1621366113P21CustomAttributesCache
IOb:__ZNSt3__26vectorI17AnimationCurveTplIfE13stl_allocatorIS2_L18MemLabelIdentifier1ELi16EEE6assignINS_11__wrap_iterIPS2_EEEENS_9enable_ifIXaasr21__is_forward_iteratorIT_EE5valuesr16is_constructibleIS2_NS_15iterator_traitsISC_E9referenceEEE5valueEvE4typeESC_SC_
Zhk:_stat
aIi:_InternalEnumerator_1_MoveNext_m3486952605_gshared
$kd:_RijndaelTransform_Decrypt128_m1282993908
Atk:_glUniform2fv__wrapper
Xoe:_Array_InternalArray__ICollection_CopyTo_TisUInt16_t986882611_m3228377237_gshared
xUe:_List_1_Add_m4157722533_gshared
cXh:__ZL68Navigation_t1571958496_CustomAttributesCacheGenerator_m_SelectOnDownP21CustomAttributesCache
yyi:_Bounds_op_Inequality_m2315096783
kHc:__ZN15b2DistanceJoint23InitVelocityConstraintsERK12b2SolverData
ANi:_InternalEnumerator_1_System_Collections_IEnumerator_get_Current_m3065287496_gshared
HNa:__ZN7ApiGLES16SetPatchVerticesEi
HBi:_Component_BroadcastMessage_m1308086896
tkd:_RC2_set_KeySize_m2015782960
ma:invoke_iiiiiiiiiiii
m4e:_Queue_1_GetEnumerator_m2842671368_gshared
Bbf:_Collection_1_SetItem_m3715941382_gshared
uze:_NumberFormatInfo_get_CurrencyGroupSeparator_m2480433019
mPh:__ZL100UnityWebRequest_t254341728_CustomAttributesCacheGenerator_UnityWebRequest_InternalGetUrl_m1739605410P21CustomAttributesCache
fuf:_StrongName_get_PublicKey_m3777577320
lAh:__ZL120AssetBundleCreateRequest_t1038783543_CustomAttributesCacheGenerator_AssetBundleCreateRequest_get_assetBundle_m2931245245P21CustomAttributesCache
ATi:_RuntimeCompatibilityAttribute__ctor_m1331212510
Pie:_PlayableHandle_IsPlayableOfType_TisAnimationLayerMixerPlayable_t3057952312_m964258557_gshared
Bnc:__Z43Register_UnityEngine_GameObject_SendMessagev
ifa:__ZNSt3__26__treeINS_12__value_typeIN4core12basic_stringIcNS2_20StringStorageDefaultIcEEEES6_EENS_19__map_value_compareIS6_S7_NS_4lessIS6_EELb1EEE13stl_allocatorIS7_L18MemLabelIdentifier12ELi16EEE7destroyEPNS_11__tree_nodeIS7_PvEE
Mvj:__ZN6il2cpp2vm17SetupFieldsLockedEP11Il2CppClassRKNS_2os12FastAutoLockE
BV:__ZN11AudioSourceD0Ev
Uzi:_CanvasRenderer_set_hasPopInstruction_m1388844875
cWe:_List_1_System_Collections_ICollection_CopyTo_m1530390632_gshared
gdf:_Collection_1_System_Collections_IEnumerable_GetEnumerator_m1452790461_gshared
lJi:_InternalEnumerator_1_System_Collections_IEnumerator_Reset_m3194282029_AdjustorThunk
zlb:__ZN16MemoryFileSystem4NameEv
pYe:__ZN21InterfaceFuncInvoker0I18Color32_t874517518E6InvokeEjP11Il2CppClassP12Il2CppObject
wxd:_BaseRaycaster_OnEnable_m3641767070
s2e:_List_1_ToArray_m2810936944_gshared
pMe:_MissingMemberException_get_Message_m2763732423
vyf:_PrimeGeneratorBase_get_PrimalityTest_m308005118
Ogh:__ZL71Enum_t2459695545_CustomAttributesCacheGenerator_Enum_Format_m2294492821P21CustomAttributesCache
Pzg:_GUIStyle_Internal_CalcSize_m1309259680
nvc:__ZNK8GUIStyle8CalcSizeER10GUIContent
KVe:_List_1_CheckIndex_m2328469916_gshared
fXg:__Z75RuntimeInvoker_RuntimeObject_RuntimeObject_Decimal_t724701077_RuntimeObjectPFvvEPK10MethodInfoPvPS4_
X2e:_List_1_AddRange_m3345533268_gshared
IVc:_UNITY_FT_New_Size
aP:__Z96Register_UnityEngine_Animations_AnimatorControllerPlayable_INTERNAL_CALL_PlayInFixedTimeInternalv
u3e:_List_1_get_Item_m3157283227_gshared
Vke:__ZN21InterfaceFuncInvoker2Ii38CustomAttributeNamedArgument_t94157543S0_E6InvokeEjP11Il2CppClassP12Il2CppObjectS0_S0_
_gj:_InvokableCall_4_Invoke_m1555001411_gshared
V5d:_Convert_ToString_m2915777777
Jva:__ZNSt3__27__sort4IRPFbRKNS_4pairIN9ShaderLab16FastPropertyNameEN18UnityPropertySheet11UnityTexEnvEEES8_EPS6_EEjT0_SD_SD_SD_T_
x1c:_cf2_hintmap_build
Aka:__ZN15dense_hashtableINSt3__24pairIKN4core12basic_stringIcNS2_20StringStorageDefaultIcEEEE10vector_setI4PPtrI11SpriteAtlasENS0_4lessISB_EE13stl_allocatorISB_L18MemLabelIdentifier79ELi16EEEEES6_20StringHash32FunctionIS6_EN14dense_hash_mapIS6_SH_SK_NS0_8equal_toIS6_EESE_ISI_LSF_79ELi16EEE9SelectKeyESN_SO_E5clearEv
l$c:_Line_Up
kOe:_MonoType_GetGenericTypeDefinition_m2363776160
_3e:_Queue_1__ctor_m1845245813_gshared
SEf:_Context_set_SentConnectionEnd_m2641458842
ue:_emscripten_glBufferSubData
oUd:_Buffer_BlockCopyInternal_m2627156229
BQb:__Z18Transfer_BlittableI17RemapPPtrTransferLb1EyEvRK29SerializationCommandArgumentsR31RuntimeSerializationCommandInfo
EKd:_Image_set_overrideSprite_m3362535904
fxd:_ExecuteEvents_get_pointerExitHandler_m3250605428
Qwa:__ZN6prcoreL12RemapGenericI15TexFormatRGB88817TexFormatARGB8888EEvPKNS_9InnerInfoE
Op:__Z17CalculateGlobalRS23TransformAccessReadOnly
H6g:__Z70RuntimeInvoker_DictionaryEntry_t3048875398_RuntimeObject_RuntimeObjectPFvvEPK10MethodInfoPvPS4_
U_f:__ZN21InterfaceFuncInvoker1IP12Il2CppObject28StreamingContext_t1417235061E6InvokeEjP11Il2CppClassS1_S2_
Ryi:_Camera_ScreenPointToRay_m614889538
fpf:_Kernel_multiByteDivide_m735279869
t9h:_Dictionary_2_ToTValue_m542772656_gshared
gfd:__ZN23UnityPurchasingSettings10InitializeER6Object
Glg:_Thread_GetNewManagedId_internal_m3211695465
Nug:_SkinChangedDelegate_Invoke_m2801964040
Awe:_ScriptableObject_CreateInstance_TisRuntimeObject_m926060499_gshared
qOa:__ZN17GenericDynamicVBO17DrawChunkInternalERK21DynamicVBOChunkHandle17ShaderChannelMaskS3_P17VertexDeclarationP16DrawBuffersRangeij
rid:__ZN13RuntimeStaticINSt3__26vectorIN5physx25PxVehicleWheelQueryResultENS0_9allocatorIS3_EEEELb0EE16StaticInitializeEPv
DZb:__ZN22MemoryCacherReadBlocks14LockCacheBlockEjPPhS1_
pTd:_Boolean_System_IConvertible_ToChar_m2637404801_AdjustorThunk
Xbh:__Z55RuntimeInvoker_UICharInfo_t3056636800_Int32_t2071877448PFvvEPK10MethodInfoPvPS4_
Lqd:_SecurityContext_Capture_m2535194991
Kpg:_UInt16_System_IConvertible_ToSByte_m3044765342_AdjustorThunk
d7f:_DerivedType_IsArrayImpl_m684825803
$eh:__ZL47Byte_t3683104436_CustomAttributesCacheGeneratorP21CustomAttributesCache
bWg:__Z66RuntimeInvoker_Void_t1841601450_Int64_t909078037_Int32_t2071877448PFvvEPK10MethodInfoPvPS4_
HUc:__ZN20TextRenderingPrivate8FontImpl16CacheFontForTextEPtiifjPK13dynamic_arrayINS_16TextFormatChangeELj4EE
D9g:__Z52RuntimeInvoker_Int32_t2071877448_Vector3_t2243707580PFvvEPK10MethodInfoPvPS4_
Rre:_Array_qsort_TisUIVertex_t1204258818_TisUIVertex_t1204258818_m512606409_gshared
nkd:__Z21ArrayElementTypeCheckP11Il2CppArrayPv
Vsk:_emscripten_glTexSubImage2D__wrapper
_Lf:_NameValueCollection_AsSingleString_m10599052
Qjk:__ZNSt3__212basic_stringIcNS_11char_traitsIcEENS_9allocatorIcEEE6appendEjc
mPe:_Object_InternalGetHashCode_m1371384246
$fi:_Navigation_get_defaultNavigation_m2185194207
JRc:__ZN16PhysicsManager2D20WorldContactFilter2D13ShouldCollideEP9b2FixtureS2_
ODi:_ArgumentCache_get_stringArgument_m3051619173
KCe:_Int32_System_IConvertible_ToSByte_m1449623243_AdjustorThunk
ewf:_AccessViolationException__ctor_m1270251537
ybd:__Z42Register_UnityEngine_Canvas_get_rootCanvasv
xej:_X509ExtensionCollection_IndexOf_m3972100651
MNb:__Z14resize_trimmedINSt3__26vectorI8MonoPPtr13stl_allocatorIS2_L18MemLabelIdentifier1ELi16EEEEEvRT_j
bf:_TTF_RenderText_Solid
Eqg:_UInt32_System_IConvertible_ToInt64_m3091851828
tMe:_MissingMethodException__ctor_m3898429715
SYf:_RemotingConfiguration_RegisterClientProviderTemplate_m514821425
n1h:_Enumerator_System_Collections_IEnumerator_Reset_m3085583937_gshared
qtf:_RSAManaged_ExportParameters_m2873993187
M1d:_Convert__cctor_m926133987
R4e:_Enumerator__ctor_m2816143215_AdjustorThunk
wfd:__ZN11UnityEngine7Connect16PersistentValuesC2Ev
lRf:_X509Chain_FindParent_m404663796
rMe:_MissingMemberException__ctor_m2164043278
Buj:__ZL7log2_32j
lhh:__ZL74RuntimeArray_CustomAttributesCacheGenerator_Array_BinarySearch_m2287427837P21CustomAttributesCache
i9e:_Collection_1_CopyTo_m2282972507_gshared
OCd:_BaseVertexEffect__ctor_m358261091
STf:_Interpreter_GetGroupInfo_m312421921
sRa:__Z15IsIEEE754Format14GraphicsFormat
PQb:__Z19TransferField_ArrayI17RemapPPtrTransfer27Converter_UnityEngineObjectEvRK23StaticTransferFieldInfoR31RuntimeSerializationCommandInfoRT0_
bb:invoke_iifiii
D8a:__ZN19ShaderPropertySheet24SetTextureFromTextureRefERK23FastTexturePropertyNamePK10TextureRef
brh:__ZL53HMACSHA384_t3026079344_CustomAttributesCacheGeneratorP21CustomAttributesCache
Stb:__ZN14RenderSettings8TransferI18StreamedBinaryReadILb0EEEEvRT_
BJa:__ZN13GfxDeviceGLES15UploadTexture2DE9TextureID16TextureDimensionPKhiii14GraphicsFormati18TextureUploadFlags16TextureUsageMode
EEe:_IntPtr_System_Runtime_Serialization_ISerializable_GetObjectData_m21554269_AdjustorThunk
rsd:_Single_GetHashCode_m3102305584_AdjustorThunk
Pte:_Array_swap_TisVector3_t2243707580_m3036634038_gshared
ZT:__ZN4FMOD6System9createDSPEP20FMOD_DSP_DESCRIPTIONPPNS_3DSPE
vPg:__Z41RuntimeInvoker_TypeAttributes_t2229518203PFvvEPK10MethodInfoPvPS4_
YB:__ZN7mecanim9animation26DestroyControllerWorkspaceEPNS0_19ControllerWorkspaceERNS_6memory9AllocatorE
L3i:_UriParser_set_SchemeName_m3624672465
nQ:__ZN4FMOD8ChannelI11EndCallbackEv
kod:_ToBase64Transform_TransformBlock_m2201454137
bvc:__ZN8GUIStyle14SetDefaultFontEPN13TextRendering4FontE
Zag:_OpCode_get_StackBehaviourPop_m3787015663_AdjustorThunk
o_i:_PatternCompiler_EmitCount_m3609178511
pzb:__ZN15QualitySettings23VirtualRedirectTransferER24GenerateTypeTreeTransfer
Ktj:_U3CCreateWhereIteratorU3Ec__Iterator1D_1_System_Collections_Generic_IEnumerableU3CTSourceU3E_GetEnumerator_m2682676065_gshared
kwe:_Component_GetComponent_TisRuntimeObject_m4109961936_gshared
Kzg:_GUIStyle_Internal_GetCursorStringIndex_m1491806746
gTh:__ZL89PointerEventData_t1599784723_CustomAttributesCacheGenerator_U3CpositionU3Ek__BackingFieldP21CustomAttributesCache
AHj:__ZN6il2cpp2os10FileHandleC2Ev
xVg:__Z48RuntimeInvoker_SByte_t454417549_SByte_t454417549PFvvEPK10MethodInfoPvPS4_
RPg:__Z65RuntimeInvoker_Void_t1841601450_SByte_t454417549_SByte_t454417549PFvvEPK10MethodInfoPvPS4_
Wch:__Z54RuntimeInvoker_KeyValuePair_2_t888819835_RuntimeObjectPFvvEPK10MethodInfoPvPS4_
Tch:__Z65RuntimeInvoker_DictionaryEntry_t3048875398_IntPtr_t_RuntimeObjectPFvvEPK10MethodInfoPvPS4_
Bpc:__Z59Register_UnityEngine_MonoBehaviour_Internal_CancelInvokeAllv
Ish:__ZL84Encoding_t663144255_CustomAttributesCacheGenerator_Encoding_GetByteCount_m4104502544P21CustomAttributesCache
Nyd:__ZN23InterfaceActionInvoker1IP25AxisEventData_t1524870173E6InvokeEjP11Il2CppClassP12Il2CppObjectS1_
MXf:_ObjRef_set_TypeInfo_m1661789743
zyj:__ZN30dense_hashtable_const_iteratorINSt3__24pairIK10KeyWrapperIPK19Il2CppGenericMethodEPK26Il2CppGenericMethodIndicesEES6_N6il2cpp8metadata23Il2CppGenericMethodHashEN14dense_hash_mapIS6_SA_SE_NS6_14EqualsComparerINSD_26Il2CppGenericMethodCompareEEENS0_9allocatorISB_EEE9SelectKeyESI_SK_EppEv
qxg:_GUISkin_get_box_m533626169
TKf:_HybridDictionary_Add_m1037587952
uCg:_Mathf_Cos_m238853451
kVc:_UNITY_FT_Request_Metrics
hra:__ZN7Texture8TransferI18StreamedBinaryReadILb0EEEEvRT_
IVj:__ZN6il2cpp6icalls8mscorlib6System10Reflection10MonoMethod29get_IsGenericMethodDefinitionEP22Il2CppReflectionMethod
oSj:__ZN6il2cpp2vm6Thread21AllocThreadStaticDataEi
d1i:__ZN23InterfaceActionInvoker4IiibP19LinkRef_t2090853131E6InvokeEjP11Il2CppClassP12Il2CppObjectiibS1_
O2d:_DateTime_YearMonthDayFormats_m4204607055
oEd:_ColorBlock_set_disabledColor_m3502887543_AdjustorThunk
v2j:__ZN30dense_hashtable_const_iteratorINSt3__24pairIK10KeyWrapperIPK19Il2CppGenericMethodEP10MethodInfoEES6_N6il2cpp8metadata23Il2CppGenericMethodHashEN14dense_hash_mapIS6_S9_SD_NS6_14EqualsComparerINSC_26Il2CppGenericMethodCompareEEENS0_9allocatorISA_EEE9SelectKeyESH_SJ_EppEv
EZ:__Z13RegisterClassI13AudioListenerEvv
tbh:__Z48RuntimeInvoker_Link_t865133271_Int32_t2071877448PFvvEPK10MethodInfoPvPS4_
Xkj:_Aes__ctor_m4020215067
PM:__ZN23AnimationOffsetPlayable11GetPositionEv
iIh:__ZL125AudioClipPlayable_t192218916_CustomAttributesCacheGenerator_AudioClipPlayable_INTERNAL_CALL_SetPauseDelayInternal_m4175269806P21CustomAttributesCache
$zc:__Z18Transfer_BlittableI9JSONWriteLb0E8Vector3fEvRK29SerializationCommandArgumentsR31RuntimeSerializationCommandInfo
Kfa:__ZN13RuntimeStaticI17UniqueIDGeneratorLb0EE13StaticDestroyEPv
$f:_emscripten_glUniform4i
irh:__ZL46MD5_t1507972490_CustomAttributesCacheGeneratorP21CustomAttributesCache
NId:_Graphic_OnDisable_m2360886868
pkj:_ObjectPool_1_Release_m1615270002_gshared
nf:_emscripten_glUniform4f
zj:___unlock
p5j:_GC_default_oom_fn
TO:__Z105Register_UnityEngine_Animations_AnimatorControllerPlayable_INTERNAL_CALL_GetAnimatorClipInfoCountInternalv
vji:_ScrollRect_InternalCalculateOffset_m3083065267
RLi:_InternalEnumerator_1_System_Collections_IEnumerator_Reset_m1561424184_AdjustorThunk
JZd:_Comparer_Compare_m4132969818
mW:__ZN20SoundChannelInstance19setReverbPropertiesEP29FMOD_REVERB_CHANNELPROPERTIES
xOd:_U3CCaretBlinkU3Ec__Iterator0_System_Collections_Generic_IEnumeratorU3CobjectU3E_get_Current_m3541562536
mQi:_InternalEnumerator_1__ctor_m2808001655_AdjustorThunk
XMi:_InternalEnumerator_1_System_Collections_IEnumerator_Reset_m2571770313_AdjustorThunk
_bg:_FieldInfo_get_UMarshal_m1934544188
kM:__ZNK26AnimatorControllerPlayable14IsInTransitionEi
lbi:_DefaultComparer_Equals_m2171836276_gshared
Jja:__ZN13RuntimeStaticI18SpriteAtlasManagerLb0EE13StaticDestroyEPv
fUj:__ZN6il2cpp2vm9Exception18GetFormatExceptionEPKc
eph:__ZL55IMessageSink_t2189618969_CustomAttributesCacheGeneratorP21CustomAttributesCache
Vsc:__Z40Register_UnityEngine_Transform_IsChildOfv
pzg:_GUIStyle_Draw_m1435796321
BXd:_ArrayList_Sort_m923359189
Qmi:_Text_CalculateLayoutInputVertical_m1732119136
smc:__Z45Register_UnityEngine_Display_GetSystemExtImplv
pWa:__ZN9GfxDevice31DrawIndexedNullGeometryIndirectE16GfxPrimitiveTypeP9GfxBuffer15ComputeBufferIDj
Ny:__ZN7mecanim9animation23TransformValuesFromClipEiiiRKNS_10ValueArrayERKNS0_10ClipOutputERKNS0_12ClipBindingsERS1_RNS_14ValueArrayMaskEb
myi:_Bounds_set_center_m2069004927_AdjustorThunk
yvf:_X509Certificate_GetSubjectName_m2120755276
hxc:__Z46GUIStyle_CUSTOM_Internal_DrawWithTextSelectionP12Il2CppObjectR43MonoInternal_DrawWithTextSelectionArguments
yuj:__ZL17log2withScale_128yyi
JEh:__ZL58ResourceRequest_t2560315377_CustomAttributesCacheGeneratorP21CustomAttributesCache
E7c:__ZNSt3__218__insertion_sort_3IRNS_6__lessIN2UI14DepthSortEntryES3_EEPS3_EEvT0_S7_T_
Sdg:_MonoField_CheckGeneric_m1527550038
nha:__ZN13RuntimeStaticI15DirectorManagerLb0EE16StaticInitializeEPv
CDc:__ZN8JSONRead8TransferI23ManagedObjectTransfererEEvRT_PKc17TransferMetaFlagsb
Qyf:_ASN1_get_Value_m2229768312
Qwd:_BaseInput_get_touchCount_m998724785
pGb:__ZN11TimeManager6UpdateEv
fej:_X509Chain_get_Status_m2726750609
oOd:_InputField_get_preferredWidth_m3185355225
$ug:_GUIUtility_get_pixelsPerPoint_m2667928361
icf:_Collection_1_RemoveItem_m1406181352_gshared
ylg:_Thread_SetState_m3198426726
VXd:_ArrayListWrapper_Contains_m1158465965
Cte:_Array_swap_TisColor32_t874517518_m2203309732_gshared
pyf:_BigInteger_op_LessThan_m3825358479
eik:_fflush
JBa:__ZN17LightProbeContext4InitERK16LightmapSettingsRK14RenderSettings
DTd:_Convert_ToInt32_m55151042
Uck:__GLOBAL__sub_I_Error_cpp
B0i:_Alternation_GetWidth_m4218808325
Wkf:_ReadOnlyCollection_1_System_Collections_IList_Insert_m2651065875_gshared
nva:__ZN10ColorRGBAf8TransferI19StreamedBinaryWriteILb0EEEEvRT_
AXc:_ft_bitmap_glyph_bbox
Kwe:_Component_GetComponentsInParent_TisRuntimeObject_m2092455797_gshared
fMf:_TypeConverterAttribute__ctor_m4061167050
N3e:_Enumerator_MoveNext_m3315718998_gshared
Qtg:_Font_add_textureRebuilt_m1282639736
mHh:__ZL75SpriteAtlasManager_t308281693_CustomAttributesCacheGenerator_atlasRequestedP21CustomAttributesCache
nI:__ZN14SafeBinaryRead21TransferSTLStyleArrayI22OffsetPtrArrayTransferI9OffsetPtrIN7mecanim12statemachine21SelectorStateConstantEEEEEvRT_17TransferMetaFlags
m9h:_Dictionary_2_ContainsValue_m2760581195_gshared
_6j:_GC_reclaim_uninit
Tcb:__Z34ProcessIndexListIsNodeVisibleStep2RK22SceneCullingParametersPK9SceneNodePK4AABBR9IndexList
cLb:__ZN10MonoScriptD2Ev
fxa:__ZN6prcoreL12RemapGenericI17TexFormatARGB888817TexFormatBGRA8888EEvPKNS_9InnerInfoE
Cli:_Slider_OnRectTransformDimensionsChange_m4109401172
pOf:_WebHeaderCollection_Get_m3391944907
_nc:__Z39Input_CUSTOM_INTERNAL_get_mousePositionP8Vector3f
m_c:_tt_cmap13_char_next
nZf:_ServerIdentity__ctor_m1576469955
c0a:__ZN9ShaderLab4Pass16SetupPassOptionsEv
Qij:_UnityEvent_4__ctor_m3102731553_gshared
kh:_JS_Sound_ReleaseInstance
OPh:__ZL72IL2CPPStructAlignmentAttribute_t130316838_CustomAttributesCacheGeneratorP21CustomAttributesCache
CIa:__ZN13GfxDeviceGLES19DrawBuffersIndirectEP9GfxBufferPK18VertexStreamSourceiP17VertexDeclaration17ShaderChannelMask16GfxPrimitiveType15ComputeBufferIDj
Boi:_AnimationClipPlayable__ctor_m1126286616
r$e:_List_1_Shift_m439051997_gshared
y4i:_Renderer_get_sortingLayerID_m2403577271
WFd:_DefaultControls_CreateScrollbar_m770089625
jUi:_InAttribute__ctor_m1401060713
Erk:_emscripten_glPixelStorei__wrapper
gYg:__Z98RuntimeInvoker_Void_t1841601450_Int32_t2071877448_Int32_t2071877448_SByte_t454417549_RuntimeObjectPFvvEPK10MethodInfoPvPS4_
Q9d:_Decimal_System_IConvertible_ToDecimal_m1541432424_AdjustorThunk
RYb:__Z29Transfer_Blittable_ArrayFieldI18StreamedBinaryReadILb0EEaEvRT_R9ArrayInfoRK23StaticTransferFieldInfo
Oqc:__Z21Resources_CUSTOM_LoadP12Il2CppStringP12Il2CppObject
Fm:FUNCTION_TABLE_diddi
_vd:_EncoderExceptionFallbackBuffer__ctor_m3538569575
Vqc:__Z26Material_CUSTOM_SetIntImplP12Il2CppObjectii
FBe:_Int16_System_IConvertible_ToSingle_m3277935657_AdjustorThunk
BEj:__ZNSt3__26vectorIPK10MethodInfoNS_9allocatorIS3_EEE21__push_back_slow_pathIRKS3_EEvOT_
zui:_AnimatorControllerPlayable_HasState_m3003093532_AdjustorThunk
k7c:__ZNK2UI14CanvasRenderer22GetTypeVirtualInternalEv
dYi:_InternalRemotingServices__cctor_m3821625125
Qmc:__Z42Register_UnityEngine_RectOffset_get_bottomv
Cig:_StringBuilder_Insert_m3322917127
rai:_DefaultComparer_Equals_m724229128_gshared
N_e:_List_1__cctor_m1337542316_gshared
c2h:_Enumerator_VerifyCurrent_m1702320752_AdjustorThunk
oFi:_ArrayReadOnlyList_1_Clear_m2539474626_gshared
PVf:__ZN21InterfaceFuncInvoker0IP24ObjectU5BU5D_t3614634134E6InvokeEjP11Il2CppClassP12Il2CppObject
thj:_UnityAction_1_EndInvoke_m2603848420_gshared
q4d:_Convert_ToDouble_m3520060872
Zqk:_emscripten_glUniform1f__wrapper
Hlk:dynCall_di
iIf:_SslCipherSuite_ComputeServerRecordMAC_m1876572367
rUc:__ZN20TextRenderingPrivate19NativeTextGeneratorC2ERK11UTF16StringPNS_8FontImplE11ColorRGBA32ifRK8Vector2fbifiibffbbbP13dynamic_arrayIN2UI8UIVertexELj4EE
Izc:__Z28RegisterModule_JSONSerializev
Nkg:_Interlocked_CompareExchange_m3227034792
Rid:_HashAlgorithm_get_Hash_m931854461
hHj:_il2cpp_monitor_enter
sRi:_DefaultComparer_Compare_m3564013922_gshared
Q3b:__ZN2UI13RectTransform8TransferI14SafeBinaryReadEEvRT_
MAc:__Z35Transfer_Blittable_FixedBufferFieldI9JSONWriteaEvRK29SerializationCommandArgumentsR31RuntimeSerializationCommandInfo
xgc:__Z20IsHumanControllingUsv
o1a:__ZNK19RenderEventsContext21ExecuteCommandBuffersEijR17ShaderPassContextR15RenderNodeQueueP19ProfilerInformationi
Maf:_Collection_1_RemoveAt_m3454169520_gshared
WNh:__ZL99GUIStyle_t1799908754_CustomAttributesCacheGenerator_GUIStyle_INTERNAL_get_contentOffset_m2667265678P21CustomAttributesCache
O5:__ZNK20DynamicHeapAllocatorI17LowLevelAllocatorE10GetPtrSizeEPKv
Ys:__ZN7mecanim5human9HumanGoal8TransferI14SafeBinaryReadEEvRT_
_ob:__ZN10systeminfo21GetPersistentDataPathEv
HGd:_Dropdown_set_value_m2945561009
tIa:__ZN13GfxDeviceGLES17DestroyGpuProgramEPK10GpuProgram
mze:_GregorianCalendar_GetMonth_m523739832
iMb:__Z44InitializeTransferFunctionScriptingTraitsForI18StreamedBinaryReadILb0EEEvR31TransferFunctionScriptingTraits
R8a:__ZNSt3__218__insertion_sort_3IR23CompareReflectionProbesP31RuntimeReflectionProbeBlendInfoEEvT0_S5_T_
ZQb:__ZN12NativeBufferI27Converter_SimpleNativeClassI8GradientEE15SetupForWritingER9ArrayInfo
Wja:__ZNSt3__213__stable_sortIRNS_4lessIN4core12basic_stringIcNS2_20StringStorageDefaultIcEEEEEENS_11__wrap_iterIPS6_EEEEvT0_SC_T_NS_15iterator_traitsISC_E15difference_typeEPNSF_10value_typeEi
Bgf:_ReadOnlyCollection_1_System_Collections_ICollection_get_IsSynchronized_m2987885125_gshared
cug:_GameObject_AddComponent_m3757565614
Mka:__ZN12_GLOBAL__N_113StaticDestroyEPv
ayj:__ZN30dense_hashtable_const_iteratorINSt3__24pairIK10KeyWrapperIPKcEP11Il2CppClassEES5_N6il2cpp5utils11StringUtils12StringHasherIS4_EEN14dense_hash_mapIS5_S8_SE_NS5_14EqualsComparerINSB_13VmStringUtils21CaseSensitiveComparerEEENS0_9allocatorIS9_EEE9SelectKeyESJ_SL_EppEv
cBe:_Guid_ToString_m51661589
juc:__ZNK8GUIStyle4DrawER8GUIStateRK5RectTIfER10GUIContentbbbb
c7h:_Dictionary_2__ctor_m1512192236_gshared
hmi:_Text_set_font_m1095513810
Ivk:_glUnmapBuffer__wrapper
E7d:_DateTime_System_IConvertible_ToUInt32_m1363211018_AdjustorThunk
HLd:_InputField_get_cachedInputTextGenerator_m881618486
vzi:_Canvas_get_rootCanvas_m1790974328
Uoc:__Z32Mesh_CUSTOM_ExtractArrayFromListP12Il2CppObject
U4f:_Binder_get_DefaultBinder_m965620943
qTh:__ZL87PointerEventData_t1599784723_CustomAttributesCacheGenerator_U3CbuttonU3Ek__BackingFieldP21CustomAttributesCache
fEc:__ZN8JSONRead21TransferSTLStyleArrayINSt3__26vectorI8Gradient13stl_allocatorIS3_L18MemLabelIdentifier1ELi16EEEEEEvRT_17TransferMetaFlags
wFf:_SecurityParameters_Clear_m3409219757
MGb:__ZNSt3__218__insertion_sort_3IRNS_6__lessINS_4pairIPKN5Unity4TypeE7Hash128EES8_EEPS8_EEvT0_SC_T_
W_i:_PatternCompiler_EmitAlternationEnd_m889639343
zSb:__ZN10RectOffset8TransferI24GenerateTypeTreeTransferEEvRT_
$Rd:_SimpleEnumerator_get_Current_m482975946
whc:__Z18GetResourceManagerv
Kik:_srand
ELj:__ZNK15dense_hashtableINSt3__24pairIK10KeyWrapperINS1_IPK10MethodInfoP11Il2CppClassEEEjEES9_17ReflectionMapHashIS8_EN14dense_hash_mapIS9_jSD_NS9_14EqualsComparerINS0_8equal_toIS8_EEEENS0_9allocatorISB_EEE9SelectKeyESI_SK_E10test_emptyERK30dense_hashtable_const_iteratorISB_S9_SD_SM_SI_SK_E
rNe:_MonoTypeInfo__ctor_m1398838196
r7c:__ZN2UI13CanvasManager19RemoveDirtyRendererEPNS_6CanvasEPNS_14CanvasRendererE
TJg:_Rect_get_position_m24550734
jni:_Toggle_Rebuild_m929023818
yzj:__ZN15dense_hashtableI10KeyWrapperIPK17Il2CppGenericInstES4_N6il2cpp8metadata21Il2CppGenericInstHashEN14dense_hash_setIS4_S7_NS4_14EqualsComparerINS6_24Il2CppGenericInstCompareEEENSt3__29allocatorIS4_EEE8IdentityESB_SE_E12resize_deltaEjj
Nna:__Z15GetIApplicationv
Kxi:_AudioClip_InvokePCMSetPositionCallback_Internal_m2304858844
Icd:__ZN11UnityEngine15PlatformWrapper25GetGraphicsRendererStringEv
CNd:_InputField_KeyPressed_m3066588581
J7i:_Time_get_unscaledTime_m862335845
rJh:__ZL129AnimatorControllerPlayable_t1744083903_CustomAttributesCacheGenerator_AnimatorControllerPlayable_CrossFadeInFixedTime_m3006052409P21CustomAttributesCache
Hki:_Selectable_DoStateTransition_m539253088
tnd:_SHA512_Create_m439875055
h4:__ZN11UnityEngine15CloudWebService17WebFileDownloaderINS0_20WebRequestRestClientENS0_23WebRequestRestHeaderMapEED2Ev
$b:invoke_vi
lnd:_SHA384Managed_update_m2629600295
bMc:__ZNSt3__26vectorINS0_IN10ClipperLib8IntPointENS_9allocatorIS2_EEEENS3_IS5_EEE7reserveEj
jXa:__ZN15dense_hashtableINSt3__24pairIKN4core12basic_stringIcNS2_20StringStorageDefaultIcEEEEP20ArchiveStorageReaderEES6_20StringHash32FunctionIS6_EN14dense_hash_mapIS6_S9_SC_NS0_8equal_toIS6_EE13stl_allocatorISA_L18MemLabelIdentifier54ELi16EEE9SelectKeyESF_SI_ED2Ev
Zb:invoke_vd
xb:invoke_vf
YOi:_InternalEnumerator_1__ctor_m32322958_AdjustorThunk
Hda:__ZNK10GameObject8IsActiveEv
FOe:_NumberFormatter__cctor_m1641464619
s1f:_SByte_System_IConvertible_ToUInt32_m4256495110
szd:_PointerEventData_set_eligibleForClick_m2036057844
hRa:__ZN18GfxFramebufferGLES23SetupDefaultFramebufferEPP17RenderSurfaceBaseS2_N2gl6HandleILNS3_10ObjectTypeE9EEE
mik:_mbsinit
Zyg:_GUIStyle_get_Internal_clipOffset_m4237737448
sSh:__ZL70EventSystem_t3466835263_CustomAttributesCacheGenerator_m_FirstSelectedP21CustomAttributesCache
C_h:__ZL78U3CShowGameOverScreenU3Ec__Iterator1_t621376139_CustomAttributesCacheGeneratorP21CustomAttributesCache
ula:__ZN13ScreenManager18RequestOrientationE17ScreenOrientation
jwj:__ZN6il2cpp2vm5Class12SetupMethodsEP11Il2CppClass
bkc:__Z39DeleteLastPathNameComponentWithAnySlashRKN4core12basic_stringIcNS_20StringStorageDefaultIcEEEE
luc:__ZN10GUIManager14InitGUIManagerEv
buh:__ZL62ApplicationException_t474868623_CustomAttributesCacheGeneratorP21CustomAttributesCache
pWh:__ZL68InputField_t1631627530_CustomAttributesCacheGenerator_m_KeyboardTypeP21CustomAttributesCache
Nni:_VerticalLayoutGroup_CalculateLayoutInputHorizontal_m497637066
RCd:_Button_get_onClick_m1595880935
Kjj:_ListPool_1_Release_m3716853512_gshared
vti:_AnimatorControllerPlayable_CrossFadeInFixedTimeInternal_m1452579496
vUg:__Z134RuntimeInvoker_Int32_t2071877448_RuntimeObject_Int32_t2071877448_Int32_t2071877448_RuntimeObject_Int32_t2071877448_Int32U26_t455636984PFvvEPK10MethodInfoPvPS4_
ZRi:_Comparer_1_System_Collections_IComparer_Compare_m1635186002_gshared
n4i:_RectTransformUtility_PixelAdjustPoint_m560908615
EYi:_MethodCall__ctor_m4106494862
xQg:__Z167RuntimeInvoker_Void_t1841601450_SByte_t454417549_SByte_t454417549_SByte_t454417549_SByte_t454417549_SByte_t454417549_SByte_t454417549_SByte_t454417549_SByte_t454417549PFvvEPK10MethodInfoPvPS4_
o4f:_Module_IsResource_m663979284
xxc:__Z37Register_UnityEngine_GUIStyle_Cleanupv
Pa:invoke_iiifii
uIg:_PlayableOutputHandle_CompareVersion_m3789892846
hsc:__Z39Register_UnityEngine_Time_set_timeScalev
Fbc:__ZN8GUILayer12AddToManagerEv
mDh:__ZL109TouchScreenKeyboard_t601950206_CustomAttributesCacheGenerator_TouchScreenKeyboard_Open_m3410222954____secure4P21CustomAttributesCache
UEj:__ZN6il2cpp6icalls8mscorlib6System8MonoType13IsPointerImplEP20Il2CppReflectionType
a4d:_Convert_ToDecimal_m2284596541
psi:_AnimatorControllerPlayable_GetLayerIndex_m747049736
Ti:_emscripten_glFramebufferRenderbuffer
xzh:__ZL64CipherSuiteCollection_t2431504453_CustomAttributesCacheGeneratorP21CustomAttributesCache
Q8g:__Z105RuntimeInvoker_Int32_t2071877448_RuntimeObject_UILineInfo_t3621277874_Int32_t2071877448_Int32_t2071877448PFvvEPK10MethodInfoPvPS4_
zGf:_TlsServerCertificateRequest_ProcessAsSsl3_m3017921864
YDe:_Int64_GetHashCode_m4047499913
Yfb:__ZN9Transform30EnsureTransformHierarchyExistsEv
FGj:_il2cpp_field_get_flags
t_:__ZN11AudioModule26SetDefaultMicrophoneDriverEPv
Osg:_UnitySerializationHolder_GetRealObject_m286267090
xSd:_Attribute_IsDefined_m216577166
FWd:_Char_ToUpper_m109978609
kN:__Z94Register_UnityEngine_Animations_AnimationLayerMixerPlayable_INTERNAL_CALL_CreateHandleInternalv
tKi:_InternalEnumerator_1_get_Current_m1089848479_gshared
uce:_Double_System_IConvertible_ToInt64_m3798425616
bBd:_StandaloneInputModule_get_repeatDelay_m3025279
Zog:_Type_GetGenericTypeDefinition_m2658530753
Zhc:__ZN13MonoBehaviour13StopCoroutineEPKc
Vib:__ZNSt3__26vectorINS_4pairIN4core12basic_stringIcNS2_20StringStorageDefaultIcEEEEPK17MessageIdentifierEENS_9allocatorISA_EEE12__move_rangeEPSA_SE_SE_
Z4a:__ZN14qsort_internal17MedianOfThreeSwapIP17RODataReplacement19ROSorterReplacementEEvT_S4_S4_T0_
D4g:__Z60RuntimeInvoker_FramePressState_t1414739712_Int32_t2071877448PFvvEPK10MethodInfoPvPS4_
z7e:_Collection_1_System_Collections_IList_Insert_m3303840316_gshared
avj:__ZNK15dense_hashtableINSt3__24pairIK10KeyWrapperIPK22Il2CppGenericParameterEP11Il2CppClassEES6_N6il2cpp5utils11PointerHashIS4_EEN14dense_hash_mapIS6_S9_SE_NS6_14EqualsComparerINS0_8equal_toIS5_EEEENS0_9allocatorISA_EEE9SelectKeyESJ_SL_E3endEv
Zjc:__ZN17TransformInternal36OnScaleChangedCalculateTransformTypeE15TransformAccess
iXa:__ZN15dense_hashtableINSt3__24pairIKN4core12basic_stringIcNS2_20StringStorageDefaultIcEEEEP20ArchiveStorageReaderEES6_20StringHash32FunctionIS6_EN14dense_hash_mapIS6_S9_SC_NS0_8equal_toIS6_EE13stl_allocatorISA_L18MemLabelIdentifier54ELi16EEE9SelectKeyESF_SI_E4swapERSL_
ZYd:_SynchronizedArrayListWrapper_InsertRange_m709359548
HZa:__ZN17ArchiveFileSystem10ToAbsoluteEPKc
jyf:_BigInteger_op_Modulus_m13450242
Gsb:__ZN4PPtrI8MaterialE8TransferI18StreamedBinaryReadILb0EEEEvRT_
S4d:_Convert_ToInt32_m2988544165
ise:_Array_Resize_TisColor32_t874517518_m2219502085_gshared
DD:__ZN7mecanim6CRCKeyENS_7eStringE
aKf:_SslStreamBase_get_CanWrite_m2069502593
J4b:__ZL12SetPrefValueRKN4core12basic_stringIcNS_20StringStorageDefaultIcEEEERK9PrefValue
H_b:__ZL30ReconstructParamNamesFromTableIN9ShaderLab20SerializedSubProgram15MatrixParameterEEvRK14dense_hash_mapIiN4core17string_with_labelILi1EEE18SInt32HashFunctionNSt3__28equal_toIiEE13stl_allocatorINS8_4pairIKiS6_EEL18MemLabelIdentifier1ELi16EEERNS8_6vectorIT_NS8_9allocatorISL_EEEE
A7:__ZN19ShaderPropertySheet20ReservePropertyCountEj
g3j:__ZN6il2cpp5utils11StringUtils6PrintfEPKcz
kRj:__ZNSt3__26vectorIN6il2cpp8metadata18GenericArrayMethodENS_9allocatorIS3_EEE7reserveEj
Wva:__ZN15NameToObjectMapI6ShaderNSt3__23mapI4PPtrIS0_EN4core12basic_stringIcNS5_20StringStorageDefaultIcEEEENS1_4lessIS4_EENS1_9allocatorINS1_4pairIKS4_S9_EEEEEENS1_8multimapIS9_S4_NSA_IS9_EENSC_INSD_IKS9_S4_EEEEEEE4FindERSK_
k2h:_ShimEnumerator_Reset_m98005789_gshared
oDa:__ZN24GenerateTypeTreeTransfer21TransferResourceImageE19ActiveResourceImagePKcR13StreamingInfoPvjiPKN5Unity4TypeE
KFg:_Object_INTERNAL_CALL_Internal_InstantiateSingle_m3932420250
mAf:_PKCS1_Compare_m552424558
OSi:_ResourceEnumerator__ctor_m1679839941
Sif:_ReadOnlyCollection_1_System_Collections_IList_set_Item_m1377990618_gshared
O9f:_ILGenerator_make_room_m373147874
T9h:_Dictionary_2_Init_m1045257495_gshared
cvk:_emscripten_glLinkProgram__wrapper
fIg:_PlayableHandle_SetDurationInternal_m3359857977
YTd:_Boolean_CompareTo_m3691698947_AdjustorThunk
ame:_Array_InternalArray__IndexOf_TisKeyValuePair_2_t888819835_m2660446234_gshared
Rsf:_PKCS1_Verify_v15_m2571212635
Atb:__ZNSt3__212__deque_baseI18ReflectionProbeJobNS_9allocatorIS1_EEED2Ev
$C:__ZN11UnityEngine9Animation27DestroyAnimationSetBindingsEPNS0_20AnimationSetBindingsERN7mecanim6memory9AllocatorE
N_b:__ZN15dense_hashtableINSt3__24pairIKiN4core17string_with_labelILi1EEEEEi18SInt32HashFunctionN14dense_hash_mapIiS5_S7_NS0_8equal_toIiEE13stl_allocatorIS6_L18MemLabelIdentifier1ELi16EEE9SelectKeyESA_SD_E13set_empty_keyERKS6_
aL:__ZN8Animator12CleanupClassEv
Qvd:_DecoderReplacementFallbackBuffer__ctor_m1305504326
dEc:__Z13TransferFieldI8JSONReadLb0E27Converter_SimpleNativeClassI10RectOffsetEEvRK23StaticTransferFieldInfoR31RuntimeSerializationCommandInfoRT1_
Htd:_String_IndexOf_m570401060
qLd:_Image_CalculateLayoutInputVertical_m1340533162
ede:_Enum_System_IConvertible_ToDateTime_m2924690746
hHd:_Dropdown_CreateBlocker_m4109366440
Gid:_HashAlgorithm_System_IDisposable_Dispose_m2106335965
fYj:__GLOBAL__sub_I_GenericMetadata_cpp
zOe:_NotImplementedException__ctor_m1305569814
fJg:_RangeAttribute__ctor_m1657271662
LIh:__ZL147AnimationLayerMixerPlayable_t3057952312_CustomAttributesCacheGenerator_AnimationLayerMixerPlayable_INTERNAL_CALL_IsLayerAdditiveInternal_m364677421P21CustomAttributesCache
YMh:__ZL67GUISettings_t622856320_CustomAttributesCacheGenerator_m_CursorColorP21CustomAttributesCache
Ktc:__ZNK8GUIStyle4DrawER8GUIStateRK5RectTIfER10GUIContentib
gEj:__ZN6il2cpp6icalls8mscorlib6System8MonoType18GetFields_internalEP20Il2CppReflectionTypeiS5_
scb:__Z24CalculateSpotLightBoundsffRK10Matrix4x4fR15SpotLightBounds
Imf:_TailoringInfo__ctor_m2248501932
$pa:__ZNK13RenderTexture21GetShadowSamplingModeEv
y0:__ZN23CloudWebServicesManager23VirtualRedirectTransferER14SafeBinaryRead
cQg:__Z150RuntimeInvoker_Int32_t2071877448_RuntimeObject_Int32_t2071877448_Int32_t2071877448_RuntimeObject_Int32_t2071877448_Int32_t2071877448_Int32_t2071877448PFvvEPK10MethodInfoPvPS4_
vYd:_FixedSizeArrayListWrapper_InsertRange_m2690348965
sKb:__Z19ShouldTransferFieldR32SerializationCommandQueueBuilder17ScriptingClassPtriR18TransferField_InfoRK20CoreScriptingClasses
lbg:_FieldInfo_get_IsStatic_m1411173225
AIe:_MemoryStream_Read_m2289595005
cV:__ZN5audio5mixer22UpdateAudioMixerMemoryERKNS0_18AudioMixerConstantERNS0_16AudioMixerMemoryEfPN4FMOD6SystemEf
eTc:__ZL21InitializeCachedStripPv
omd:_SignatureDescription_set_DigestAlgorithm_m3219799565
VSj:__ZN6il2cpp6icalls8mscorlib6System9Threading6Thread23GetCachedCurrentCultureEP12Il2CppThread
SRh:__ZL94PlayerEditorConnectionEvents_t2252784345_CustomAttributesCacheGenerator_messageTypeSubscribersP21CustomAttributesCache
aki:_Selectable_get_allSelectables_m3045831006
_4a:__ZNK6Camera22GetWorldToCameraMatrixEv
hSd:_ArrayTypeMismatchException__ctor_m2892687300
T_j:__ZN6il2cpp2vm12GenericClass11IsValueTypeEP18Il2CppGenericClass
zPg:__Z49RuntimeInvoker_TypeCode_t2536926201_RuntimeObjectPFvvEPK10MethodInfoPvPS4_
HJb:__ZN13MonoBehaviour7SetNameEPKc
dBf:_ContentInfo__ctor_m3579805263
Oxj:__ZN15dense_hashtableINSt3__24pairIK10KeyWrapperIPKcEP11Il2CppClassEES5_N6il2cpp5utils11StringUtils12StringHasherIS4_EEN14dense_hash_mapIS5_S8_SE_NS5_14EqualsComparerINSB_13VmStringUtils21CaseSensitiveComparerEEENS0_9allocatorIS9_EEE9SelectKeyESJ_SL_E15set_deleted_keyERKS9_
dOc:__ZN25b2PolygonAndCircleContact7DestroyEP9b2ContactP16b2BlockAllocator
iji:_ScrollRect_get_verticalNormalizedPosition_m1701804869
thd:__ZN29UnityWebRequestAsyncOperationC2E18MemLabelIdentifierP15UnityWebRequest
QWh:__ZL138U3CMouseDragOutsideRectU3Ec__Iterator1_t2599668326_CustomAttributesCacheGenerator_U3CMouseDragOutsideRectU3Ec__Iterator1__ctor_m1439320044P21CustomAttributesCache
OAa:__ZN18AwakeFromLoadQueue5ClearEv
y4h:_Enumerator_get_Current_m2986380627_AdjustorThunk
fbb:__ZNSt3__27__sort5IR15ReflProbeSorterPP15ReflectionProbeEEjT0_S6_S6_S6_S6_T_
Gha:__ZN8Playable10DisconnectEPS_i
KHi:_InternalEnumerator_1_get_Current_m1526874475_AdjustorThunk
uk:_glGenTransformFeedbacks
wFa:__ZN13LoadOperationD2Ev
sJ:__ZN18StreamedBinaryReadILb0EE8TransferINSt3__24pairI8StateKey10StateRangeEEEEvRT_PKc17TransferMetaFlags
xrf:_KeyPairPersistence__ctor_m1817312194
fhe:_Array_InternalArray__ICollection_Contains_TisMark_t2724874473_m1640201705_gshared
LUi:_ActivatedClientTypeEntry_get_ContextAttributes_m53051138
_ya:__Z21PlayerStartFirstSceneb
D7f:_TypeBuilder_get_AssemblyQualifiedName_m2097258567
Kva:__ZNSt3__27__sort5IRPFbRKNS_4pairIN9ShaderLab16FastPropertyNameEN18UnityPropertySheet11UnityTexEnvEEES8_EPS6_EEjT0_SD_SD_SD_SD_T_
oti:_AnimatorControllerPlayable_GetParameterCount_m1050153685_AdjustorThunk
RMa:__ZNK7ApiGLES18GetExtensionStringEv
yTa:__ZN31TransformFeedbackSkinPoseBufferD0Ev
_qk:_emscripten_glVertexAttrib1f__wrapper
$gi:_RaycastAllCallback__ctor_m3281594834
QYa:__ZNK12HandlerChain4SizeERK13FileEntryData
Pai:_DefaultComparer_Equals_m1281232537_gshared
wih:__ZL99RuntimeFieldHandle_t2331729674_CustomAttributesCacheGenerator_RuntimeFieldHandle_Equals_m1202966418P21CustomAttributesCache
lp:FUNCTION_TABLE_iiiiiiiii
PMd:_InputField_set_asteriskChar_m619206227
E2f:_DES_IsSemiWeakKey_m3967392585
fMc:__Z22GetPhysicsGroundBody2Dv
etj:_Comparison_1__ctor_m2159122699_gshared
LBe:_Int16_System_IConvertible_ToUInt32_m883204517_AdjustorThunk
u8i:_Transform_get_localRotation_m4001487205
Oeg:_MonoProperty_get_PropertyType_m1921201152
BFd:_FloatTween_TweenValue_m3881535116_AdjustorThunk
O5j:_GC_allochblk
Rbd:__ZN22BaseUnityConnectClient19SendAppRunningEventEv
TAa:__Z15UnloadGameScenev
Dvk:_glCheckFramebufferStatus__wrapper
KUg:__Z43RuntimeInvoker_Boolean_t3825574718_IntPtr_tPFvvEPK10MethodInfoPvPS4_
jRh:__ZL59WriteOnlyAttribute_t14323075_CustomAttributesCacheGeneratorP21CustomAttributesCache
nOj:__ZN15dense_hashtableINSt3__24pairIK10KeyWrapperIPK14Il2CppAssemblyEPK22Il2CppMonoAssemblyNameEES6_N6il2cpp5utils11PointerHashIS4_EEN14dense_hash_mapIS6_SA_SF_NS6_14EqualsComparerINS0_8equal_toIS5_EEEENS0_9allocatorISB_EEE9SelectKeyESK_SM_E5clearEv
EK:__ZN16MecanimAnimationD0Ev
oxf:_BigInteger_get_Rng_m2525288368
kxg:_GUIStyleState_GetBackgroundInternal_m439046630
KSf:_X509ExtensionEnumerator_Reset_m3200687545
KZd:_CaseInsensitiveHashCodeProvider__ctor_m3775398833
JRi:_Comparer_1_System_Collections_IComparer_Compare_m674728644_gshared
sDh:__ZL80Input_t1785128008_CustomAttributesCacheGenerator_Input_GetButtonDown_m2792523731P21CustomAttributesCache
Knc:__Z36Renderer_Get_Custom_PropSortingOrderP12Il2CppObject
HKj:__ZNK15dense_hashtableINSt3__24pairIK10KeyWrapperIPK10Il2CppTypeEjEES6_N6il2cpp8metadata14Il2CppTypeHashEN14dense_hash_mapIS6_jSB_NS6_14EqualsComparerINSA_26Il2CppTypeEqualityComparerEEENS0_9allocatorIS8_EEE9SelectKeyESF_SH_E13find_positionERS7_
Qpa:__ZN7Texture5ResetEv
JFc:__ZNK14b2CapsuleShape7RayCastEP15b2RayCastOutputRK14b2RayCastInputRK11b2Transformi
CLh:__ZL82Canvas_t209405766_CustomAttributesCacheGenerator_Canvas_get_renderMode_m1816014618P21CustomAttributesCache
iRb:__Z18Transfer_BlittableI24GenerateTypeTreeTransferLb1EhEvRK29SerializationCommandArgumentsR31RuntimeSerializationCommandInfo
DDb:__ZN10VertexData10DeallocateEv
lRc:__ZN10Collider2D16TransformChangedEi
jIj:__ZNSt3__214__split_bufferIiRNS_9allocatorIiEEEC2EjjS3_
ojc:__ZNK16TypeTreeIterator10ByteOffsetEv
sId:_Graphic_get_rectTransform_m2697395074
Gga:__ZnwjRKSt9nothrow_t
sG:__ZN8Animator11ClearObjectEv
VIb:__ZNSt3__26vectorIi13stl_allocatorIiL18MemLabelIdentifier12ELi16EEE8__appendEj
r$g:__Z55RuntimeInvoker_Boolean_t3825574718_Playable_t1896841784PFvvEPK10MethodInfoPvPS4_
NPf:_X500DistinguishedName_Decode_m3070515374
bua:__ZN14SafeBinaryRead19TransferSTLStyleMapINSt3__23mapI39DeprecatedFastPropertyNameSerializationN18UnityPropertySheet11UnityTexEnvENS1_4lessIS3_EENS1_9allocatorINS1_4pairIKS3_S5_EEEEEEEEvRT_17TransferMetaFlags
Gpc:__Z45Register_UnityEngine_MonoBehaviour_IsInvokingv
wNf:_IPv6Address_set_ScopeId_m1442934355
TLc:__ZNSt3__27__sort4IRPFbPN10ClipperLib13IntersectNodeES3_EPS3_EEjT0_S8_S8_S8_T_
jjh:__ZL72PKCS12_t1362584794_CustomAttributesCacheGenerator_U3CU3Ef__switchU24mapBP21CustomAttributesCache
x$f:_ObjectManager_RaiseOnDeserializedEvent_m512850179
KLh:__ZL83Canvas_t209405766_CustomAttributesCacheGenerator_Canvas_get_renderOrder_m2874842494P21CustomAttributesCache
eqc:__Z81Register_UnityEngine_Playables_PlayableHandle_INTERNAL_CALL_SetInputCountInternalv
TRh:__ZL87PlayerEditorConnectionEvents_t2252784345_CustomAttributesCacheGenerator_connectionEventP21CustomAttributesCache
$Ah:__ZL86Camera_t189460977_CustomAttributesCacheGenerator_Camera_get_allCamerasCount_m989474043P21CustomAttributesCache
hic:__Z35UnregisterSerializationCacheBuilderPFv17ScriptingClassPtrR23CachedSerializationDataRbE
Bsa:__Z30GetBuiltinVectorParamArraySize24BuiltinShaderVectorParam
OJj:__ZNSt3__218uninitialized_copyIPNS_4pairIK10KeyWrapperINS1_IPK14Il2CppAssemblyP11Il2CppClassEEEjEESC_EET0_T_SE_SD_
tmf:_CodePointIndexer__ctor_m797342079
qWh:__ZL64InputField_t1631627530_CustomAttributesCacheGenerator_m_LineTypeP21CustomAttributesCache
grh:__ZL61KeyedHashAlgorithm_t1374150027_CustomAttributesCacheGeneratorP21CustomAttributesCache
Nfj:_Predicate_1__ctor_m3243601712_gshared
UTh:__ZL103PointerEventData_t1599784723_CustomAttributesCacheGenerator_PointerEventData_set_clickCount_m2095939005P21CustomAttributesCache
aeb:__ZN21RendererUpdateManager11AddRendererER8Renderer
u6b:__Z13RegisterClassI15ResourceManagerEvv
P$f:_SerializationEntry_t3485203212_marshal_pinvoke_back
p2g:__Z78RuntimeInvoker_Void_t1841601450_RuntimeObject_RuntimeObject_RectU26_t844847526PFvvEPK10MethodInfoPvPS4_
MMb:__Z35Transfer_Blittable_FixedBufferFieldI14SafeBinaryReadsEvRK29SerializationCommandArgumentsR31RuntimeSerializationCommandInfo
HCb:__ZN14SafeBinaryRead21TransferSTLStyleArrayI13dynamic_arrayIfLj4EEEEvRT_17TransferMetaFlags
Hth:__ZL79Thread_t241561612_CustomAttributesCacheGenerator_Thread_GetHashCode_m2038641494P21CustomAttributesCache
h3j:__ZN6il2cpp5utils11StringUtils11Utf16ToUtf8EPKDs
aFg:_UnityWebRequest_InternalSetMethod_m969165462
Zcd:__ZN11UnityEngine15PlatformWrapper20IsRootedOrJailbrokenEv
O$a:__ZZ23InitPlayerLoopCallbacksvEN52PreLateUpdateScriptRunBehaviourLateUpdateRegistrator7ForwardEv
nQf:_X509Certificate2_GetNameInfo_m402390219
ncb:__Z33IntersectAABBPlaneBoundsOptimizedRK4AABBPKN4math7_float4Ei
eSd:_Swapper_BeginInvoke_m2652511022
GKg:_RectOffset_t3387826427_marshal_pinvoke_back
Obh:__Z54RuntimeInvoker_UriScheme_t1876590943_Int32_t2071877448PFvvEPK10MethodInfoPvPS4_
sgb:__ZN19ScriptingInvocation6InvokeI28ScriptingSystemTypeObjectPtrEET_P21ScriptingExceptionPtrb
GIa:__ZN9GfxDevice19EndGeometryJobFrameEv
cRb:__ZN27Converter_SimpleNativeClassI17AnimationCurveTplIfEE17ScriptingToNativeER18ScriptingObjectPtrPS1_
xbk:__ZN6il2cpp8metadata24Il2CppGenericInstCompare7CompareERK10KeyWrapperIPK17Il2CppGenericInstES8_
O6g:__Z36RuntimeInvoker_Enumerator_t132208513PFvvEPK10MethodInfoPvPS4_
wyj:__ZNK15dense_hashtableINSt3__24pairIK10KeyWrapperIPK19Il2CppGenericMethodEPK26Il2CppGenericMethodIndicesEES6_N6il2cpp8metadata23Il2CppGenericMethodHashEN14dense_hash_mapIS6_SA_SE_NS6_14EqualsComparerINSD_26Il2CppGenericMethodCompareEEENS0_9allocatorISB_EEE9SelectKeyESI_SK_E5beginEv
JId:_Graphic_get_materialForRendering_m2600868951
Pt:__ZNSt3__26vectorIN13AnimationClip15QuaternionCurveE13stl_allocatorIS2_L18MemLabelIdentifier25ELi16EEE8__appendEj
ax:__ZN27AnimationLayerMixerPlayable21UpdateLayerParametersEv
SFf:_TlsClientSettings_get_ClientCertificate_m89435195
Fqh:__ZL61AsymmetricAlgorithm_t784058677_CustomAttributesCacheGeneratorP21CustomAttributesCache
$ec:__ZN9Polygon2D7DefaultEv
S9f:__ZN21InterfaceFuncInvoker1IiP12MemberInfo_tE6InvokeEjP11Il2CppClassP12Il2CppObjectS1_
F9e:_Collection_1_System_Collections_IList_Contains_m3210868188_gshared
M0i:_AnchorInfo_get_IgnoreCase_m2406760852
V7b:__ZNK17AnimationCurveTplIfE8EvaluateEfPNS0_5CacheE
S_a:__Z31ManagerContextInitializeClassesv
jEj:__ZNSt3__213__vector_baseIP9FieldInfoNS_9allocatorIS2_EEED2Ev
Xxe:_NumberFormatter_AppendIntegerString_m868842252
_Xc:_ft_smooth_transform
akh:__ZL53SortedList_t3004938869_CustomAttributesCacheGeneratorP21CustomAttributesCache
OVc:_UNITY_FT_List_Finalize
gbk:__ZN6il2cpp6icalls8mscorlib6System7Runtime8Remoting10Activation18ActivationServices34AllocateUninitializedClassInstanceEP20Il2CppReflectionType
b6a:__Z20LightAttenuateApproxRKfS0_
iba:__ZN9Scripting30SetCachedPtrOnScriptingWrapperE18ScriptingObjectPtrP6Object
eUb:__Z18Transfer_BlittableI19StreamedBinaryWriteILb0EELb0EdEvRK29SerializationCommandArgumentsR31RuntimeSerializationCommandInfo
wnb:__ZN17LowLevelAllocator6MallocEj
gvd:_ASCIIEncoding_GetBytes_m3649277167
cvg:_GUILayoutUtility_Internal_GetWindowRect_m1287880151
pqi:_AnimationPlayableOutput_get_Null_m577023
I8h:_Dictionary_2__ctor_m2457723796_gshared
bIc:__ZN16b2PrismaticJoint4DumpEv
aXi:_Context_GetProperty_m1664740450
eK:__ZN7mecanim9animation21BlendTreeNodeConstant8TransferI19StreamedBinaryWriteILb0EEEEvRT_
kEa:__ZN18BlockRangeInternal16PopLastNodeIndexEP10BlockRangeji
$sg:_Version__ctor_m2972638031
vRe:_Enumerator_System_Collections_IEnumerator_Reset_m886102771_AdjustorThunk
Mpf:_Kernel_MultiplyByDword_m155008287
XBb:__ZN4MeshD0Ev
zTg:__Z121RuntimeInvoker_Void_t1841601450_Int64_t909078037_RuntimeObject_RuntimeObject_Int64_t909078037_RuntimeObject_RuntimeObjectPFvvEPK10MethodInfoPvPS4_
Cid:__ZL42RequestRecreateEyeTexturesBeforeNextUpdatev
D5h:_ValueCollection_System_Collections_Generic_ICollectionU3CTValueU3E_get_IsReadOnly_m3005456072_gshared
kif:_ReadOnlyCollection_1_System_Collections_ICollection_get_SyncRoot_m1577944046_gshared
Rra:__ZNK6Camera20IsCurrentlyRenderingEv
My:__ZN21AnimationClipPlayable23ProcessRootMotionNoClipEPK35AnimationPlayableEvaluationConstantPK32AnimationPlayableEvaluationInputP33AnimationPlayableEvaluationOutput
bad:__Z36CanvasRenderer_CUSTOM_SetPopMaterialP12Il2CppObjectS0_i
xrh:__ZL58RijndaelManaged_t1034060848_CustomAttributesCacheGeneratorP21CustomAttributesCache
TAc:__Z18Transfer_BlittableI9JSONWriteLb0EdEvRK29SerializationCommandArgumentsR31RuntimeSerializationCommandInfo
zHc:__ZNK11b2GearJoint16GetReactionForceEf
EJe:_TextReader__ctor_m3276128267
mVe:_List_1_System_Collections_Generic_ICollectionU3CTU3E_get_IsReadOnly_m3598018290_gshared
cJ:__ZN15SerializeTraitsI9OffsetPtrIN7mecanim9animation17BlendTreeConstantEEE8TransferI24GenerateTypeTreeTransferEEvRS4_RT_
oni:_Toggle_OnDidApplyAnimationProperties_m325835214
$gk:_wctomb
H$g:__Z55RuntimeInvoker_Void_t1841601450_Matrix4x4U26_t266301477PFvvEPK10MethodInfoPvPS4_
wlc:__Z27Camera_CUSTOM_GetAllCamerasP11Il2CppArray
IJb:__ZNK13MonoBehaviour25GetNeedsPerObjectTypeTreeEv
sXb:__Z35Transfer_Blittable_FixedBufferFieldI18StreamedBinaryReadILb0EEiEvRK29SerializationCommandArgumentsR31RuntimeSerializationCommandInfo
N1d:_Convert_InternalFromBase64String_m3682756716
rCc:__Z18Transfer_BlittableI8JSONReadLb1EhEvRK29SerializationCommandArgumentsR31RuntimeSerializationCommandInfo
Hti:_AnimatorControllerPlayable_CrossFadeInFixedTimeInternal_m3383124488
sPc:__ZN18Overlap2DQueryBase13ReportFixtureEP9b2Fixture
MMh:__ZL86GUI_t4082743951_CustomAttributesCacheGenerator_U3CnextScrollStepTimeU3Ek__BackingFieldP21CustomAttributesCache
Bhc:__ZN10systeminfo23SupportsLocationServiceEv
v2g:__Z48RuntimeInvoker_Void_t1841601450_Rect_t3681755626PFvvEPK10MethodInfoPvPS4_
i0i:_Regex_System_Runtime_Serialization_ISerializable_GetObjectData_m4035555909
Zmg:_TimeSpan_Add_m3228293154
Sai:_DefaultComparer_Equals_m4098991076_gshared
Sfb:__ZN13MonoBehaviour8SetClassE17ScriptingClassPtr18ScriptingObjectPtr
KAf:_RC4__cctor_m523650203
IXi:_CrossContextDelegate_Invoke_m2908136830
qkj:_Locale_GetText_m3480617287
Pwf:_ApplicationIdentity_ToString_m800036884
Cla:__ZN20LocalFileSystemPosix4ReadER13FileEntryDatayyPvPy
E9a:__ZNSt3__211__sift_downIRN23ForwardShaderRenderLoop18RenderObjectSorterILb0EEEP21ForwardRenderPassDataEEvT0_S7_T_NS_15iterator_traitsIS7_E15difference_typeES7_
DLe:_UnmanagedMemoryStream_get_Position_m4093669769
nph:__ZL83MethodDictionary_t1742974787_CustomAttributesCacheGenerator_U3CU3Ef__switchU24map21P21CustomAttributesCache
VSg:__Z90RuntimeInvoker_Void_t1841601450_IntPtr_t_RuntimeObject_Int32_t2071877448_Int32_t2071877448PFvvEPK10MethodInfoPvPS4_
XJb:__ZN13MonoBehaviour5DoGUIENS_13GUILayoutTypeEii
Wxf:_Kernel_Multiply_m1938858919
x7f:_DerivedType_IsDefined_m555719351
AZi:_Mark_get_IsDefined_m3332701456
Lmb:__ZNK12TLSAllocatorI14StackAllocatorE8ContainsEPKv
rGb:__ZN11TimeManager8TransferI18StreamedBinaryReadILb0EEEEvRT_
m3b:__ZN15SerializeTraitsINSt3__23mapI4PPtrI6ShaderEN4core12basic_stringIcNS5_20StringStorageDefaultIcEEEENS0_4lessIS4_EENS0_9allocatorINS0_4pairIKS4_S9_EEEEEEE8TransferI24GenerateTypeTreeTransferEEvRSH_RT_
Ssf:_EncryptedPrivateKeyInfo__ctor_m3964541963
P2f:_DESTransform__cctor_m1179482644
Ici:_EqualityComparer_1_System_Collections_IEqualityComparer_GetHashCode_m1465362976_gshared
GFg:_Object_t1021602117_marshal_pinvoke_cleanup
jCb:__ZN14BlendShapeData8TransferI14SafeBinaryReadEEvRT_
o7i:_TextGenerator_PopulateWithErrors_m467881283
OIi:_InternalEnumerator_1_MoveNext_m3476348493_gshared
pde:_Enum_Format_m2294492821
Fuh:__ZL81Convert_t2607082565_CustomAttributesCacheGenerator_Convert_ToDateTime_m3810846875P21CustomAttributesCache
rvb:__ZN7Texture25ReloadFromStorageIfNeededEPvb
Vzc:__Z35Transfer_Blittable_FixedBufferFieldI9JSONWritehEvRK29SerializationCommandArgumentsR31RuntimeSerializationCommandInfo
C3f:_OverflowException__ctor_m2564269836
Vrj:__ZL25UnresolvedVirtualCall_202P12Il2CppObject23SpriteState_t1353336012PK10MethodInfo
u2h:_ShimEnumerator_get_Entry_m2332479818_gshared
sxd:_BaseRaycaster_get_priority_m247683215
k8d:_DateTime_CheckDateTimeKind_m329345155_AdjustorThunk
t4c:_Update_Max
rzj:__ZNK15dense_hashtableI10KeyWrapperIPK19Il2CppGenericMethodES4_N6il2cpp8metadata23Il2CppGenericMethodHashEN14dense_hash_setIS4_S7_NS4_14EqualsComparerINS6_26Il2CppGenericMethodCompareEEENSt3__29allocatorIS4_EEE8IdentityESB_SE_E10test_emptyERK30dense_hashtable_const_iteratorIS4_S4_S7_SG_SB_SE_E
ISj:__ZN6il2cpp6icalls8mscorlib6SystemL15ThrowNoWideningEv
c8b:__ZNK23TransformChangeDispatch24GetChangeMaskForInterestENS_12InterestTypeE
xsc:__Z45Transform_CUSTOM_INTERNAL_CALL_TransformPointP12Il2CppObjectRK8Vector3fRS1_
n9e:__ZN23InterfaceActionInvoker2Ii18Color32_t874517518E6InvokeEjP11Il2CppClassP12Il2CppObjectiS0_
omb:__ZL10KeyHandleriPK23EmscriptenKeyboardEventPv
Aua:__ZNSt3__26__treeINS_12__value_typeI39DeprecatedFastPropertyNameSerializationfEENS_19__map_value_compareIS2_S3_NS_4lessIS2_EELb1EEENS_9allocatorIS3_EEE7destroyEPNS_11__tree_nodeIS3_PvEE
dqc:__Z81Register_UnityEngine_Playables_PlayableHandle_INTERNAL_CALL_GetInputCountInternalv
RZc:_tt_cmap4_char_index
awi:_AsyncOperation_get_allowSceneActivation_m2825451182
yng:_TimeSpan_op_Addition_m3421801803
_Ya:__ZNK12HandlerChain8IsHiddenERK13FileEntryData
KVh:__ZL50Graphic_t2426225576_CustomAttributesCacheGeneratorP21CustomAttributesCache
JEd:_ContentSizeFitter_set_verticalFit_m3978553199
sQb:__ZL26Transfer_SimpleNativeClassI17RemapPPtrTransfer10RectOffsetLb0EEvRK29SerializationCommandArgumentsR31RuntimeSerializationCommandInfo
pWc:__Z14ValidateFormatR13dynamic_arrayIN20TextRenderingPrivate16TextFormatChangeELj4EE
Gch:__Z114RuntimeInvoker_Int32_t2071877448_CustomAttributeTypedArgument_t1498197914_CustomAttributeTypedArgument_t1498197914PFvvEPK10MethodInfoPvPS4_
_Ve:_List_1__ctor_m2672294496_gshared
c4i:_Vector2_op_Implicit_m1064335535
pBa:__Z31GetLightProbeProxyVolumeManagerv
m7d:_DateTime_System_IConvertible_ToInt32_m2789391054_AdjustorThunk
u_g:__Z73RuntimeInvoker_Single_t2076509932_Vector3_t2243707580_Vector3_t2243707580PFvvEPK10MethodInfoPvPS4_
uqf:_ASN1Convert_FromInt32_m1541043489
vAd:_PointerInputModule_ProcessMove_m3200120346
u2d:_Convert_ToByte_m1008221737
Lzf:_MD2Managed_MD2Transform_m3825201358
saf:_Collection_1_System_Collections_IList_IndexOf_m3976312928_gshared
qXh:__ZL69Scrollbar_t3248359358_CustomAttributesCacheGenerator_m_OnValueChangedP21CustomAttributesCache
DPe:_KeyValuePair_2__ctor_m3201181706_gshared
zLc:__ZN10ClipperLib14PointInPolygonERKNS_8IntPointEPNS_5OutPtE
_Wf:_SoapFieldAttribute_get_XmlElementName_m4100905008
MGd:_Dropdown_AddOptions_m835420907
vTh:__ZL107PointerEventData_t1599784723_CustomAttributesCacheGenerator_PointerEventData_get_rawPointerPress_m448871540P21CustomAttributesCache
Dsa:__ZNK9ShaderLab20ShaderBlendStateDesc15ToGfxBlendStateEPK19ShaderPropertySheetS3_R13GfxBlendState
Tjh:__ZL92Hashtable_t909839986_CustomAttributesCacheGenerator_Hashtable_t909839986____hcp_PropertyInfoP21CustomAttributesCache
YDd:_CanvasUpdateRegistry_IsRebuildingLayout_m1677873278
PNc:__ZN15dense_hashtableINSt3__24pairIKNS1_IPK10Collider2DS4_EE11Collision2DEES5_NS2_23ColliderPairHashFunctorEN14dense_hash_mapIS5_S7_S9_NS0_8equal_toIS5_EE13stl_allocatorIS8_L18MemLabelIdentifier65ELi16EEE9SelectKeyESC_SF_E9copy_fromERKSI_j
EC:__ZN11UnityEngine9AnimationL22GenericBindingCallbackEPvS1_i
b4c:_Compute_Point_Displacement
Y2b:__ZN9ShaderLab9IntShaderC2Ev
$Ej:__ZN6il2cpp6icalls8mscorlib6SystemL9IsPrivateEPK9EventInfo
T9j:__ZN6il2cpp6icalls8mscorlib6System10Reflection4Emit11TypeBuilder20setup_internal_classEP27Il2CppReflectionTypeBuilderS7_
JIi:_InternalEnumerator_1_System_Collections_IEnumerator_Reset_m3237341717_AdjustorThunk
wrj:__ZL25UnresolvedVirtualCall_177P12Il2CppObject23RaycastResult_t21186376S1_PK10MethodInfo
nwg:_RectOffset_set_left_m620681523
zGg:_Physics2D_Raycast_m2560154475
YFi:_ArrayReadOnlyList_1_IndexOf_m1809425308_gshared
C$:__Z58AudioPlayableOutput_CUSTOM_INTERNAL_CALL_InternalSetTargetR15HPlayableOutputP12Il2CppObject
NGj:_il2cpp_gc_disable
XN:__Z69AnimatorControllerPlayable_CUSTOM_INTERNAL_CALL_GetLayerIndexInternalR9HPlayableP12Il2CppString
ezd:_ExecuteEvents_U3Cs_HandlerListPoolU3Em__0_m2903690915
A$d:_Hashtable_Clone_m165405752
eIc:__ZN16b2PrismaticJoint24SolveVelocityConstraintsERK12b2SolverData
rmh:__ZL61CallingConventions_t1097349142_CustomAttributesCacheGeneratorP21CustomAttributesCache
JBi:_Component_BroadcastMessage_m444672650
scd:__ZN11UnityEngine15PlatformWrapper19GetPhysicalMemoryMBEv
DUh:__ZL144U3CStartU3Ec__Iterator0_t3220237554_CustomAttributesCacheGenerator_U3CStartU3Ec__Iterator0_System_Collections_IEnumerator_get_Current_m290565900P21CustomAttributesCache
Bma:__Z15CreateDirectoryRKN4core12basic_stringIcNS_20StringStorageDefaultIcEEEE
WBa:__Z21CalculateGlobalMatrix23TransformAccessReadOnly
Nih:__ZL70InternalsVisibleToAttribute_t1037732567_CustomAttributesCacheGeneratorP21CustomAttributesCache
qJ:__ZN18StreamedBinaryReadILb0EE21TransferSTLStyleArrayI13dynamic_arrayI4PPtrI13MonoBehaviourELj4EEEEvRT_17TransferMetaFlags
wGb:__ZNK13BuildSettings22GetTypeVirtualInternalEv
hGe:_MonoIO_GetCurrentDirectory_m1509324201
ond:_SHA384Managed_adjustByteCounts_m410900820
jjg:_UTF32Encoding_GetHashCode_m4205784236
YUb:__Z35Transfer_Blittable_FixedBufferFieldI18StreamedBinaryReadILb1EEhEvRK29SerializationCommandArgumentsR31RuntimeSerializationCommandInfo
j3d:_DateTime_ToUniversalTime_m1815024752
NUh:__ZL73U3COnFinishSubmitU3Ec__Iterator0_t99135383_CustomAttributesCacheGeneratorP21CustomAttributesCache
s6b:__Z13RegisterClassI14RenderSettingsEvv
W6i:_TextGenerator_Finalize_m4242493229
x8j:_GC_set_on_event
udh:__Z80RuntimeInvoker_Boolean_t3825574718_Navigation_t1571958496_Navigation_t1571958496PFvvEPK10MethodInfoPvPS4_
S5e:_Collection_1_ConvertItem_m3563206219_gshared
vng:_TimeSpan_Subtract_m3597791685_AdjustorThunk
gdg:_MonoCMethod_get_Name_m764669486
YA:__ZN7mecanim12statemachine24CreateStateMachineOutputEPKNS0_20StateMachineConstantEjRNS_6memory9AllocatorE
TBg:_Logger__ctor_m3834134587
ZFj:_il2cpp_assembly_get_image
dJa:__ZNK9GfxDevice27GetActiveRenderSurfaceWidthEv
STg:__Z45RuntimeInvoker_SerializationEntry_t3485203212PFvvEPK10MethodInfoPvPS4_
Kcd:__ZN11UnityEngine15PlatformWrapper28GetCleanGraphicsFixedVersionEv
nlb:__ZN16MemoryFileSystem5WriteER13FileEntryDatayyPvPy
w:tempBigIntP
RIj:__ZN6il2cpp2vm4Type7GetTypeEPK10Il2CppType
KUf:_Interval_t2354235237_marshal_pinvoke_cleanup
rKg:_Rect_Contains_m1334685291_AdjustorThunk
O8b:__ZN16SpriteRenderData28PrepareRenderingDataIfNeededEv
jSd:_AssemblyLoadEventHandler_Invoke_m108373765
See:_CCGregorianCalendar_dmy_from_fixed_m2992247462
uAd:_PointerInputModule_ShouldStartDrag_m4163638715
fVh:__ZL61Dropdown_t1985816271_CustomAttributesCacheGenerator_m_OptionsP21CustomAttributesCache
Dpj:__ZL24UnresolvedVirtualCall_76P12Il2CppObjectPK10MethodInfo
Vxa:__ZN6prcoreL17RemapGenericFloatI18TexFormatRGBAFloat17TexFormatRGBAHalfEEvPKNS_9InnerInfoE
pIh:__ZL131AudioMixerPlayable_t1831808911_CustomAttributesCacheGenerator_AudioMixerPlayable_INTERNAL_CALL_SetAutoNormalizeInternal_m2425179629P21CustomAttributesCache
UMg:__Z66RuntimeInvoker_Boolean_t3825574718_RuntimeObject_Int32_t2071877448PFvvEPK10MethodInfoPvPS4_
L0a:__Z16FindCameraStacksRKNSt3__24listI4PPtrI6CameraENS_9allocatorIS3_EEEERNS_6vectorI11CameraStackNS4_ISA_EEEE
cxj:_WebRequestUtils__cctor_m893658947
ixb:__ZN10GISettings8TransferI14SafeBinaryReadEEvRT_
zn:FUNCTION_TABLE_vifff
bjf:_ReadOnlyCollection_1_System_Collections_Generic_ICollectionU3CTU3E_Remove_m2957273994_gshared
$hb:__ZN19CustomRenderTexture12ClearGPUDataEv
mxd:_BaseInputModule_ShouldActivateModule_m2899747874
Dch:__Z86RuntimeInvoker_Int32_t2071877448_DateTimeOffset_t1362988906_DateTimeOffset_t1362988906PFvvEPK10MethodInfoPvPS4_
_pa:__ZN13RenderTexture13ApplySettingsEv
dth:__ZL92UTF8Encoding_t111055448_CustomAttributesCacheGenerator_UTF8Encoding_GetByteCount_m2547312609P21CustomAttributesCache
d3i:_Uri__ctor_m3550796566
ff:_JS_Sound_SetListenerPosition
rn:FUNCTION_TABLE_fiffi
hP:__Z86Register_UnityEngine_Animations_AnimatorControllerPlayable_INTERNAL_CALL_SetBoolStringv
Oag:_ModuleBuilderTokenGenerator_GetToken_m3427457873
pki:_Selectable_get_isPointerInside_m3162215687
zle:_Array_FindIndex_TisRuntimeObject_m4149904176_gshared
mUe:_List_1_System_Collections_IList_Contains_m149594880_gshared
cXj:__ZNK15dense_hashtableINSt3__24pairIK10KeyWrapperINS1_IPKcS4_EEEiEES6_24NamespaceAndNamePairHashN14dense_hash_mapIS6_iS9_NS6_14EqualsComparerI26NamespaceAndNamePairEqualsEENS0_9allocatorIS8_EEE9SelectKeyESD_SF_E10test_emptyERK24dense_hashtable_iteratorIS8_S6_S9_SH_SD_SF_E
F6g:__Z69RuntimeInvoker_Boolean_t3825574718_RuntimeObject_ObjectU26_t597476745PFvvEPK10MethodInfoPvPS4_
lvh:__ZL78Convert_t2607082565_CustomAttributesCacheGenerator_Convert_ToSByte_m2585959569P21CustomAttributesCache
vKg:_Rect_Overlaps_m4145874649
Asg:_UnauthorizedAccessException__ctor_m3480402128
Jpf:_BigInteger_op_Modulus_m3788401748
Sha:__ZZN15DirectorManager15InitializeClassEvEN45FixedUpdateDirectorFixedSampleTimeRegistrator7ForwardEv
iYi:_ArgInfo_GetInOutArgs_m3184132151
$za:__ZNK8Material16MarkDependenciesER27GarbageCollectorThreadState
dPh:__ZL121UnityWebRequest_t254341728_CustomAttributesCacheGenerator_UnityWebRequest_set_disposeDownloadHandlerOnDispose_m1872424902P21CustomAttributesCache
Dth:__ZL85Thread_t241561612_CustomAttributesCacheGenerator_Thread_get_CurrentThread_m3667342817P21CustomAttributesCache
WAc:__ZL17Transfer_GUIStyleI9JSONWriteLb0EEvRK29SerializationCommandArgumentsR31RuntimeSerializationCommandInfo
q4a:__Z28GetHaloVertexPositionsStereoP8Vector3fRKS_S2_f
Kya:__ZN6prcoreL27StretchGenericFloatBilinearI15TexFormatRGHalfEEvPKNS_9InnerInfoE
_Qh:__ZL85UnityEvent_1_t4075366602_CustomAttributesCacheGenerator_UnityEvent_1__ctor_m152711818P21CustomAttributesCache
qKh:__ZL137AnimatorControllerPlayable_t1744083903_CustomAttributesCacheGenerator_AnimatorControllerPlayable_INTERNAL_CALL_SetFloatString_m1681161548P21CustomAttributesCache
fRe:_Enumerator_MoveNext_m598197344_AdjustorThunk
$Ci:_DisplaysUpdatedDelegate_Invoke_m3646339243
Sr:__ZN13AnimationClip23VirtualRedirectTransferER18StreamedBinaryReadILb0EE
I6i:_TextGenerationSettings_t2543476768_marshal_pinvoke_back
idh:__Z36RuntimeInvoker_Enumerator_t442692252PFvvEPK10MethodInfoPvPS4_
zud:_String_JoinUnchecked_m1880555587
Usa:__ZNK9ShaderLab7Program21GetMatchingSubProgramEPK6ShaderPKNS_4PassERK16ShaderKeywordSetjPS7_R19ShaderSnippetResult
zpe:_Array_InternalArray__Insert_TisKeyValuePair_2_t1174980068_m2464431954_gshared
xAh:__ZL109AsyncOperation_t3814632279_CustomAttributesCacheGenerator_AsyncOperation_set_allowSceneActivation_m3988498951P21CustomAttributesCache
Rqc:__Z49Register_UnityEngine_Resources_GetBuiltinResourcev
b1i:_BalancingGroup_set_Balance_m3452171919
b_c:_tt_cmap10_char_index
IGd:_Dropdown_Awake_m335654827
yga:__Z18GetITerrainManagerv
w9h:_Dictionary_2_U3CCopyToU3Em__0_m1479035402_gshared
rZd:_BitArray_set_Item_m3801461194
jBd:_StandaloneInputModule_get_cancelButton_m1563746440
ovj:__ZN15dense_hashtableINSt3__24pairIK10KeyWrapperIPK22Il2CppGenericParameterEP11Il2CppClassEES6_N6il2cpp5utils11PointerHashIS4_EEN14dense_hash_mapIS6_S9_SE_NS6_14EqualsComparerINS0_8equal_toIS5_EEEENS0_9allocatorISA_EEE9SelectKeyESJ_SL_E3endEv
gud:_String_Remove_m3580114465
dXc:_UNITY_FT_Destroy_Class_cff_field_handlers
C1b:__ZN9ShaderLab22SerializedBindChannels8TransferI19StreamedBinaryWriteILb0EEEEvRT_
zHi:_InternalEnumerator_1_MoveNext_m1791963761_AdjustorThunk
BWg:__Z82RuntimeInvoker_Int32_t2071877448_RuntimeObject_Int32_t2071877448_Int16_t4041245914PFvvEPK10MethodInfoPvPS4_
svc:__ZN5IMGUI20MoveWindowFromLayoutER8GUIStateiRK5RectTIfE
UUi:_UrlAttribute_get_UrlValue_m3448699483
vCh:__ZL83GameObject_t1756533147_CustomAttributesCacheGenerator_GameObject_set_tag_m717375123P21CustomAttributesCache
Cwg:_Mathf_Max_m1875893177
bsg:_UIntPtr__ctor_m2737768530
UVc:_UNITY_FT_Stream_ReadUShort
kyi:_Bounds_get_center_m129401026_AdjustorThunk
aNd:_InputField_OnEnable_m3797157569
Umc:__Z51Register_UnityEngine_GUILayer_INTERNAL_CALL_HitTestv
Dtc:__Z50Register_UnityEngine_Object_FindSceneObjectsOfTypev
aua:__ZNSt3__26__treeINS_12__value_typeIN4core12basic_stringIcNS2_20StringStorageDefaultIcEEEES6_EENS_19__map_value_compareIS6_S7_NS_4lessIS6_EELb1EEE13stl_allocatorIS7_L18MemLabelIdentifier1ELi16EEE7destroyEPNS_11__tree_nodeIS7_PvEE
Otj:_Nullable_1__ctor_m796575255_gshared
m4j:__ZN6il2cpp2vm8Profiler7GCEventE13Il2CppGCEvent
w7d:_DateTimeUtils_ToString_m3878360633
HSj:__ZN6il2cpp6icalls8mscorlib6SystemL16ThrowInvalidCastEPK11Il2CppClassS5_
VNa:__Z13IsDepthFormat14GraphicsFormat
tHb:__ZN12AspectRatios8TransferI24GenerateTypeTreeTransferEEvRT_
BBd:_StandaloneInputModule_ForceAutoSelect_m1167170508
eHi:_InternalEnumerator_1_MoveNext_m1636015243_gshared
ISc:__Z12FormatBufferPciPKcz
edk:_GhostMove_set_direction_m752010372
MBd:_TouchInputModule_Process_m1373751353
Wf:_emscripten_glUniform1fv
fag:_MethodBuilder_Invoke_m1874904900
Dyd:_ExecuteEvents_Execute_m898902863
QS:__ZN4FMOD7Channel7setModeEj
i7f:_DerivedType_InvokeMember_m4149586013
$sh:__ZL88UTF7Encoding_t741406939_CustomAttributesCacheGenerator_UTF7Encoding_GetBytes_m3015176946P21CustomAttributesCache
Fsi:_AnimatorControllerPlayable_GetNextAnimatorStateInfo_m1690618991
rKf:_TlsStream_SetLength_m1460039587
zvc:__ZN11IMGUIModule12AddGUIScriptER8ListNodeI13MonoBehaviourE
ub:invoke_difi
Gzd:_PointerEventData_set_rawPointerPress_m1484888025
hga:__ZL50StaticRegisterSceneLoadedCallback_LightmapSettingsPv
FYd:_SimpleEnumerator_Clone_m215554974
BSg:__Z119RuntimeInvoker_Void_t1841601450_RuntimeObject_RuntimeObject_RuntimeObject_RuntimeObject_Int32_t2071877448_RuntimeObjectPFvvEPK10MethodInfoPvPS4_
g7a:__ZN29MotionVectorRenderLoopScratch15ThreadedCleanupEv
Pm:FUNCTION_TABLE_iiffi
LJd:_GridLayoutGroup_get_cellSize_m1061731753
wXj:__ZN15dense_hashtableINSt3__24pairIK10KeyWrapperINS1_IPKcS4_EEEiEES6_24NamespaceAndNamePairHashN14dense_hash_mapIS6_iS9_NS6_14EqualsComparerI26NamespaceAndNamePairEqualsEENS0_9allocatorIS8_EEE9SelectKeyESD_SF_E12expand_arrayEjN21dense_hash_map_traits17integral_constantIbLb0EEE
Jci:_EqualityComparer_1_System_Collections_IEqualityComparer_Equals_m300683774_gshared
CNa:__ZN21GLESGpuProgramApplier11ApplyVectorERKN20GpuProgramParameters14ValueParameterEPK8Vector4ft
Rbb:__Z17PrepareSceneNodesP11CullResults
$aj:_Vector4_ToString_m2340321043_AdjustorThunk
Hya:__ZN6prcoreL27StretchGenericFloatBilinearI18TexFormatRGBAFloatEEvPKNS_9InnerInfoE
e2i:_Parser_IsIgnoreCase_m4155598997
ZVj:__ZN15dense_hashtableINSt3__24pairIK10KeyWrapperIP14Il2CppIUnknownEjEES5_N6il2cpp5utils11PointerHashIS3_EEN14dense_hash_mapIS5_jSB_NS5_14EqualsComparerINS0_8equal_toIS4_EEEENS0_9allocatorIS7_EEE9SelectKeyESG_SI_E12expand_arrayEjN21dense_hash_map_traits17integral_constantIbLb0EEE
q0c:_cff_size_done
Oci:_EqualityComparer_1_System_Collections_IEqualityComparer_Equals_m3376587337_gshared
O1a:__ZN22RenderingCommandBuffer13GetAndCheckRTE24BuiltinRenderTextureTypeRKN9ShaderLab16FastPropertyNameEPKcPP13RenderTexture
sib:__ZN6Camera34UpdatePreviousViewProjectionMatrixEv
Xsa:__ZN9ShaderLab11ShaderState25RemoveUnsupportedProgramsEPK6Shader
p2b:__ZL23AddGpuProgramParametersR20GpuProgramParametersRKNSt3__26vectorIN9ShaderLab20SerializedSubProgram15MatrixParameterENS1_9allocatorIS5_EEEERKNS2_INS4_15VectorParameterENS6_ISB_EEEEiP16PropertyNamesSet
Szh:__ZL179U3CCreateWhereIteratorU3Ec__Iterator1D_1_t2523986802_CustomAttributesCacheGenerator_U3CCreateWhereIteratorU3Ec__Iterator1D_1_System_Collections_IEnumerator_get_Current_m1354814095P21CustomAttributesCache
vtc:__Z44Register_UnityEngine_Object_DestroyImmediatev
qkh:__ZL57CompareOptions_t2829943955_CustomAttributesCacheGeneratorP21CustomAttributesCache
cmc:__Z47Register_UnityEngine_Component_BroadcastMessagev
$u:__ZN18StreamedBinaryReadILb0EE21TransferSTLStyleArrayI13dynamic_arrayI4PPtrI6ObjectELj4EEEEvRT_17TransferMetaFlags
doh:__ZL62_ConstructorBuilder_t1236878896_CustomAttributesCacheGeneratorP21CustomAttributesCache
Aic:__Z26scripting_class_has_parent17ScriptingClassPtrS_
DDe:_Int64_System_IConvertible_ToInt16_m2022633688_AdjustorThunk
zPe:_OrdinalComparer__ctor_m2952942058
Jck:__ZN6il2cpp8metadata25Il2CppGenericClassCompare7CompareEPK18Il2CppGenericClassS4_
eG:__ZNK8Animator20IsInMatchTargetStateEv
Em:FUNCTION_TABLE_viiifiii
ewc:__Z36Register_UnityEngine_GUI_set_changedv
TEd:_ColorTween_get_startColor_m278546349_AdjustorThunk
jhg:_Encoding_get_Unicode_m1382741113
qxj:__ZNK10KeyWrapperIPK11Il2CppClassE14EqualsComparerINSt3__28equal_toIS2_EEEclERKS3_SA_
uWi:_LifetimeServices_set_SponsorshipTimeout_m1403222216
Sze:_NumberFormatInfo_get_PositiveSign_m3396333026
Qdh:__Z37RuntimeInvoker_Enumerator_t1147558385PFvvEPK10MethodInfoPvPS4_
KWd:_Char_ToString_m1401375624_AdjustorThunk
ine:_Array_InternalArray__ICollection_Add_TisTableRange_t2011406615_m147373358_gshared
A3d:_Convert_ToDateTime_m1251728572
Gpi:_AnimationMixerPlayable_op_Explicit_m2834005805
kne:_Array_InternalArray__ICollection_Add_TisBoolean_t3825574718_m1009318882_gshared
Yjf:_ReadOnlyCollection_1_System_Collections_IList_set_Item_m1149349508_gshared
oA:__ZN27AnimationLayerMixerPlayable18SetInputConnectionEP8Playablei
Ixc:__Z42Register_UnityEngine_GUIStyle_get_wordWrapv
$z:__ZN7mecanim28TransformValueArrayBlendNodeEiiiRKNS_10ValueArrayERKNS_14ValueArrayMaskERS0_RS3_RNS_16ValueArrayWeightEf
Z_f:_ObjectReader_ReadObjectContent_m3949770110
dvk:_emscripten_glUseProgram__wrapper
cZe:_List_1_System_Collections_ICollection_get_SyncRoot_m3031553207_gshared
FBi:_Component_SendMessage_m4199581575
$wj:__ZN6il2cpp2vm5Class40GetInterfaceInvokeDataFromVTableSlowPathEPK12Il2CppObjectPK11Il2CppClassj
Hsb:__ZN20TierGraphicsSettings8TransferI18StreamedBinaryReadILb0EEEEvRT_
fmi:_Text_get_font_m3115501113
RRj:__GLOBAL__sub_I_Thread_cpp
kua:__ZN14SafeBinaryRead8TransferINSt3__24pairIN9ShaderLab16FastPropertyNameE10ColorRGBAfEEEEvRT_PKc17TransferMetaFlags
ouj:__ZL9rshift128PyS_
T_f:_ObjectReader_RecordFixup_m1893348030
Xue:_LayoutGroup_SetProperty_TisRuntimeObject_m1703476175_gshared
c8f:_EnumBuilder_GetElementType_m1228393631
FPj:__ZN14dense_hash_mapI10KeyWrapperINSt3__24pairIPK12PropertyInfoP11Il2CppClassEEEj17ReflectionMapHashIS8_ENS9_14EqualsComparerINS1_8equal_toIS8_EEEENS1_9allocatorINS2_IKS9_jEEEEE13set_empty_keyERSH_
fk:_glRenderbufferStorage
gXj:__ZNK15dense_hashtableINSt3__24pairIK10KeyWrapperINS1_IPKcS4_EEEiEES6_24NamespaceAndNamePairHashN14dense_hash_mapIS6_iS9_NS6_14EqualsComparerI26NamespaceAndNamePairEqualsEENS0_9allocatorIS8_EEE9SelectKeyESD_SF_E13find_positionERS7_
Clh:__ZL80ILGenerator_t99948092_CustomAttributesCacheGenerator_ILGenerator_Emit_m116557729P21CustomAttributesCache
voc:__Z45Register_UnityEngine_Input_get_touchSupportedv
Ocd:__ZN11UnityEngine15PlatformWrapper28GetTextureFormatSupportFlagsEv
TXc:_UNITY_FT_Create_Class_pshinter_module_class
Dtd:_String_CompareOrdinalCaseInsensitiveUnchecked_m2002640463
cUd:_Boolean_GetHashCode_m1894638460
V0c:_cf2_setError
lCb:__ZN14SafeBinaryRead21TransferSTLStyleArrayI13dynamic_arrayI12BoneWeights4Lj16EEEEvRT_17TransferMetaFlags
msg:_UIntPtr_ToUInt32_m1679632738_AdjustorThunk
zjg:_UTF7Encoding_InternalGetChars_m4157428055
PBa:__Z33InterpolateLightProbeCoefficientsRK17LightProbeContextRK29LightProbeSamplingCoordinatesR20SphericalHarmonicsL2
hFh:__ZL86Texture_t2243626319_CustomAttributesCacheGenerator_Texture_Internal_GetWidth_m56137242P21CustomAttributesCache
o$a:__ZZ23InitPlayerLoopCallbacksvEN35PreUpdateSendMouseEventsRegistrator7ForwardEv
Vrf:_SmallXmlParser_HandleBufferedContent_m3397096753
M5g:__Z55RuntimeInvoker_Void_t1841601450_SpriteState_t1353336012PFvvEPK10MethodInfoPvPS4_
fh:_glDisable
iOd:_InputField_OnDeselect_m3963675647
vIi:_InternalEnumerator_1_MoveNext_m1994485778_AdjustorThunk
pbd:__Z44Register_UnityEngine_Canvas_get_pixelPerfectv
bQe:_KeyValuePair_2_get_Value_m1916631176_AdjustorThunk
m5f:_MethodBase__ctor_m3951051358
yob:__ZN4PPtrI9Texture2DE8TransferI14SafeBinaryReadEEvRT_
C3j:__ZN6il2cpp5utils11StringUtils15StringDuplicateEPKDsj
uGd:_Dropdown_get_template_m3014799983
$Sf:_BaseMachine_Scan_m122450399
TA:__ZN17AnimationPlayable17ProcessRootMotionEP35AnimationPlayableEvaluationConstantP32AnimationPlayableEvaluationInputP33AnimationPlayableEvaluationOutput
h4g:__Z73RuntimeInvoker_PlayableOutput_t988259697_ScriptPlayableOutput_t1666207618PFvvEPK10MethodInfoPvPS4_
vXd:_ArrayList_CopyTo_m2353632788
gmh:__ZL71AssemblyFileVersionAttribute_t2897687916_CustomAttributesCacheGeneratorP21CustomAttributesCache
aga:__ZNSt3__26vectorINS_4pairIyP17VertexDeclarationEENS_9allocatorIS4_EEE6assignIPS4_EENS_9enable_ifIXaasr21__is_forward_iteratorIT_EE5valuesr16is_constructibleIS4_NS_15iterator_traitsISB_E9referenceEEE5valueEvE4typeESB_SB_
qWe:_List_1_Add_m943275925_gshared
Tti:_AnimatorControllerPlayable_CrossFade_m3391147919_AdjustorThunk
Zid:_HMAC_get_BlockSizeValue_m603907214
