Kc:_glClearStencil
Rne:_Array_InternalArray__ICollection_Add_TisMark_t2724874473_m1613484179_gshared
RVh:__ZL80Graphic_t2426225576_CustomAttributesCacheGenerator_Graphic_OnFillVBO_m1723985607P21CustomAttributesCache
Q0f:_RuntimeTypeHandle_GetObjectData_m3567098501
U3j:__ZN6il2cpp2vm5Array13GetByteLengthEP11Il2CppArray
Zgi:_Raycast3DCallback_BeginInvoke_m3028685017
bPg:__Z79RuntimeInvoker_RuntimeObject_Int64_t909078037_Int64_t909078037_Int64_t909078037PFvvEPK10MethodInfoPvPS4_
v7i:_TextGenerator_get_lineCount_m4287181941
ewj:_Comparison_1_Invoke_m353639462_gshared
prg:_UInt64_System_IConvertible_ToDecimal_m4205696037
$H:__ZN10StateRange8TransferI14SafeBinaryReadEEvRT_
uPa:__Z21SourceMipLevelForBlitiiii
itb:__ZN31CanvasBatchIntermediateRenderer15AddAsRenderNodeER15RenderNodeQueueRK20DeprecatedSourceData
c1d:_Enumerator_get_Key_m2908810861
LI:__ZN15SerializeTraitsIN7mecanim6bitsetILj70EEEE8TransferI14SafeBinaryReadEEvRS2_RT_
ori:_AnimatorControllerPlayable_SetBool_m1780824884_AdjustorThunk
SM:__ZN23AnimationOffsetPlayable11SetRotationE11Quaternionf
hw:__ZN11UnityEngine9Animation28GenericAnimationBindingCacheD2Ev
Spi:_AnimationOffsetPlayable_op_Explicit_m363086289
Ndi:_EqualityComparer_1__cctor_m968537130_gshared
rTe:_List_1_System_Collections_IList_IndexOf_m39706221_gshared
K7h:_Dictionary_2_Remove_m1849931834_gshared
H3d:_Decimal_op_Implicit_m2971610317
$Fd:_Graphic_UnregisterDirtyVerticesCallback_m1526739224
xfb:__Z18RestoreRenderStateR20CameraRenderOldStateR17ShaderPassContext
JYd:_SynchronizedArrayListWrapper_get_Item_m3309425850
yVb:__Z18Transfer_BlittableI18StreamedBinaryReadILb1EELb1E5RectTIfEEvRK29SerializationCommandArgumentsR31RuntimeSerializationCommandInfo
ORb:__Z18Transfer_BlittableI24GenerateTypeTreeTransferLb0E11ColorRGBA32EvRK29SerializationCommandArgumentsR31RuntimeSerializationCommandInfo
Iba:__Z25scripting_class_from_name17ScriptingImagePtrPKcS1_
wt:__ZNSt3__26vectorIN13AnimationClip10FloatCurveE13stl_allocatorIS2_L18MemLabelIdentifier25ELi16EEE6resizeEj
IKb:__Z29scripting_class_enum_basetype17ScriptingClassPtr
H_g:__Z111RuntimeInvoker_Void_t1841601450_Vector4_t2243707581_Vector4_t2243707581_Vector4_t2243707581_Vector4_t2243707581PFvvEPK10MethodInfoPvPS4_
lNc:__ZN16PhysicsManager2D7RaycastERK3RayfiR12RaycastHit2D
J9f:_GenericTypeParameterBuilder_GetHashCode_m867619899
wng:_TimeSpan_ToString_m2947282901
edi:_EqualityComparer_1__cctor_m3397254040_gshared
Rla:__ZNK20LocalFileSystemPosix6ParentERK13FileEntryDataRN4core12basic_stringIcNS3_20StringStorageDefaultIcEEEE
p7i:_TextGenerator_get_verts_m3124035267
W9i:_Vector2_get_one_m3174311904
jte:_Array_Sort_TisVector2_t2243707579_m1307634946_gshared
_Ea:__ZN17PersistentManager22CheckInstanceIDsLoadedEPii
oNa:__ZN7ApiGLES17CopyBufferSubDataEjjlll
Cub:__ZNK20ScriptPlayableOutput7GetTypeEv
axj:_U3CCreateWhereIteratorU3Ec__Iterator1D_1_Reset_m1773515612_gshared
V6a:__ZN25CameraStackRenderingState20GetOrCreateBuiltinRTE24BuiltinRenderTextureTypeii17DepthBufferFormat19RenderTextureFormatj22RenderTextureReadWrite14VRTextureUsagei
roj:_AesManaged_CreateEncryptor_m1729287824
zbb:__ZN17PrePassRenderLoop14RenderBasePassEP13RenderTextureRK14LightingLayersR13dynamic_arrayI16RenderObjectDataLj4EERbR10MinMaxAABB
DId:_GraphicRegistry_RegisterGraphicForCanvas_m2284226562
OVd:_Char_System_IConvertible_ToInt16_m2741348777_AdjustorThunk
Cuc:__ZN5IMGUI18RepaintModalWindowER8GUIState
kff:_ReadOnlyCollection_1_System_Collections_Generic_IListU3CTU3E_set_Item_m1547026160_gshared
Dih:__ZL61MarshalAsAttribute_t2900773360_CustomAttributesCacheGeneratorP21CustomAttributesCache
iAb:__Z23SetSpriteMeshIndexCountP14SharedMeshDataj
ipa:__ZN7Texture13SetFilterModeEi
tkc:__Z46Register_UnityEngine_Application_get_isPlayingv
S5j:__ZN6il2cpp8metadata13GenericMethod9GetMethodEPK19Il2CppGenericMethod
Nq:__ZNSt3__26vectorIN4core12basic_stringIcNS1_20StringStorageDefaultIcEEEENS_9allocatorIS5_EEE7reserveEj
e6d:_Convert_ToUInt16_m2130758075
bPj:__ZN15dense_hashtableINSt3__24pairIK10KeyWrapperINS1_IPK11Il2CppImageP11Il2CppClassEEEjEES9_17ReflectionMapHashIS8_EN14dense_hash_mapIS9_jSD_NS9_14EqualsComparerINS0_8equal_toIS8_EEEENS0_9allocatorISB_EEE9SelectKeyESI_SK_E3endEv
A0g:__Z132RuntimeInvoker_Void_t1841601450_RuntimeObject_AnimatorStateInfo_t2577870592_Int32_t2071877448_AnimatorControllerPlayable_t1744083903PFvvEPK10MethodInfoPvPS4_
VPf:_X509BasicConstraintsExtension_Encode_m3505127076
eIa:__ZN13GfxDeviceGLES11SetViewportERK5RectTIiE
ZKd:_Image_get_pixelsPerUnit_m4104195799
uni:_Toggle_InternalToggle_m2323729210
X9d:_Decimal_System_IConvertible_ToInt64_m2504363272
Zrc:__Z24Time_Get_Custom_PropTimev
SQd:_Array_GetValue_m3182152438
ae:_emscripten_glDepthRange
Q2f:_DESTransform_CipherFunct_m3559419566
csg:_UIntPtr_get_Size_m537421489
Hkd:_Rijndael_Create_m113171669
vwg:_GUILayoutGroup_CalcWidth_m4107152934
a$b:__Z14resize_trimmedINSt3__26vectorIN9ShaderLab20SerializedSubProgram12UAVParameterENS0_9allocatorIS4_EEEEEvRT_j
SXf:_SerializationInfo_AddValue_m1781549036
wpi:_AnimationLayerMixerPlayable_SetLayerMaskFromAvatarMask_m2582039992_AdjustorThunk
JDf:_TlsServerKeyExchange_verifySignature_m3641534563
Zgc:__ZN13BuildSettings34ConvertScenePathToDisplayScenePathERKN4core12basic_stringIcNS0_20StringStorageDefaultIcEEEE
Ili:_Slider_FindSelectableOnLeft_m3136767885
UOa:__ZN4crndL20crnd_default_reallocEPvjPjbS0_
Lke:_Array_BinarySearch_TisInt32_t2071877448_m51233948_gshared
Fjk:__ZNSt3__212basic_stringIcNS_11char_traitsIcEENS_9allocatorIcEEEC2ERKS5_
mYf:_ProviderData_CopyFrom_m431414335
$Ab:__ZN18SpriteAtlasManager19AddRequestingSpriteE4PPtrI6SpriteE
Wfc:__ZN16PackedQuatVector9PackQuatsEP11Quaternionfi
Krc:__Z33Texture_CUSTOM_Internal_GetHeightP12Il2CppObject
oPd:_LayoutGroup_get_preferredHeight_m3901163825
web:__ZN23ScriptableRenderContextC2Ev
xu:__ZN7mecanim9animation18ClipMuscleConstant8TransferI24GenerateTypeTreeTransferEEvRT_
Wjc:__Z22InverseTransformVector23TransformAccessReadOnlyRKN4math7_float3E
r3d:_DateTime_AbsoluteDays_m3061694073
z4c:_UNITY_FT_Stream_GetChar
XVb:__Z18Transfer_BlittableI18StreamedBinaryReadILb1EELb1EdEvRK29SerializationCommandArgumentsR31RuntimeSerializationCommandInfo
I1h:_Enumerator_System_Collections_IEnumerator_get_Current_m229223308_gshared
RKb:__Z26BuildSerializationCacheFor17ScriptingClassPtrRb
CRa:__ZN7ApiGLES15BlitFramebufferEN2gl6HandleILNS0_10ObjectTypeE9EEENS0_15FramebufferReadES3_S3_iiiiiiiiNS0_15FramebufferTypeE
EZg:__Z112RuntimeInvoker_RuntimeObject_RuntimeObject_RuntimeObject_RuntimeObject_RuntimeObject_RuntimeObject_RuntimeObjectPFvvEPK10MethodInfoPvPS4_
nDi:_Event_Init_m3901382626
sYd:_FixedSizeArrayListWrapper_AddRange_m2071800418
_K:__ZN13ProduceHelperI8AnimatorLb0EE7ProduceE18MemLabelIdentifier18ObjectCreationMode
gna:__Z9InitInputv
NUg:__Z85RuntimeInvoker_Boolean_t3825574718_Int64_t909078037_Int64_t909078037_SByte_t454417549PFvvEPK10MethodInfoPvPS4_
eSe:_Enumerator_VerifyState_m2358705882_AdjustorThunk
MSb:__Z29Transfer_Blittable_ArrayFieldI24GenerateTypeTreeTransfer11ColorRGBA32EvRT_R9ArrayInfoRK23StaticTransferFieldInfo
Yhi:_Selectable_Navigate_m915280351
Llb:__ZN16MemoryFileSystem6DeleteER13FileEntryDatab
naj:_Vector3_get_normalized_m936072361
DCa:__ZL21BlitScaleStbImageImplRK14ImageReferenceRS_NS_10ColorSpaceE
oKf:_TlsStream_set_Position_m378064217
POc:__ZNSt3__26__sortIR31RayHitsByInverseDepthComparitorP12RaycastHit2DEEvT0_S5_T_
hOb:__Z29Transfer_Blittable_ArrayFieldI14SafeBinaryReadyEvRT_R9ArrayInfoRK23StaticTransferFieldInfo
ZV:__ZN20SoundChannelInstance15setChannelGroupEPN4FMOD12ChannelGroupE
Wpd:_Evidence_Equals_m2325859915
T4f:_Default__ctor_m172834064
yc:invoke_vifffii
sBi:_Component_GetComponents_m637589504
n0i:_Regex_IsMatch_m2159202025
eYa:__ZNK25MultiBlocksMemoryFileData5CloneEv
vbk:_GC_add_ext_descriptor
gZf:_RemotingServices_GetMethodBaseFromName_m3271095947
Blk:dynCall_iiiiiiiiiiii
fvd:_ASCIIEncoding_GetBytes_m3617160053
NCf:_CipherSuiteCollection_System_Collections_IList_RemoveAt_m143866082
bM:__ZN26AnimatorControllerPlayable26ParameterControlledByCurveEi
q3b:__ZL26KeywordSetToStringDontSortRKNSt3__26vectorIN4core12basic_stringIcNS1_20StringStorageDefaultIcEEEENS_9allocatorIS5_EEEERS5_
Hxa:__ZN6prcoreL17RemapGenericFloatI16TexFormatRGFloat17TexFormatRGBAHalfEEvPKNS_9InnerInfoE
DQ:__ZN12AudioManager22CreateFMODSoundFromWWWEP10IWWWStream15FMOD_SOUND_TYPE17FMOD_SOUND_FORMATjjbbP10SampleClip
Dac:__ZNK32RendererMaterialAnimationBinding15GenerateBindingERKN4core12basic_stringIcNS0_20StringStorageDefaultIcEEEEbRN11UnityEngine9Animation14GenericBindingE
Yaa:__ZN8Remapper23GetOrGenerateInstanceIDERK26SerializedObjectIdentifier
Nt:__ZN17AnimationCurveTplI8Vector3fEC2ERKS1_
fKe:_StreamWriter_Flush_m3426120024
a_a:__ZN17FileSystemHandler10AtomicMoveER13FileEntryDataS1_
ab:invoke_iiiiiifffiiifii
KHe:_MemoryStream__ctor_m1489366847
pqd:_SecurityElement_IsValidTag_m64902195
L1h:_Enumerator_System_Collections_IEnumerator_get_Current_m229223308_AdjustorThunk
Kfg:_PropertyInfo_SetValue_m2961483868
Kvg:_GUILayoutEntry_set_style_m70917293
YYe:_List_1_System_Collections_IList_Contains_m4193366963_gshared
bmj:_UnityEvent_3_FindMethod_Impl_m1889846153_gshared
p5f:_ConstructorInfo_Invoke_m2144827141
vAb:__ZN6Sprite8TransferI24GenerateTypeTreeTransferEEvRT_
Usc:__Z48Register_UnityEngine_Transform_SetAsFirstSiblingv
Vtg:_Font_get_fontSize_m1732593415
yAb:__ZN7SubMesh8TransferI24GenerateTypeTreeTransferEEvRT_
Neg:_MonoProperty_get_CanWrite_m2124922514
wkc:__Z48Register_UnityEngine_Application_get_absoluteURLv
tHj:__ZN6il2cpp6icalls8mscorlib6SystemL16CheckMemberMatchI9FieldInfoNS_5utils10functional6FilterINSt3__212basic_stringIcNS8_11char_traitsIcEENS8_9allocatorIcEEEENS5_13VmStringUtils23CaseInsensitiveComparerEEEEEbPKT_PK11Il2CppClassSN_iRKT0_
Jik:_poll
wHe:_Stream_BeginRead_m1985960185
xyg:_GUIStyle_GetFontInternalDuringLoadingThread_m229734483
m8b:__ZN13ProduceHelperI14Texture2DArrayLb0EE7ProduceE18MemLabelIdentifier18ObjectCreationMode
jv:__ZN7mecanim5human9HumanGoal8TransferI18StreamedBinaryReadILb0EEEEvRT_
bAf:_MD4Managed_GG_m1462438360
Ooc:__Z46Mesh_CUSTOM_PrintErrorCantAccessMeshForIndicesP12Il2CppObject
Spc:__Z53PlayableHandle_CUSTOM_INTERNAL_CALL_GetPlayableTypeOfR9HPlayable
Njc:__ZN9Transform23SetSiblingIndexInternalEib
Unf:_SimpleCollator_LastIndexOfOrdinal_m45234497
sIa:__ZN13GfxDeviceGLES17DestroySubProgramEPN9ShaderLab10SubProgramE
Zx:__ZN7mecanim5human12HumanPoseSubERNS0_9HumanPoseERKS1_S4_
Pzf:_MD4_Create_m2582504069
V$j:__ZN6il2cpp8metadata15GenericMetadata15GetGenericClassEiPK17Il2CppGenericInst
zTd:_Boolean_System_IConvertible_ToInt16_m977801621
XMb:__Z18Transfer_BlittableI14SafeBinaryReadLb0E10Matrix4x4fEvRK29SerializationCommandArgumentsR31RuntimeSerializationCommandInfo
R$a:__Z24GetFixedBehaviourManagerv
f4a:__ZN12FlareManager9UpdateJobEP25FlareManagerUpdateJobData
YGj:__ZN6il2cpp2vm10ThreadPool4WaitEP17Il2CppAsyncResultPPv
Sgk:_vfprintf
S4a:__ZN20DynamicPropertySheetD0Ev
kjb:__ZN14SafeBinaryRead17RegisterConverterEPKcS1_PFbPvRS_E
u5:__ZN35RegisterRuntimeInitializeAndCleanup8RegisterEPFvPvES2_iS0_
Ds:__ZN7mecanim6memory16ChainedAllocator7ReserveEj
Tkf:_ReadOnlyCollection_1_System_Collections_IList_Clear_m2600246370_gshared
VSj:__ZN14dense_hash_mapI10KeyWrapperINSt3__24pairIPK12PropertyInfoP11Il2CppClassEEEj17ReflectionMapHashIS8_ENS9_14EqualsComparerINS1_8equal_toIS8_EEEENS1_9allocatorINS2_IKS9_jEEEEE15set_deleted_keyERSH_
krf:_DSAManaged_NormalizeArray_m2287089393
uPi:_InternalEnumerator_1_System_Collections_IEnumerator_get_Current_m2389982234_AdjustorThunk
V$a:__ZN8Material26ResetAllCachedMaterialDataEP6Shader
PSd:_BitConverter_ToUInt32_m4153360341
K4c:_UNITY_TT_Get_MM_Var
Uxj:__ZN6il2cpp6icalls8mscorlib6System7Decimal13decimal2Int64EP19il2cpp_decimal_reprPx
ba:invoke_diddi
dzd:_ExecuteEvents__cctor_m288775360
t6c:__ZNK2UI6Canvas13GetRenderModeEv
v4d:_Double_TryParseStringConstant_m2585405703
pMb:__Z18Transfer_BlittableI14SafeBinaryReadLb0EiEvRK29SerializationCommandArgumentsR31RuntimeSerializationCommandInfo
MFj:__ZN6il2cpp2vm13MetadataCache30GetPropertyDefinitionFromIndexEi
Skd:_RijndaelTransform_Clear_m1652144089
_Fe:_MonoIO_GetException_m2577367044
$dd:__ZN22BaseUnityConnectClient17InitializeSessionERKN4core12basic_stringIcNS0_20StringStorageDefaultIcEEEES6_N19CloudServiceHandler13InitModeFlagsE
k4h:_Enumerator_MoveNext_m1404007384_gshared
ROe:_NumberFormatter_get_IsZero_m1325357749
fJ:__ZN15SerializeTraitsI9OffsetPtrIN7mecanim9animation23BlendDirectDataConstantEEE8TransferI24GenerateTypeTreeTransferEEvRS4_RT_
Mrk:_emscripten_glDeleteBuffers__wrapper
E2g:__Z121RuntimeInvoker_Void_t1841601450_Single_t2076509932_Single_t2076509932_Single_t2076509932_Single_t2076509932_RuntimeObjectPFvvEPK10MethodInfoPvPS4_
Lde:_Enum_ToObject_m322320225
_hc:__ZN13MonoBehaviour34StopCoroutineFromEnumeratorManagedE18ScriptingObjectPtr
Bod:_X509Certificate__ctor_m3860837120
Npi:_AnimationOffsetPlayable_CreateHandle_m1204489623
$tg:_GameObject_Internal_CreateGameObject_m3428198595
s6g:__Z109RuntimeInvoker_RuntimeObject_Ray_t2469606224_Single_t2076509932_Int32_t2071877448_RuntimeObject_RuntimeObjectPFvvEPK10MethodInfoPvPS4_
azi:_Camera_RaycastTry2D_m755036866
Okf:_ReadOnlyCollection_1_System_Collections_Generic_IListU3CTU3E_set_Item_m3663361643_gshared
lL:__ZN7mecanim9animation14AvatarConstant15InitializeClassEv
myd:_EventTrigger_OnScroll_m626934407
rJb:__ZN30RuntimeInitializeOnLoadManager8TransferI18StreamedBinaryReadILb0EEEEvRT_
T7f:_TypeBuilder_not_supported_m3178173643
PYc:_UNITY_tt_face_load_pclt
Kic:__ZL34GetComponentsImplementationRecurseILb1ELi0ELi2EEbR10GameObjectbRK17CompareParametersRK39GetComponentsImplementation_ReturnValue
rLc:__ZN10ClipperLib7Clipper24InsertLocalMinimaIntoAELEx
Udk:__ZN6il2cpp6icalls8mscorlib6System9Threading5Mutex20CreateMutex_internalEbP12Il2CppStringPb
$Xd:_ArrayListWrapper_Remove_m1105489978
g4a:__ZNK6Camera18WorldToScreenPointERK8Vector3fPb
T$d:_HashKeys_CopyTo_m3566668422
pHa:__Z18IsCompressedFormat14GraphicsFormat
WVd:_Convert_ToSByte_m2665932200
maa:__ZNSt3__227__insertion_sort_incompleteIRPFbRKN18AwakeFromLoadQueue4ItemES4_EPS2_EEbT0_S9_T_
O6f:_ILGenerator_label_fixup_m1325994348
QDj:__ZN14dense_hash_mapI10KeyWrapperIN6il2cpp5utils13dynamic_arrayIPK10Il2CppTypeLj4EEEEPFvvENS1_8metadata19Il2CppSignatureHashENS8_14EqualsComparerINSB_22Il2CppSignatureCompareEEENSt3__29allocatorINSG_4pairIKS8_SA_EEEEE15set_deleted_keyERSJ_
bgi:_Navigation_Equals_m4214630671_AdjustorThunk
_hf:_ReadOnlyCollection_1_System_Collections_Generic_IListU3CTU3E_set_Item_m257196015_gshared
$bg:_FieldInfo_GetPseudoCustomAttributes_m2500972355
xxb:__ZN26EnlightenSystemInformation8TransferI14SafeBinaryReadEEvRT_
rve:_Array_InternalArray__get_Item_TisLink_t2723257478_m2281261655_gshared
Hwi:_AudioClipPlayable_INTERNAL_CALL_GetIsPlayingInternal_m4246314919
_Db:__ZN12MeshRendererD0Ev
U_d:_Hashtable__ctor_m2702360557
Gh:_utime
Byf:_PrimalityTest_Invoke_m4058801829
vn:FUNCTION_TABLE_viiiiif
WYf:_RemotingConfiguration_SetCustomErrorsMode_m1844153208
An:FUNCTION_TABLE_viiiiii
fge:_CultureInfo_GetFormat_m3560116485
NG:__ZN7mecanim9animation22DestroyAvatarWorkspaceEPNS0_15AvatarWorkspaceERNS_6memory9AllocatorE
Pmk:dynCall_viddi
e5i:_ScriptableObject_CreateInstance_m3271154163
P0i:_AnchorInfo_get_IsPosition_m3791659233
vme:_Array_InternalArray__IndexOf_TisResourceCacheItem_t333236149_m761772858_gshared
xuc:__ZNSt3__210__list_impIN10GUIManager12SortedScriptE11memory_poolIS2_EE5clearEv
Aub:__ZN14PlayableOutput17SetSourcePlayableEP8Playable
qZf:_TrackingServices__cctor_m3639412334
axc:__Z32GUIStyle_Set_Custom_PropRichTextP12Il2CppObjecth
fG:__ZN7mecanim9animation29MotionOutputGetDeltaTransformEPKNS0_12MotionOutputE
f6b:__Z13RegisterClassI16GraphicsSettingsEvv
hgj:_GameManager_Start_m2655388892
DGc:__ZN24b2ChainAndCapsuleContact8EvaluateEP10b2ManifoldRK11b2TransformS4_
HL:__ZN8Animator14OnAddComponentEPN5Unity9ComponentE
cBg:_Input_GetAxis_m2098048324
b3e:_List_1_CheckMatch_m1184924052_gshared
osc:__Z43Transform_CUSTOM_INTERNAL_get_localRotationP12Il2CppObjectP11Quaternionf
Upk:_glGetShaderInfoLog__wrapper
ii:_emscripten_glGetTexParameteriv
YAf:_RSAManaged_ImportParameters_m3060955884
lVi:_ChannelData_CopyFrom_m4049054607
l6b:__Z13RegisterClassI4MeshEvv
eub:__ZN8PlayableD0Ev
w$:__Z84Register_UnityEngine_Audio_AudioMixerPlayable_INTERNAL_CALL_SetAutoNormalizeInternalv
UR:__ZN12AudioManager8TransferI19StreamedBinaryWriteILb0EEEEvRT_
bIe:_WriteDelegate_Invoke_m2103848735
NWb:__ZN18StreamedBinaryReadILb1EE21TransferSTLStyleArrayI13dynamic_arrayI11ColorRGBA32Lj4EEEEvRT_17TransferMetaFlags
Gnj:_Locale_GetText_m512920887
DXb:__Z18Transfer_BlittableI18StreamedBinaryReadILb0EELb0E8Vector2fEvRK29SerializationCommandArgumentsR31RuntimeSerializationCommandInfo
EYf:_RemotingConfiguration_get_ProcessId_m3870172209
GMc:__ZN16CircleCollider2D10SmartResetEv
S4i:_SceneManager_LoadScene_m1386820036
bAe:_SortKey_ToString_m2406913228
hma:__ZN22LocalFileSystemHandler9MakeLocalER13FileEntryDatab
A7j:__ZN6il2cpp2vm8Profiler10AllocationEP12Il2CppObjectP11Il2CppClass
C3d:_Convert_ToDateTime_m1020507389
iWc:__ZNSt3__23mapIN20TextRenderingPrivate7FontRefENS1_6OSFontENS_4lessIS2_EENS_9allocatorINS_4pairIKS2_S3_EEEEEixERS8_
Uja:__Z13FormatOrderedPKcz
YFe:_Path_IsPathRooted_m1347207448
C_f:_ObjectManager_RegisterObjectInternal_m879109503
wge:_Array_get_swapper_TisVector4_t2243707581_m97441823_gshared
aFa:__ZNSt3__26__sortIRNS_4lessIiEEPiEEvT0_S5_T_
uTc:__ZN14SafeBinaryRead21TransferSTLStyleArrayI10vector_mapINSt3__24pairIttEEfN20TextRenderingPrivate8FontImpl14KerningCompareENS2_9allocatorINS3_IS4_fEEEEEEEvRT_17TransferMetaFlags
I6b:__Z13RegisterClassI15QualitySettingsEvv
h6j:__ZN6il2cpp2vm6String21InitializeEmptyStringEP11Il2CppClass
obb:__ZN25DeferredRenderLoopScratchD0Ev
kA:__ZN27AnimationLayerMixerPlayable14SetInputWeightEif
Vx:__ZN7mecanim9animation17EvaluateHumanPoseERKNS0_18ClipMuscleConstantERKNS0_15ClipMuscleInputEPKfRKNS0_12MotionOutputERNS_5human9HumanPoseE
VRc:__ZN14dense_hash_mapINSt3__24pairIPK10Collider2DS4_EE11Collision2DNS2_23ColliderPairHashFunctorENS0_8equal_toIS5_EE13stl_allocatorINS1_IKS5_S6_EEL18MemLabelIdentifier65ELi16EEE15set_deleted_keyERSB_
Qfd:__ZN21DownloadHandlerBufferD0Ev
K_b:__ZN15dense_hashtableINSt3__24pairIKiN4core17string_with_labelILi1EEEEEi18SInt32HashFunctionN14dense_hash_mapIiS5_S7_NS0_8equal_toIiEE13stl_allocatorIS6_L18MemLabelIdentifier1ELi16EEE9SelectKeyESA_SD_E9copy_fromERKSG_j
Gra:__ZN6Camera11ResetAspectEv
_og:_Type_get_IsGenericType_m3396841573
XPf:_X509BasicConstraintsExtension_get_HasPathLengthConstraint_m3788532759
ftb:__ZNK17InstancedPropInfo22FillInstancePropertiesER19ShaderPropertySheetjPK17BatchInstanceDatajRK15RenderNodeQueue
fta:__ZN22CreateGpuProgramOutputD2Ev
boh:__ZL58_AssemblyBuilder_t418776366_CustomAttributesCacheGeneratorP21CustomAttributesCache
JYj:__ZN6il2cpp6icalls8mscorlib6System2IO6MonoIO9SetLengthE12Il2CppIntPtrxPi
FZ:__ZN13ProduceHelperI13AudioListenerLb0EE7ProduceE18MemLabelIdentifier18ObjectCreationMode
FI:__ZN7mecanim9animation23BlendDirectDataConstant8TransferI14SafeBinaryReadEEvRT_
Nhd:__Z17GetWebErrorString8WebError
gxe:_DateTimeFormatInfo_GetInstance_m3133223810
Vxf:_ModulusRing_BarrettReduction_m2802101099
HYa:__ZN12HandlerChain4OpenER13FileEntryData14FilePermission16FileAutoBehavior
yOj:__ZN15dense_hashtableINSt3__24pairIK10KeyWrapperINS1_IPK10MethodInfoP11Il2CppClassEEEjEES9_17ReflectionMapHashIS8_EN14dense_hash_mapIS9_jSD_NS9_14EqualsComparerINS0_8equal_toIS8_EEEENS0_9allocatorISB_EEE9SelectKeyESI_SK_E6insertERKSB_
Gza:__ZN18AssetBundleManager55CollectPreloadObjectsFromAssetBundleLoadAssetOperationsER13dynamic_arrayIiLj4EE
ada:__ZN14FileCacherReadD2Ev
uEa:__ZN13RendererScene23UpdatePreviousFrameDataEii
vmd:_RSAPKCS1SignatureDeformatter_VerifySignature_m1825067195
gmc:__Z50Register_UnityEngine_CullingGroup_FinalizerFailurev
xQe:_KeyValuePair_2_ToString_m2613351884_gshared
oza:__ZN27UnloadUnusedAssetsOperationD0Ev
srb:__ZN6Camera15ThreadedCleanupEv
XUh:__ZL69ColorBlock_t2652774230_CustomAttributesCacheGenerator_m_DisabledColorP21CustomAttributesCache
dhi:_Scrollbar__ctor_m2244981801
FYj:__ZN6il2cpp6icalls8mscorlib6System2IO6MonoIO9GetLengthE12Il2CppIntPtrPi
_md:_SHA256Managed_HashCore_m4111458495
Xfe:_CultureInfo_get_CompareInfo_m3085280862
D$f:_ObjectManager_RecordDelayedFixup_m1895730844
WP:__ZN9AudioClip23VirtualRedirectTransferER18StreamedBinaryReadILb0EE
nEf:_ClientSessionInfo_CheckDisposed_m1394638186
F1f:_SByte_Parse_m2544167007
fsd:_Single_CompareTo_m2081476257
zof:_BigInteger__ctor_m2945783161
ZFf:_TlsClientHello_Update_m1723542631
hBe:_IndexOutOfRangeException__ctor_m3497760912
Fj:_glCopyTexSubImage2D
wYf:_RealProxy_InternalGetTransparentProxy_m3415358600
cla:__ZN18ScreenManagerWebGL13SetShowCursorEb
y7j:__ZN6il2cpp6icalls8mscorlib6System7Convert24InternalFromBase64StringEP12Il2CppStringb
bod:_SymmetricAlgorithm_CreateDecryptor_m4240570785
Smi:_Text_get_preferredWidth_m3352156860
d9c:__ZN2UI13CanvasManager14GetRenderOrderEPKNS_6CanvasE
VMb:__Z18Transfer_BlittableI14SafeBinaryReadLb0E5RectTIfEEvRK29SerializationCommandArgumentsR31RuntimeSerializationCommandInfo
cjf:_ReadOnlyCollection_1_System_Collections_Generic_IListU3CTU3E_RemoveAt_m878653284_gshared
mxe:_DateTimeFormatInfo_GetFormat_m3676195179
JNa:__ZN14GfxContextGLES14GetFramebufferEv
swa:__ZN6prcoreL21CreateRemapAnyBlitterE13TextureFormatS0_
Igc:__ZN17AnimationCurveTplIfE16StripInvalidKeysEv
sne:_Array_InternalArray__ICollection_Add_TisKeyValuePair_2_t3716250094_m2381539361_gshared
Kvf:_X509Extension_WriteLine_m2850991173
Y7c:__ZNK2UI6Canvas17GetSortingLayerIDEv
NOc:__ZN14Raycast2DQuery8RunQueryEb
zcc:__Z13RegisterClassI17GlobalGameManagerEvv
Udb:__ZN8Renderer24SetupNewRendererForSceneEv
Whe:_Array_InternalArray__ICollection_Remove_TisInt64_t909078037_m2653583130_gshared
rkg:_Thread_get_ExecutionContext_m922067206
QCc:__Z35Transfer_Blittable_FixedBufferFieldI8JSONReadtEvRK29SerializationCommandArgumentsR31RuntimeSerializationCommandInfo
Bdc:__ZN14PlayableOutput6HandleEv
Szb:__ZNK6Sprite22GetTypeVirtualInternalEv
un:FUNCTION_TABLE_iiiiiiiiiiiiii
JXg:__Z100RuntimeInvoker_Void_t1841601450_SByte_t454417549_SByte_t454417549_Int32_t2071877448_SByte_t454417549PFvvEPK10MethodInfoPvPS4_
FZc:_UNITY_tt_get_cmap_info
uhb:__ZN16ReflectionProbes8ScheduleEN18ReflectionProbeJob7JobTypeEP15ReflectionProbei
rcf:_Collection_1_IsFixedSize_m3675221982_gshared
hTe:_Enumerator_MoveNext_m3293920409_AdjustorThunk
yma:__Z18IsDirectoryCreatedRKN4core12basic_stringIcNS_20StringStorageDefaultIcEEEE
c7c:__ZN2UI13CanvasManagerD2Ev
URi:_Comparer_1__cctor_m3112251759_gshared
fPf:_X509KeyUsageExtension_ToString_m1992050580
PVc:_UNITY_FT_GlyphLoader_Done
a1i:_BalancingGroup__ctor_m2474435406
WUi:_ConstructionCall__ctor_m1143766850
BAg:_GUIStyleState_Init_m2434147050
VRi:_Comparer_1_System_Collections_IComparer_Compare_m3203078743_gshared
tPc:__ZN19OverlapPointQuery2D14InitializeAABBER6b2AABB
IHg:_PlayableHandle_IsValid_m1005197654_AdjustorThunk
t_c:_tt_cmap14_char_var_index
S$c:_psh_globals_new
RHe:_FileStream_Seek_m950719389
N3d:_Decimal_stripStyles_m294582157
rui:_AnimatorControllerPlayable_Play_m614561002
zHa:__ZN9GfxDevice20SetMaxBufferedFramesEi
CZe:_List_1_RemoveAll_m4125997475_gshared
wQg:__Z98RuntimeInvoker_Void_t1841601450_Int32_t2071877448_Int32_t2071877448_RuntimeObject_SByte_t454417549PFvvEPK10MethodInfoPvPS4_
uJc:__ZN10Collider2D19WakeAllBodyContactsEv
Rlk:dynCall_vdd
B8c:__ZN2UIL17UnloadAllCanvasesEv
Fkb:__Z23ConvertIntegerToTypePtrIsEbPvR14SafeBinaryRead
koh:__ZL54_MethodBase_t1935530873_CustomAttributesCacheGeneratorP21CustomAttributesCache
UHc:__ZN12b2MouseJoint11ShiftOriginERK6b2Vec2
bTg:__Z96RuntimeInvoker_Void_t1841601450_SByte_t454417549_RuntimeObject_SByte_t454417549_SByte_t454417549PFvvEPK10MethodInfoPvPS4_
wYd:_FixedSizeArrayListWrapper_Remove_m1359458911
Awa:__ZN6prcoreL29inner_stretch_rgb565_bilinearEPKNS_9InnerInfoE
w2i:_Uri__ctor_m3927533881
Qad:__Z33Canvas_Get_Custom_PropWorldCameraP12Il2CppObject
emi:_Text_get_mainTexture_m813502234
Bfk:__ZN6il2cpp8metadata19Il2CppSignatureHash4HashERKNS_5utils13dynamic_arrayIPK10Il2CppTypeLj4EEE
vab:__ZNK14RenderSettings19GetFlatAmbientColorEv
HCa:__ZN6prcoreL10inner_flipILj4EEEvPhS1_j
SGb:__ZN18StreamedBinaryReadILb0EE21TransferSTLStyleArrayI10vector_mapIPKN5Unity4TypeE7Hash128NSt3__24lessIS6_EENS8_9allocatorINS8_4pairIS6_S7_EEEEEEEvRT_17TransferMetaFlags
iC:__ZNK27StateMachineBehaviourPlayer15IsSenderEnabledEv
Bri:_AnimatorControllerPlayable_SetInteger_m881630854
Ngj:_MenuNavigation_HighScores_m2432008739
Q$h:_Enumerator_VerifyState_m2118679243_gshared
JLd:_InputField_get_shouldHideMobileInput_m3694613599
Osc:__Z40Register_UnityEngine_Transform_SetParentv
Vxi:_AudioConfigurationChangeHandler_Invoke_m635374412
nXg:__Z56RuntimeInvoker_TimeSpan_t3430258949_TimeSpan_t3430258949PFvvEPK10MethodInfoPvPS4_
LBb:__ZN14Texture2DArray17UploadToGfxDeviceEv
yif:_ReadOnlyCollection_1_System_Collections_Generic_IListU3CTU3E_Insert_m4216310986_gshared
Ief:_ReadOnlyCollection_1_System_Collections_Generic_IListU3CTU3E_set_Item_m1532495847_gshared
zT:__Z14FMODMemoryFreePvjPKc
kLd:_Image_AddQuad_m1600600902
j1c:_cf2_glyphpath_moveTo
HJc:__ZNK13BoxCollider2D22GetTypeVirtualInternalEv
F8d:_DateTimeOffset__ctor_m1796624924
ywg:_GUILayoutUtility_get_spaceStyle_m1918520192
yxd:_BaseRaycaster_OnDisable_m1716508791
Sy:__ZN7mecanim23TransformValueArrayLoopEiiiRKN4math4trsXES3_RNS_10ValueArrayEf
azf:_ASN1Convert_ToInt32_m2121135414
Tuc:__ZN5IMGUI14GUIWindowStateD2Ev
Dbk:_GC_is_heap_ptr
sWj:__GLOBAL__sub_I_Assembly_cpp
tF:__ZN7mecanim5human10RetargetToEPKNS0_5HumanEPKNS0_9HumanPoseES6_RKN4math4trsXEPS4_PNS_8skeleton13SkeletonPoseTIS8_EESF_
Ly:__ZN7mecanim9animation8SeekClipERKNS0_12StreamedClipERNS0_18StreamedClipMemoryEf
jm:_emscripten_glIsTexture
au:__ZN24CompressedAnimationCurveaSERKS_
cYd:_ArrayListWrapper_CopyTo_m793444109
Qk:_emscripten_glHint
x4c:_ft_var_readpackeddeltas
Y7d:_DateTime_AddMilliseconds_m1813199744_AdjustorThunk
nqc:__Z65PlayableOutputHandle_CUSTOM_INTERNAL_CALL_GetPlayableOutputTypeOfR15HPlayableOutput
vSf:_X509ChainStatus_t4278378721_marshal_pinvoke
OAf:_RSAManaged__ctor_m1680944437
mm:_SDL_UpperBlit
Fzg:_GUIStyle_op_Implicit_m781448948
bbb:__Z35GetTextureDecodeValuesWithIntensity16TextureUsageMode17TextureColorSpace10ColorSpacef
gVd:_Byte_GetHashCode_m2885528842_AdjustorThunk
OSj:__ZN15dense_hashtableINSt3__24pairIK10KeyWrapperINS1_IPK9EventInfoP11Il2CppClassEEEjEES9_17ReflectionMapHashIS8_EN14dense_hash_mapIS9_jSD_NS9_14EqualsComparerINS0_8equal_toIS8_EEEENS0_9allocatorISB_EEE9SelectKeyESI_SK_E15set_deleted_keyERKSB_
S6h:_Dictionary_2_OnDeserialization_m2092139626_gshared
PHc:__ZNK12b2MouseJoint10GetAnchorAEv
r1j:__ZNK6il2cpp2os6Socket12GetLastErrorEv
jKb:__ZN14SafeBinaryRead20OverrideRootTypeNameEPKc
eda:__ZN14FileCacherRead16UnlockCacheBlockEj
Ouf:_X509Certificate_GetUnsignedBigInteger_m3491353542
ITc:__ZNSt3__26vectorIN4core12basic_stringIcNS1_20StringStorageDefaultIcEEEE13stl_allocatorIS5_L18MemLabelIdentifier34ELi16EEE6assignINS_11__wrap_iterIPS5_EEEENS_9enable_ifIXaasr21__is_forward_iteratorIT_EE5valuesr16is_constructibleIS5_NS_15iterator_traitsISF_E9referenceEEE5valueEvE4typeESF_SF_
Nlk:dynCall_iifii
Xc:_emscripten_glUniform1f
r5b:__ZN13dynamic_arrayIS_I8Vector2fLj4EELj4EE18resize_initializedEjRKS1_12ResizePolicy
mJf:_SslStreamBase_get_MightNeedHandshake_m3432170694
oWc:__Z20ParseImageParametersR11UTF16StringRiRN20TextRenderingPrivate16TextFormatChangeE
ad:_emscripten_glUniform1i
bKb:__ZN13MonoBehaviour9CallAwakeEv
Oea:__Z33UnregisterDeviceEventCallbackImplPFv23UnityGfxDeviceEventTypeE
Fwg:__Z14bankers_roundff
Pti:_AnimatorControllerPlayable_CrossFade_m3391147919
k0b:__ZN9ShaderLab16SerializedTagMapaSERKS0_
h1:__ZN11UnityEngine15CloudWebService16SessionContainer20RestoreSessionHeaderERKN4core12basic_stringIcNS2_20StringStorageDefaultIcEEEES8_RNS0_13SessionHeaderE
t8d:_DateTime_ToString_m1117481977
B9f:_GenericTypeParameterBuilder_GetGenericArguments_m277381309
BG:__ZN11UnityEngine9Animation27CreateAvatarBindingConstantER9TransformPKN7mecanim9animation14AvatarConstantERNS3_6memory9AllocatorE
QIb:__ZN14SafeBinaryRead21TransferSTLStyleArrayINSt3__26vectorIN30RuntimeInitializeOnLoadManager9ClassInfoE13stl_allocatorIS4_L18MemLabelIdentifier12ELi16EEEEEEvRT_17TransferMetaFlags
Nsg:_UnitySerializationHolder_GetObjectData_m2280028722
nrg:_UInt64_System_IConvertible_ToDateTime_m2412118561
qjc:__ZN9BlobWriteC2ER13dynamic_arrayIhLj16EE24TransferInstructionFlags19BuildTargetPlatform
yCi:_Debug_DrawLine_m2961609580
vba:__ZN14MessageHandler3GetEv
Xxg:_GUISkin_set_verticalScrollbarThumb_m2647835739
lOa:__ZN10DynamicVBO9DrawChunkERK21DynamicVBOChunkHandle17ShaderChannelMaskS3_P17VertexDeclarationPKNS_10DrawParamsEi
nd:_emscripten_glAttachShader
phf:_ReadOnlyCollection_1__ctor_m1539890895_gshared
yHa:__ZN9GfxDevice13SetActiveTierE12GraphicsTier
TRe:_Enumerator_System_Collections_IEnumerator_get_Current_m3079057684_AdjustorThunk
AFb:__ZNSt3__26vectorIN4core12basic_stringIcNS1_20StringStorageDefaultIcEEEENS_9allocatorIS5_EEE6assignIPS5_EENS_9enable_ifIXaasr21__is_forward_iteratorIT_EE5valuesr16is_constructibleIS5_NS_15iterator_traitsISC_E9referenceEEE5valueEvE4typeESC_SC_
Erf:_KeyPairPersistence_get_UserPath_m3433052783
Pfh:__ZL58Decimal_t724701077_CustomAttributesCacheGenerator_MinusOneP21CustomAttributesCache
EMb:__Z18Transfer_BlittableI14SafeBinaryReadLb0E11QuaternionfEvRK29SerializationCommandArgumentsR31RuntimeSerializationCommandInfo
EJc:__ZN13BoxCollider2D16CheckConsistencyEv
dYb:__Z18Transfer_BlittableI18StreamedBinaryReadILb0EELb1E12PropertyNameEvRK29SerializationCommandArgumentsR31RuntimeSerializationCommandInfo
d6:_tlsf_walk_heap
muf:_PKCS12_Decode_m731190390
lMi:_InternalEnumerator_1_get_Current_m1550231132_gshared
_sg:_Version_CheckedSet_m76493673
qb:invoke_vif
rb:invoke_vid
Wjk:__ZNSt3__212basic_stringIcNS_11char_traitsIcEENS_9allocatorIcEEE6insertEjPKc
vsh:__ZL67UnverifiableCodeAttribute_t765455733_CustomAttributesCacheGeneratorP21CustomAttributesCache
sb:invoke_vii
Smb:__ZN12TLSAllocatorI14StackAllocatorE16ThreadInitializeEP13BaseAllocator
AXd:_ArrayList_Sort_m2778059513
bKd:_LayoutGroup_SetChildAlongAxis_m2732017156
X9c:__Z41CanvasRenderer_CUSTOM_DisableRectClippingP12Il2CppObject
Fzf:_MD2_Create_m539024737
LYg:__Z112RuntimeInvoker_Void_t1841601450_RuntimeObject_Int32_t2071877448_Int32_t2071877448_RuntimeObject_SByte_t454417549PFvvEPK10MethodInfoPvPS4_
uYa:__ZN25SingleBlockMemoryFileDataD0Ev
Qob:__ZNSt3__26vectorI14ConstantStringNS_9allocatorIS1_EEE6assignINS_11__wrap_iterIPS1_EEEENS_9enable_ifIXaasr21__is_forward_iteratorIT_EE5valuesr16is_constructibleIS1_NS_15iterator_traitsISA_E9referenceEEE5valueEvE4typeESA_SA_
c1:__ZN11UnityEngine15CloudWebService16SessionContainer21ConvertFromFolderTimeERKN4core12basic_stringIcNS2_20StringStorageDefaultIcEEEEPjPt
_Nb:__ZNSt3__26vectorI8GUIStyle13stl_allocatorIS1_L18MemLabelIdentifier1ELi16EEE7reserveEj
oWj:__ZN6il2cpp6icalls8mscorlib6System9Threading6Thread27GetSerializedCurrentCultureEP12Il2CppThread
Eme:_Array_InternalArray__IndexOf_TisUInt32_t2149682021_m3231515987_gshared
f8b:__Z31CalculateHierarchyTransformType23TransformAccessReadOnly
B6b:__Z13RegisterClassI11TimeManagerEvv
pT:__ZN4FMOD8ChannelI11setPositionEjj
URg:__Z136RuntimeInvoker_IntPtr_t_RuntimeObject_Int32_t2071877448_Int32_t2071877448_Int32_t2071877448_Int32_t2071877448_MonoIOErrorU26_t1029615899PFvvEPK10MethodInfoPvPS4_
DBi:_Component_SendMessage_m913946877
Via:__ZN17BaseObjectManager13StaticDestroyEPv
M6i:_TextGenerationSettings_CompareVector2_m592645251
g9d:_DBNull_System_IConvertible_ToChar_m3344298044
zvf:_X509Certificate_GetObjectData_m3888130484
kIb:__ZNSt3__26vectorIN15ResourceManager10DependencyE13stl_allocatorIS2_L18MemLabelIdentifier51ELi16EEEC2INS_11__wrap_iterIPS2_EEEET_SB_RKS5_PNS_9enable_ifIXaasr21__is_forward_iteratorISB_EE5valuesr16is_constructibleIS2_NS_15iterator_traitsISB_E9referenceEEE5valueEvE4typeE
yZi:_LinkStack_Push_m2660199875
jS:__ZN4FMOD6Reverb13setPropertiesEPK22FMOD_REVERB_PROPERTIES
A5a:__ZN9DepthPass13PrepareSubsetEjRK10RenderNodeifRK17ShaderReplaceData
hjg:_UTF32Encoding_GetPreamble_m767706727
uBg:_Input_get_compositionString_m636835668
Ecj:_X509CertificateCollection_Add_m4008705157
nfc:__Z35SetMeshComponentFromArrayFromScriptR4Mesh30InternalScriptingShaderChannel34InternalScriptingVertexChannelTypei17ScriptingArrayPtri
hhc:__Z18ExtractTagThrowingR11ICallString
z9e:_Collection_1_IsFixedSize_m1816795498_gshared
Gq:__ZN4core20StringStorageDefaultIcE6assignEPKcj
V0j:__ZN15dense_hashtableINSt3__24pairIK10KeyWrapperIP12Il2CppObjectEN6il2cpp2gc9CachedCCWEEES5_NS7_5utils11PointerHashIS3_EEN14dense_hash_mapIS5_S9_SD_NS5_14EqualsComparerINS0_8equal_toIS4_EEEENS0_9allocatorISA_EEE9SelectKeyESI_SK_E3endEv
TIb:__Z14resize_trimmedINSt3__26vectorIi13stl_allocatorIiL18MemLabelIdentifier12ELi16EEEEEvRT_j
IAd:_MouseButtonEventData_ReleasedThisFrame_m482758300
GTj:__ZN15dense_hashtableINSt3__24pairIK10KeyWrapperINS1_IP11Il2CppClassjEEES4_EES6_N6il2cpp8metadata14ArrayClassHashEN14dense_hash_mapIS6_S4_SB_NS6_14EqualsComparerINSA_17ArrayClassCompareEEENS0_9allocatorIS8_EEE9SelectKeyESF_SH_E9copy_fromERKSK_j
BYd:_ReadOnlyArrayListWrapper_set_Item_m2199017141
ifb:__ZN6Camera6SetFarEf
zcj:_DeriveBytes_DeriveIV_m3343375195
jXc:_UNITY_FT_Init_Class_ft_bitmap_glyph_class
Ild:_RNGCryptoServiceProvider_GetBytes_m167497991
ixa:__ZN6prcoreL12RemapGenericI17TexFormatABGR888817TexFormatARGB8888EEvPKNS_9InnerInfoE
npb:__ZN11GameManager17MainThreadCleanupEv
Cbd:__Z50Register_UnityEngine_UISystemProfilerApi_EndSamplev
B7f:_TypeBuilder_get_Assembly_m492491492
k3c:_UNITY_tt_slot_init
B$a:__ZZ23InitPlayerLoopCallbacksvEN41PostLateUpdateUpdateResolutionRegistrator7ForwardEv
Gjd:_HMACSHA512__cctor_m1167457383
uZb:__Z25scripting_array_class_get17ScriptingClassPtrj
bBc:__ZL22Transfer_ManagedObjectI9JSONWriteLb1EEvRK29SerializationCommandArgumentsR31RuntimeSerializationCommandInfo
EP:__ZNK10SampleClip22GetTypeVirtualInternalEv
VIa:__ZN9GfxDevice20DestroyRenderSurfaceER12ObjectHandleI17RenderSurface_TagP17RenderSurfaceBaseE
Kja:__ZN18SpriteAtlasManagerC2Ev
K8b:__ZL24PrepareSpriteRenderNodesILb1EEvR35RenderNodeQueuePrepareThreadContext
jWa:__ZN9GfxDevice22UpdateComputeResourcesEjPK9TextureIDPK16TextureDimensionPKijPKjjPK15ComputeBufferIDS7_PK20ComputeBufferCounterjSC_S2_S5_S9_SF_
hcc:__ZN12_GLOBAL__N_15qAsinEff
Wte:_Dictionary_2_Do_ICollectionCopyTo_TisKeyValuePair_2_t3749587448_m2536766696_gshared
Tmb:__ZN12TLSAllocatorI14StackAllocatorE13ThreadCleanupEv
R$g:__Z154RuntimeInvoker_RaycastHit2D_t4063908774_Vector2_t2243707579_Vector2_t2243707579_Single_t2076509932_Int32_t2071877448_Single_t2076509932_Single_t2076509932PFvvEPK10MethodInfoPvPS4_
Gle:_Array_IndexOf_TisRuntimeObject_m1815604637_gshared
h7j:__ZThn4_N6il2cpp2vm13ComObjectBase16MarshalInterfaceEP13Il2CppIStreamRK10Il2CppGuidPvjS7_j
yCb:__ZN4Mesh27SwizzleVertexColorsIfNeededEb
znb:__Z27FindActiveTransformWithPathPKc
Hzi:_CanvasGroup_get_alpha_m1304564441
Xvi:_AsyncOperation_Finalize_m67522446
Tvf:_SecurityParser_OnEndElement_m2909940377
w7a:__ZNK6Camera7GetNearEv
$Qa:__ZN7ApiGLES11UnmapBufferEjN2gl12BufferTargetE
s7j:__ZN6il2cpp5utilsL24Utf32CharToSurrogatePairEjRA2_Ds
nwb:__Z25GetNextAllowedTextureSizeib13TextureFormat
ema:__ZN20LocalFileSystemWebGL4CopyER13FileEntryDataS1_
v_e:_List_1_CheckIndex_m4231572822_gshared
D3:__ZN19CloudServiceHandler6RetainEv
wqd:_StrongName_Equals_m67226644
Gqb:__ZN12BaseRenderer20FlattenToRenderQueueER15RenderNodeQueueRK20DeprecatedSourceData
CLe:_UnmanagedMemoryStream_get_Length_m587008850
Pza:__Z34scripting_liveness_calculation_endPv
T4j:__ZN6il2cpp2os6ThreadC2Ev
lrd:_SecurityFrame_InitFromRuntimeFrame_m45195821
jRf:_X509Chain_IsSignedWith_m292245392
gy:__ZN21AnimationClipPlayable22ProcessAnimationNoClipEPK35AnimationPlayableEvaluationConstantPK32AnimationPlayableEvaluationInputP33AnimationPlayableEvaluationOutput
Rhe:_Array_InternalArray__ICollection_Remove_TisDateTime_t693205669_m1275668216_gshared
thf:_ReadOnlyCollection_1_System_Collections_Generic_ICollectionU3CTU3E_Remove_m3751131234_gshared
yCc:__Z18Transfer_BlittableI8JSONReadLb0E8Vector3fEvRK29SerializationCommandArgumentsR31RuntimeSerializationCommandInfo
Et:__ZN13AnimationClip12Vector3Curve8TransferI14SafeBinaryReadEEvRT_
pVi:_ChannelServices__cctor_m3534779830
hVj:__ZN6il2cpp2vm6Thread6DetachEP12Il2CppThread
a$c:_Render_Single_Pass
F4d:_Convert_ToInt16_m416789348
$vd:_EncoderExceptionFallback_Equals_m762170768
Mpj:_EqualityComparer_1__cctor_m2666196678_gshared
G0h:_Enumerator_get_CurrentValue_m3147984131_AdjustorThunk
ivg:_GUIStyle_Init_m3872198731
HG:__ZN7mecanim8skeleton30SkeletonBuildReverseIndexArrayEPiPKiPKNS0_8SkeletonES6_
Rtc:__Z19GetGUIBlendMaterialv
Z1g:__Z69RuntimeInvoker_Boolean_t3825574718_TextGenerationSettings_t2543476768PFvvEPK10MethodInfoPvPS4_
n3j:__ZN6il2cpp2os10ThreadImpl5SleepEjb
ecf:_Collection_1_InsertItem_m1073626529_gshared
CH:__ZN18AnimatorController23VirtualRedirectTransferER24GenerateTypeTreeTransfer
bLf:_ListDictionary_FindEntry_m432748847
Drk:_glBindSampler__wrapper
qkj:_UnityAction_1_Invoke_m3523417209_gshared
Tf:_emscripten_set_mouseup_callback
P5i:_SpaceAttribute__ctor_m1444406696
nla:__ZNK18ScreenManagerWebGL8GetWidthEv
cmk:dynCall_iiifii
KJd:_GridLayoutGroup_set_startAxis_m1635162426
BP:__ZN10SampleClipD2Ev
XXi:_SynchronizationAttribute_EnterContext_m2984912761
hge:_CultureInfo_construct_internal_locale_from_name_m971766383
hoe:_Array_InternalArray__ICollection_Add_TisUIVertex_t1204258818_m3869382594_gshared
n3:__ZN11UnityEngine15CloudWebService20WebRequestRestClientC2Ev
G2c:_cff_cmap_unicode_init
Ade:_Enum_ToObject_m2460371738
wpf:_PrimalityTests_Test_m1088386156
Qvc:__Z36Event_CUSTOM_Internal_SetNativeEvent13Il2Cpp_IntPtr
xik:_readlink
qQj:__ZN15dense_hashtableINSt3__24pairIK10KeyWrapperINS1_IPK9EventInfoP11Il2CppClassEEEjEES9_17ReflectionMapHashIS8_EN14dense_hash_mapIS9_jSD_NS9_14EqualsComparerINS0_8equal_toIS8_EEEENS0_9allocatorISB_EEE9SelectKeyESI_SK_E12resize_deltaEjj
use:_Array_Resize_TisVector3_t2243707580_m893658391_gshared
CIi:_InternalEnumerator_1_System_Collections_IEnumerator_get_Current_m4259662004_AdjustorThunk
Yve:_Array_InternalArray__get_Item_TisKeyframe_t1449471340_m1003508933_gshared
odk:__ZN6il2cpp8metadata14Il2CppTypeHash4HashEPK10Il2CppType
lVg:__Z50RuntimeInvoker_Double_t4078015681_Int64_t909078037PFvvEPK10MethodInfoPvPS4_
guf:_StrongName_get_PublicKeyToken_m1968460885
qFb:__ZNK6Sprite9GetBoundsE8Vector2fbb
q1a:__ZNK19RenderEventsContext21CleanupCommandBuffersEv
vI:__ZN7mecanim12statemachine13StateConstant8TransferI14SafeBinaryReadEEvRT_
gMa:__ZN11ContextGLES6CreateEi
gFe:_BinaryReader_Dispose_m4249456877
K3d:_Double_ToString_m1085043609
VYb:__Z19TransferField_ArrayI18StreamedBinaryReadILb0EE27Converter_SimpleNativeClassI17AnimationCurveTplIfEEEvRK23StaticTransferFieldInfoR31RuntimeSerializationCommandInfoRT0_
hCf:_CipherSuite_createEncryptionCipher_m1926075645
Emb:__ZN14StackAllocator16FrameMaintenanceEb
dJd:_Graphic_Raycast_m3582517890
fpb:__Z18ReadStringFromFilePN4core17string_with_labelILi1EEERKNS_12basic_stringIcNS_20StringStorageDefaultIcEEEE
S7:__ZNK10GameObject20QueryComponentByTypeEPKN5Unity4TypeE
YSe:_Enumerator_MoveNext_m1367380970_AdjustorThunk
Rag:_OpCode_GetHashCode_m2974727122
D0d:_Enumerator_Reset_m466659019
iCf:_CipherSuite_createDecryptionCipher_m1118350455
D_i:_PatternCompiler_EmitReference_m1381860071
GO:__Z78AnimatorControllerPlayable_CUSTOM_INTERNAL_CALL_IsParameterControlledByCurveIDR9HPlayablei
qce:_Double_System_IConvertible_ToInt16_m4200640326
_$g:__Z84RuntimeInvoker_RuntimeObject_RayU26_t3651946800_Single_t2076509932_Int32_t2071877448PFvvEPK10MethodInfoPvPS4_
CDa:__ZN11TextureData5ResetEv
vnc:__Z53Register_UnityEngine_GameObject_get_activeInHierarchyv
o9:__ZL30InitializeCoreScriptingClassesv
pcf:_Collection_1_CheckWritable_m3938993573_gshared
Og:_glBlitFramebuffer
Epf:_BigInteger_GeneratePseudoPrime_m2606361440
xPb:__Z35Transfer_Blittable_SingleValueFieldI14SafeBinaryReadhEvRT_R17GeneralMonoObjectRK23StaticTransferFieldInfo
ofd:__ZN22BaseUnityConnectClientC2ERN11UnityEngine7Connect20BasePersistentValuesE
SWf:_RemotingServices_GetRealProxy_m620317996
Q5a:__ZN13dynamic_arrayI11CulledLightLj4EE6insertEPS0_PKS0_S4_
$ub:__ZNK12CubemapArray22GetTypeVirtualInternalEv
xij:_Predicate_1_Invoke_m2060780095_gshared
DFj:__ZN6il2cpp2vm13MetadataCache23GetInterfaceOffsetIndexEi
Vn:FUNCTION_TABLE_vif
Wn:FUNCTION_TABLE_vid
Xn:FUNCTION_TABLE_vii
bAa:__Z40scripting_liveness_calculation_from_root18ScriptingObjectPtrPv
lsa:__ZN7Texture23VirtualRedirectTransferER24GenerateTypeTreeTransfer
UUc:_UNITY_FT_Set_Transform
pFi:_ArrayReadOnlyList_1_Contains_m1266627404_gshared
jYg:__Z101RuntimeInvoker_OpFlags_t378191910_SByte_t454417549_SByte_t454417549_SByte_t454417549_SByte_t454417549PFvvEPK10MethodInfoPvPS4_
irk:_glDeleteFramebuffers__wrapper
CKd:_Image_get_overrideSprite_m706080347
Ixf:_BigInteger_ModInverse_m1881894572
LIj:__ZN6il2cpp2vm7Runtime17GetDelegateInvokeEP11Il2CppClass
rXe:_List_1_AddEnumerable_m3541747636_gshared
z5b:__Z22GenerateBoxTilingShapeP22GenerateTilingAreaInfo
zxb:__ZN28EnlightenRendererInformation8TransferI14SafeBinaryReadEEvRT_
AXg:__Z88RuntimeInvoker_RuntimeObject_RuntimeObject_Int32_t2071877448_RuntimeObject_RuntimeObjectPFvvEPK10MethodInfoPvPS4_
pnh:__ZL69DefaultDependencyAttribute_t3858269114_CustomAttributesCacheGeneratorP21CustomAttributesCache
Dt:__Z14resize_trimmedINSt3__26vectorIN13AnimationClip12Vector3CurveE13stl_allocatorIS3_L18MemLabelIdentifier25ELi16EEEEEvRT_j
aXa:__ZNK15Lz4Decompressor16DecompressMemoryEPKvPjPvS2_
nid:__Z67Register_UnityEngine_Networking_UnityWebRequest_get_downloadHandlerv
qJg:_Ray_ToString_m2019179238
EQc:__ZN11Rigidbody2D8TransferI24GenerateTypeTreeTransferEEvRT_
i3i:_Uri_GetOpaqueWiseSchemeDelimiter_m3686606461
H9d:_Decimal_System_IConvertible_ToType_m3828527724_AdjustorThunk
JYc:_UNITY_tt_face_load_os2
xzf:_HMAC_get_Key_m2528863640
bdf:_Collection_1_IsSynchronized_m1366278230_gshared
vN:__Z90Register_UnityEngine_Animations_AnimationOffsetPlayable_INTERNAL_CALL_CreateHandleInternalv
_Ob:__Z29Transfer_Blittable_ArrayFieldI14SafeBinaryRead8Vector4fEvRT_R9ArrayInfoRK23StaticTransferFieldInfo
kge:_Array_get_swapper_TisInt32_t2071877448_m2837069166_gshared
uOj:__ZN6il2cpp2gc19AppendOnlyGCHashMapINSt3__24pairIPK10MethodInfoP11Il2CppClassEEP22Il2CppReflectionMethod17ReflectionMapHashIS9_ENS2_8equal_toIS9_EEE3AddERKS9_SB_
MKg:_RectTransform_INTERNAL_get_rect_m1177342209
aAd:_PointerEventData_IsScrolling_m1971908975
s$a:__ZZ23InitPlayerLoopCallbacksvEN51PostLateUpdateUpdateCustomRenderTexturesRegistrator7ForwardEv
T9d:_Decimal_System_IConvertible_ToInt16_m3159038792
Ey:__ZN7mecanim9animation12EvaluateClipEPKNS0_4ClipEPKNS0_9ClipInputEPNS0_10ClipMemoryEPNS0_10ClipOutputE
deg:_MonoMethodInfo_GetReturnType_m2864247130
Jbb:__ZN13RenderManager29SetCurrentCameraAndStackStateEP6CameraP25CameraStackRenderingState
VUj:__ZN15dense_hashtableINSt3__24pairIK10KeyWrapperINS1_IP11Il2CppClassjEEES4_EES6_N6il2cpp8metadata14ArrayClassHashEN14dense_hash_mapIS6_S4_SB_NS6_14EqualsComparerINSA_17ArrayClassCompareEEENS0_9allocatorIS8_EEE9SelectKeyESF_SH_E12resize_deltaEjj
Zh:_JS_WebRequest_Release
tGe:_DirectoryNotFoundException__ctor_m2242202556
C1:__ZN11UnityEngine15CloudWebService14DataErrorEventD0Ev
Mud:_String_CreateString_m2448464375
QSf:_X509SubjectKeyIdentifierExtension__ctor_m2959112706
H0h:_Enumerator_Reset_m1147555085_AdjustorThunk
js:__ZN14SafeBinaryRead21TransferSTLStyleArrayINSt3__26vectorIN13AnimationClip12Vector3CurveE13stl_allocatorIS4_L18MemLabelIdentifier25ELi16EEEEEEvRT_17TransferMetaFlags
i9i:_Vector3_get_zero_m1527993324
fij:_Tile__ctor_m850840179
A0a:__ZN19ShaderPropertySheet16SetArrayPropertyEN9ShaderLab16FastPropertyNameENS_12PropertyTypeEPKvj
Ydg:_MonoGenericCMethod_get_ReflectedType_m2689239043
vzf:_CryptoConvert_ToHex_m3804747475
cdf:_Collection_1_IsFixedSize_m499196375_gshared
UEd:_ColorTween_set_startColor_m3546206870_AdjustorThunk
T6c:__ZN2UI11CanvasGroup23VirtualRedirectTransferER19StreamedBinaryWriteILb0EE
pLi:_InternalEnumerator_1_get_Current_m4083613828_gshared
$uc:__ZN8GUIState8EndOnGUIEv
Rig:_UnicodeEncoding_GetString_m542738941
uYj:__ZN6il2cpp6icalls8mscorlib6System2IO6MonoIO16get_ConsoleErrorEv
r3c:_UNITY_TT_Get_VMetrics
UFe:_Path_InsecureGetFullPath_m2635272425
D7d:_DateTime_System_IConvertible_ToUInt32_m1363211018
B0f:_RuntimeMethodHandle__ctor_m1162528746
Pih:__ZL65DebuggerHiddenAttribute_t638884887_CustomAttributesCacheGeneratorP21CustomAttributesCache
lje:_SetPropertyUtility_SetStruct_TisSingle_t2076509932_m3849235084_gshared
HOa:__ZN7Texture21GetMasterTextureLimitEv
mgb:__Z12CanAddScriptR10GameObject17ScriptingClassPtrPS1_S2_
pTj:__ZN6il2cpp2vm10Reflection12HasAttributeEP12Il2CppObjectP11Il2CppClass
KEc:__ZN8JSONRead21TransferSTLStyleArrayI13dynamic_arrayI4AABBLj4EEEEvRT_18MemLabelIdentifier17TransferMetaFlags
$7:__ZN9ShaderLabL25StaticInitializeShaderLabEPv
U:Math_max
xJj:_il2cpp_class_get_methods
XFe:_Path_CanonicalizePath_m383914732
O$h:_Enumerator_System_Collections_IEnumerator_get_Current_m1631145297_gshared
FXd:_ArrayList_Synchronized_m2395071980
Z4j:__ZN6il2cpp2os6Thread16GetCurrentThreadEv
Ccc:__ZN10GameObject13ComponentPair15SetComponentPtrEPN5Unity9ComponentE
wLe:_UnexceptionalStreamWriter_Write_m3206913035
m6b:__Z13RegisterClassI10MeshFilterEvv
mM:__ZNK26AnimatorControllerPlayable24GetAnimatorClipInfoCountEib
lqb:__ZN10TagManager8TransferI19StreamedBinaryWriteILb0EEEEvRT_
JLb:__ZN11PreloadData23VirtualRedirectTransferER18StreamedBinaryReadILb0EE
Ksi:_AnimatorControllerPlayable_GetAnimatorTransitionInfo_m2080024628_AdjustorThunk
T2f:_DESTransform_ProcessBlock_m2826669227
OBe:_Int16_CompareTo_m3493496879
Xbj:_GeneralNames_get_IPAddresses_m1712556836
lui:_AnimatorControllerPlayable_Play_m3296663958_AdjustorThunk
Qzb:__ZN6Sprite17MainThreadCleanupEv
FU:__ZN10AudioMixer14UpdateMuteSoloEv
ZWj:__ZN6il2cpp2vm9Exception27RaiseNullReferenceExceptionEv
Efi:_MaskableGraphic_UnityEngine_UI_IClippable_get_gameObject_m954171032
Zsa:__ZN9ShaderLab10SubProgram7CompileEv
wGa:__ZNSt3__218__insertion_sort_3IRNS_4lessIN22BuiltinResourceManager8ResourceEEEPS3_EEvT0_S7_T_
UIe:_MonoIOStat_t1621921065_marshal_pinvoke
A_a:__ZN10MemoryFileC2E18MemLabelIdentifierP14MemoryFileData14FilePermission
_Xf:_TrackingServices_NotifyUnmarshaledObject_m1794048369
Byj:__ZN6il2cpp2vm5Class20FromGenericParameterEPK22Il2CppGenericParameter
a4:__ZN19CloudServiceHandler11FlushEventsEv
via:__ZN15GlobalCallbacksC2Ev
Uqe:_Array_InternalArray__set_Item_TisLabelFixup_t4090909514_m565370771_gshared
RMc:__ZN7b2World10CreateBodyEPK9b2BodyDef
iP:__Z82Register_UnityEngine_Animations_AnimatorControllerPlayable_INTERNAL_CALL_SetBoolIDv
sWc:_UNITY_FT_New_Memory_Face
aO:__Z81AnimatorControllerPlayable_CUSTOM_INTERNAL_CALL_GetAnimatorTransitionInfoInternalR9HPlayablei
lUc:__ZN20TextRenderingPrivate21TextMeshGeneratorImpl5FlushEv
WGa:__ZN26VertexDeclarationCacheGLES24DestroyVertexDeclarationEP17VertexDeclaration
oqd:__Z15CastclassSealedP12Il2CppObjectP11Il2CppClass
nCg:_Material_HasProperty_m3175512802
Heb:__ZN16ReflectionProbes40UpdateRealtimeReflectionProbesTimeslicedEv
HIb:__ZNK30RuntimeInitializeOnLoadManager22GetTypeVirtualInternalEv
jDj:__ZN15dense_hashtableINSt3__24pairIK10KeyWrapperIN6il2cpp5utils13dynamic_arrayIPK10Il2CppTypeLj4EEEEPFvvEEESA_NS3_8metadata19Il2CppSignatureHashEN14dense_hash_mapISA_SD_SG_NSA_14EqualsComparerINSF_22Il2CppSignatureCompareEEENS0_9allocatorISE_EEE9SelectKeyESK_SM_E12resize_deltaEjj
gac:__ZN16ReflectionProbes15InitializeClassEv
Eck:__ZN6il2cpp5utils5MatchENSt3__212basic_stringIcNS1_11char_traitsIcEENS1_9allocatorIcEEEEjRKS7_j
QWc:_UNITY_FT_Destroy_Class_psnames_module_class
f_i:_MRUList_Evict_m2430323183
Xhf:_ReadOnlyCollection_1_System_Collections_Generic_ICollectionU3CTU3E_Remove_m1060547576_gshared
N3g:__Z68RuntimeInvoker_Boolean_t3825574718_Rect_t3681755626_SByte_t454417549PFvvEPK10MethodInfoPvPS4_
Bve:_Array_InternalArray__get_Item_TisRuntimeObject_m371871810_gshared
RD:__ZN8Animator13BatchedFKPassERK13dynamic_arrayIP14PlayableOutputLj4EE
qHf:_RecordProtocol_ProcessChangeCipherSpec_m3233959862
iBi:_Component_GetComponent_m4225719715
bqc:__Z75Register_UnityEngine_Playables_PlayableHandle_INTERNAL_CALL_SetTimeInternalv
qte:_Array_Sort_TisVector4_t2243707581_m474199742_gshared
EXe:_List_1_CheckIndex_m2247532995_gshared
eLe:_TextWriter_Write_m576684782
vaj:_Vector3_Max_m2105825185
Uj:_glIsVertexArray
kJb:__ZNSt3__26vectorIN4core12basic_stringIcNS1_20StringStorageDefaultIcEEEE13stl_allocatorIS5_L18MemLabelIdentifier12ELi16EEEC2INS_11__wrap_iterIPS5_EEEET_SE_RKS8_PNS_9enable_ifIXaasr21__is_forward_iteratorISE_EE5valuesr16is_constructibleIS5_NS_15iterator_traitsISE_E9referenceEEE5valueEvE4typeE
JXa:__ZN25SingleBlockMemoryFileDataC2E18MemLabelIdentifierPvjb
fa:invoke_fff
wmi:_Text_get_fontSize_m3105730761
mok:b14
HGf:_TlsServerHello_Update_m1740270635
c6c:__ZN2UI6Canvas17MainThreadCleanupEv
Swa:__ZN6prcoreL12RemapGenericI17TexFormatARGB155517TexFormatRGBA8888EEvPKNS_9InnerInfoE
cji:_ScrollRect_Rebuild_m3423824761
g1e:_List_1_Find_m3862454845_gshared
WZi:_MatchCollection_get_Item_m2609281578
AUa:__ZN7ApiGLES13CreateProgramEv
esb:__ZN11HaloManager7AddHaloEv
Ljg:_UTF8Encoding__ctor_m100325490
TOa:__ZN4crnd12crn_unpackerD2Ev
$li:_StencilMaterial_ClearAll_m1372779118
ek:_emscripten_glTexImage2D
sWf:_ObjRefSurrogate_SetObjectData_m1873902916
c3c:_tt_driver_class_pic_init
e9:__ZN18ScriptingArguments9AddStringEPKc
Hak:_setup_header
Rkk:runPostSets
NCa:__ZL23stbir__resize_arbitraryPvPKviiiS_iiiffffPfiij14stbir_datatype12stbir_filterS4_10stbir_edgeS5_16stbir_colorspace
_Ye:_List_1_System_Collections_IList_Insert_m848656350_gshared
JRb:__Z18Transfer_BlittableI24GenerateTypeTreeTransferLb1E8Vector4fEvRK29SerializationCommandArgumentsR31RuntimeSerializationCommandInfo
mCe:_Int16_ToString_m3971652088_AdjustorThunk
pk:_pthread_detach
iGj:__ZN6il2cpp2vm19SocketPollingThread7RunLoopEv
GVf:_MethodDictionary_AllocInternalProperties_m3261295876
cdc:__ZN15DirectorManager20ScheduleGraphDestroyERK14HPlayableGraph
IFa:__ZNSt3__213__stable_sortIRN10vector_mapI17ScriptingClassPtrPKN5Unity4TypeENS_4lessIS2_EENS_9allocatorINS_4pairIS2_S6_EEEEE13value_compareENS_11__wrap_iterIPSB_EEEEvT0_SJ_T_NS_15iterator_traitsISJ_E15difference_typeEPNSM_10value_typeEi
Y0b:__ZN9ShaderLab25SerializedTextureProperty8TransferI24GenerateTypeTreeTransferEEvRT_
awj:_Comparison_1_Invoke_m2645957248_gshared
Ovk:_emscripten_glIsShader__wrapper
hRj:__ZN6il2cpp2gc19AppendOnlyGCHashMapINSt3__24pairIPK14Il2CppAssemblyP11Il2CppClassEEP24Il2CppReflectionAssembly17ReflectionMapHashIS9_ENS2_8equal_toIS9_EEEC2Ev
Xwc:__Z32GUIStyle_Get_Custom_PropFontSizeP12Il2CppObject
I$f:_DelegatePInvokeWrapper_CallbackHandler_t362827733
oDc:__Z18Transfer_BlittableI8JSONReadLb1EyEvRK29SerializationCommandArgumentsR31RuntimeSerializationCommandInfo
Mk:_emscripten_glMatrixMode
yw:__ZN8Animator23VirtualRedirectTransferER18StreamedBinaryReadILb0EE
hHe:_NotSupportedException__ctor_m836173213
cWf:_MethodReturnDictionary__ctor_m756139344
Y0:__ZN11UnityEngine15CloudWebService14DataDispatcher16PrepareDataBlockERNS0_16SessionContainerE
RUa:__ZN18GfxFramebufferGLES5ClearE13GfxClearFlagsRK10ColorRGBAffib
Z6g:__Z70RuntimeInvoker_Void_t1841601450_Playable_t1896841784_Int32_t2071877448PFvvEPK10MethodInfoPvPS4_
EVg:__Z52RuntimeInvoker_Single_t2076509932_Double_t4078015681PFvvEPK10MethodInfoPvPS4_
iYb:__ZL26Transfer_SimpleNativeClassI18StreamedBinaryReadILb0EE10RectOffsetLb0EEvRK29SerializationCommandArgumentsR31RuntimeSerializationCommandInfo
NWc:_UNITY_ft_destroy_default_module_classes
Qtf:_SymmetricTransform_FinalDecrypt_m3674669784
FVe:_List_1_CheckMatch_m1772343151_gshared
j5a:__ZL12DepthPassJobPN21GfxDeviceAsyncCommand10ArgScratchEPKNS_3ArgE
z$b:__ZNSt3__26vectorIN9ShaderLab20SerializedSubProgram16TextureParameterENS_9allocatorIS3_EEE6assignINS_11__wrap_iterIPS3_EEEENS_9enable_ifIXaasr21__is_forward_iteratorIT_EE5valuesr16is_constructibleIS3_NS_15iterator_traitsISC_E9referenceEEE5valueEvE4typeESC_SC_
GEe:_IntPtr_Equals_m1214967011_AdjustorThunk
_$e:_List_1_Add_m3591975577_gshared
T9c:__Z55Register_UnityEngine_CanvasGroup_get_ignoreParentGroupsv
O6b:__Z13RegisterClassI19LowerResBlitTextureEvv
Qm:FUNCTION_TABLE_iiiiiiiiiiii
Irb:__ZN16GraphicsSettingsD0Ev
idb:__ZN15LODGroupManager21CalculateLODDataArrayERK13LODParametersPK6Cameraf
n:cttz_i8
X0c:_UNITY_FT_GlyphLoader_Add
Pye:_DateTimeFormatInfo_get_FullDateTimePattern_m2607507656
fHf:_HttpsClientStream_RaiseServerCertificateValidation_m3356770426
ube:_DelegateSerializationHolder__ctor_m3915060553
nJb:__ZN15SerializeTraitsINSt3__26vectorIN30RuntimeInitializeOnLoadManager9ClassInfoE13stl_allocatorIS3_L18MemLabelIdentifier12ELi16EEEEE8TransferI24GenerateTypeTreeTransferEEvRS7_RT_
Kte:_Array_swap_TisUIVertex_t1204258818_TisUIVertex_t1204258818_m1163375424_gshared
Il:_emscripten_glViewport
n5b:__Z21GenerateTilingAreaJobP22GenerateTilingAreaInfoj
W6j:__ZN6il2cpp6icalls8mscorlib6System15MonoCustomAttrs17IsDefinedInternalEP12Il2CppObjectP20Il2CppReflectionType
iCb:__ZN4Mesh21UnswizzleVertexColorsEb
w8d:_DateTime_ToString_m2276663647_AdjustorThunk
$2c:_cff_parse_font_bbox
dw:__GLOBAL__sub_I_runtime_animation2_lump_cpp
bHb:__ZN14PlayerSettings23VirtualRedirectTransferER18StreamedBinaryReadILb0EE
Lfk:__ZN6il2cpp2os5Event5ResetEv
Qef:_ReadOnlyCollection_1_System_Collections_IList_Insert_m1130110335_gshared
loj:_AesManaged__ctor_m2322442838
R$j:__ZN6il2cpp8metadata15GenericMetadata17InflateParametersEPK13ParameterInfohPK20Il2CppGenericContextb
RDe:_Int64_System_IConvertible_ToUInt32_m850395426_AdjustorThunk
p8f:_TypeBuilder_GetMethodsByName_m229541072
Jxi:_PCMReaderCallback_Invoke_m3610389815
Djd:_HMACSHA512__ctor_m2390736870
BC:__ZNK17AnimationPlayable27GetNextCompatibleDescendantEi
l8f:_TypeBuilder_GetInterfaces_m1818658502
Gna:__Z25SetNeedToPerformRenderingb
reg:_MonoMethod_GetPseudoCustomAttributes_m466965107
S8a:__ZNSt3__227__insertion_sort_incompleteIR23CompareReflectionProbesP31RuntimeReflectionProbeBlendInfoEEbT0_S5_T_
y5a:__ZN14qsort_internal30FindAndMovePivotToLastPositionIP15RODataDepthPassi17ROSorterDepthPassEEvT_S4_T0_T1_
xgd:__ZN20UnityWebRequestProtoI19TransportJavaScript16AtomicRefCounter14RedirectHelper14ResponseHelper15DownloadHandler13UploadHandler12HeaderHelper14AsyncOperationE35Task_FinalizeAfterDHCompleteContentEPv
v1h:_Enumerator_System_Collections_IDictionaryEnumerator_get_Value_m3005608231_gshared
Vei:_MaskUtilities_NotifyStencilStateChanged_m1527407683
yRg:__Z94RuntimeInvoker_Void_t1841601450_RuntimeObject_Int32_t2071877448_RuntimeObject_SByte_t454417549PFvvEPK10MethodInfoPvPS4_
udb:__ZN12CullingGroup10SendEventsEPK17CullingGroupEventj
erf:_DSAManaged_GenerateKeyPair_m2711647034
djb:__ZN13sorted_vectorINSt3__24pairIN4core12basic_stringIcNS2_20StringStorageDefaultIcEEEES6_EEN10vector_mapIS6_S6_27compare_tstring_insensitiveIS6_E13stl_allocatorIS7_L18MemLabelIdentifier37ELi16EEE13value_compareESD_E9erase_oneIS6_EEjRKT_
qyb:__ZThn32_NK8Renderer8GetLayerEv
Lne:_Array_InternalArray__ICollection_Add_TisResourceCacheItem_t333236149_m1151081240_gshared
xX:__ZN17AudioClipPlayable12PrepareFrameERK19DirectorVisitorInfo
uZf:_SoapServices_GetXmlTypeForInteropType_m3821579913
Stk:_emscripten_glTexParameterfv__wrapper
Lhj:_Score__ctor_m4081798671
wGg:_Physics2D_INTERNAL_CALL_Internal_Raycast_m489831109
oKj:_il2cpp_method_get_param_count
V4b:__ZN10systeminfo19ISOToSystemLanguageERN4core12basic_stringIcNS0_20StringStorageDefaultIcEEEE
aQj:__ZNK15dense_hashtableINSt3__24pairIK10KeyWrapperINS1_IPK12PropertyInfoP11Il2CppClassEEEjEES9_17ReflectionMapHashIS8_EN14dense_hash_mapIS9_jSD_NS9_14EqualsComparerINS0_8equal_toIS8_EEEENS0_9allocatorISB_EEE9SelectKeyESI_SK_E3endEv
GQc:__ZN11Rigidbody2D8TransferI19StreamedBinaryWriteILb0EEEEvRT_
Joi:_AnimationClipPlayable_op_Explicit_m1819456049
r$c:_ps_dimension_done
wCd:_LayoutRebuilder_MarkLayoutForRebuild_m640589351
U5c:__Z46Register_UnityEngine_TextGenerator_Dispose_cppv
cAd:_PointerEventData_get_pressEventCamera_m724559964
Cpd:_String_IndexOfUnchecked_m3356721554
exb:__ZN16LightmapSettings8TransferI14SafeBinaryReadEEvRT_
aQa:__ZN17BufferManagerGLES13ReleaseBufferEP14DataBufferGLES
lDc:__Z18Transfer_BlittableI8JSONReadLb1EjEvRK29SerializationCommandArgumentsR31RuntimeSerializationCommandInfo
tcj:_PKCS12_Decrypt_m1557069392
Omi:_VertexHelper_AddUIVertexQuad_m280792808
lOf:_WebHeaderCollection_ToString_m1246460752
oJi:_InternalEnumerator_1_System_Collections_IEnumerator_get_Current_m2842514953_AdjustorThunk
op:stackSave
N$c:_ps_dimension_end
Zoc:__Z41Register_UnityEngine_Mesh_Internal_Createv
EEb:__ZN14SpriteRenderer23VirtualRedirectTransferER24GenerateTypeTreeTransfer
P$j:__ZNK15dense_hashtableI10KeyWrapperIP18Il2CppGenericClassES3_N6il2cpp8metadata22Il2CppGenericClassHashEN14dense_hash_setIS3_S6_NS3_14EqualsComparerINS5_25Il2CppGenericClassCompareEEENSt3__29allocatorIS3_EEE8IdentityESA_SD_E12test_deletedERK30dense_hashtable_const_iteratorIS3_S3_S6_SF_SA_SD_E
kPc:__ZNSt3__27__sort3IRN18Overlap2DQueryBase29ColliderHitsByDepthComparitorEPP10Collider2DEEjT0_S7_S7_T_
_Nf:_ServicePointManager_get_SecurityProtocol_m1445189298
Ujd:_MACTripleDES_Initialize_m1318099802
jAf:_MD5SHA1_VerifySignature_m507888141
vUd:_Byte_System_IConvertible_ToChar_m4188836679
xye:_NumberFormatter_InitDecHexDigits_m2036076025
ABi:_Component_SendMessageUpwards_m2041012277
_1h:_Enumerator_get_CurrentKey_m3839846791_AdjustorThunk
_Dc:__ZN8JSONRead21TransferSTLStyleArrayI13dynamic_arrayIaLj1EEEEvRT_18MemLabelIdentifier17TransferMetaFlags
pfb:__ZN6Camera9SetAspectEf
Mgd:__ZN19TransportJavaScript9DoRequestERKN4core12basic_stringIcNS0_20StringStorageDefaultIcEEEEm21UnityWebRequestMethodS6_bbP12HeaderHelperP13UploadHandlerP15DownloadHandlerP14ResponseHelperP15UnityWebRequest
wa:invoke_viiffiii
a5g:__Z144RuntimeInvoker_Void_t1841601450_RuntimeObject_Vector2_t2243707579_Vector2_t2243707579_Color32_t874517518_Vector2_t2243707579_Vector2_t2243707579PFvvEPK10MethodInfoPvPS4_
rUh:__ZL79TouchInputModule_t2561058385_CustomAttributesCacheGenerator_m_ForceModuleActiveP21CustomAttributesCache
ivk:_emscripten_glBindVertexArray__wrapper
d9h:_Dictionary_2_InitArrays_m435313205_gshared
fwi:_AttributeHelperEngine_GetDefaultExecutionOrderFor_m451063166
fgb:__ZN9Transform37InitializeTransformHierarchyRecursiveER18TransformHierarchyRii
e8b:__Z34DefaultPrepareDispatchBoundsUpdateR13RendererScene18MemLabelIdentifier
pId:_Graphic_get_useLegacyMeshGeneration_m1366444625
ZNf:_ServicePointManager_get_CheckCertificateRevocationList_m4009410230
nWh:__ZL65InputField_t1631627530_CustomAttributesCacheGenerator_m_InputTypeP21CustomAttributesCache
tpf:_ModulusRing_Pow_m1137250399
F1a:__ZN17MeshRenderingData4InitEP4MeshS1_iP15SharedGfxBufferS3_
b$d:_Hashtable__cctor_m2952659675
ySf:_X509ChainStatus__ctor_m3628359961_AdjustorThunk
Tpd:_Evidence_get_HostEvidenceList_m2095478124
Gsc:__Z57Register_UnityEngine_Transform_INTERNAL_set_localPositionv
oDf:_Context_Clear_m4000337070
_Ka:__ZN13GfxDeviceGLES26SetRandomWriteTargetBufferEi15ComputeBufferID
iVf:_IntervalCollection_Normalize_m538796191
f$a:__ZZ23InitPlayerLoopCallbacksvEN49EarlyUpdateResetFrameStatsAfterPresentRegistrator7ForwardEv
D1d:_Console_SetEncodings_m342145566
k8i:_TrackedReference_op_Equality_m3491334086
gId:_FontUpdateTracker_UntrackText_m3827316510
Nve:_Array_InternalArray__get_Item_TisSingle_t2076509932_m1495809753_gshared
hre:_Array_InternalArray__set_Item_TisAnimatorClipInfo_t3905751349_m978873279_gshared
ihc:__ZNK11ICallString6ToUTF8Ev
j1i:_CaptureAssertion_get_Alternate_m2729005740
M8j:_GC_number_stack_black_listed
z5a:__ZNSt3__211__sift_downIR17ROSorterDepthPassP15RODataDepthPassEEvT0_S5_T_NS_15iterator_traitsIS5_E15difference_typeES5_
_4f:_Default_SelectMethod_m3081239996
wua:__ZN18UnityPropertySheet11UnityTexEnvC2Ev
iE:__ZN8Animator17ApplyOnAnimatorIKEiRNS_11AnimatorJobE
pda:__ZN12FileAccessor4ReadEyyPvPy
Wsa:__ZN13dynamic_arrayI16ShaderKeywordSetLj4EE6insertEPS0_PKS0_S4_
IVf:_MethodDictionary_IsOverridenKey_m3922224650
q0d:_SyncHashtable_Contains_m3042906549
Vgc:__ZN15dense_hashtableINSt3__24pairIKiiEEi21InstanceIDHashFunctorN14dense_hash_mapIiiS4_NS0_8equal_toIiEE13stl_allocatorIS3_L18MemLabelIdentifier136ELi16EEE9SelectKeyES7_SA_E12maybe_shrinkEv
Q2e:_List_1_System_Collections_IList_set_Item_m4016273526_gshared
PSf:_X509KeyUsageExtension_CopyFrom_m931530012
mpi:_AnimationLayerMixerPlayable_IsLayerAdditiveInternal_m3902226808
Reb:__ZN13RenderTexture9SetHeightEi
Rx:__ZN7mecanim9animation17ClearMotionOutputEPNS0_18AnimationNodeStateE
Jei:_LayoutUtility_U3CGetMinHeightU3Em__4_m1769295917
dBi:_Color32__ctor_m1932627809_AdjustorThunk
VJf:_SslStreamBase_Read_m1036897444
Yti:_AnimatorControllerPlayable_INTERNAL_CALL_PlayInFixedTimeInternal_m44271350
Jgi:_RectMask2D_PerformClipping_m1232012832
O2h:_Transform_1_Invoke_m4020530914_gshared
ZZc:_tt_cmap8_char_index
C9:__Z24scripting_class_get_name17ScriptingClassPtr
zfa:__ZN13RuntimeStaticI15GUIEventManagerLb0EE13StaticDestroyEPv
uwg:_GUILayoutGroup_ResetCursor_m3160916532
h5j:__ZN6il2cpp2os6Thread15CurrentThreadIdEv
jOb:__Z29Transfer_Blittable_ArrayFieldI14SafeBinaryReadjEvRT_R9ArrayInfoRK23StaticTransferFieldInfo
OMc:__ZN16CircleCollider2D13PrepareShapesER13dynamic_arrayIP7b2ShapeLj4EERK10Matrix4x4f
re:_emscripten_set_keydown_callback
N$d:_Enumerator_get_Value_m3684748062
mqb:__ZN19StreamedBinaryWriteILb0EE21TransferSTLStyleArrayINSt3__26vectorI17SortingLayerEntryNS2_9allocatorIS4_EEEEEEvRT_17TransferMetaFlags
bqg:_UInt32_Parse_m3371984903
xda:__ZN12FileAccessorC2Ev
ehb:__ZN9Transform35SetLocalPositionWithoutNotificationERKN4math7_float3E
Z_i:_PatternLinkStack_GetCurrent_m2994645935
hrb:__ZN6Camera8TransferI19StreamedBinaryWriteILb0EEEEvRT_
IIj:__ZN6il2cpp2vm7Runtime12GetConfigDirEv
KVf:_MethodDictionary_set_Item_m3475146889
cni:_Toggle_PlayEffect_m3950629415
Fle:_Array_IndexOf_TisRuntimeObject_m214763038_gshared
TKb:__Z39WriteQueueForTransferSignatureIntoCacheRK31TransferFunctionScriptingTraitsRK24TransferRequestSignature17ScriptingClassPtrR23CachedSerializationDataRb
aBa:__ZN13RenderManager18UpdateAllRenderersEv
kJ:__ZN18AnimatorController19TransferRuntimeDataI18StreamedBinaryReadILb0EEEEvRT_
Obd:__ZN22BaseUnityConnectClient30OnEnteringStatePausedOrStoppedEv
LLc:__ZN10ClipperLib7Clipper18SwapPositionsInAELEPNS_5TEdgeES2_
LPj:__ZN15dense_hashtableINSt3__24pairIK10KeyWrapperINS1_IPK12PropertyInfoP11Il2CppClassEEEjEES9_17ReflectionMapHashIS8_EN14dense_hash_mapIS9_jSD_NS9_14EqualsComparerINS0_8equal_toIS8_EEEENS0_9allocatorISB_EEE9SelectKeyESI_SK_E12resize_deltaEjj
cy:__ZN7mecanim5human12HumanPoseAddERNS0_9HumanPoseERKS1_S4_
Hui:_Animator_ResetTrigger_m865269317
Rt:__Z14resize_trimmedINSt3__26vectorI24CompressedAnimationCurve13stl_allocatorIS2_L18MemLabelIdentifier25ELi16EEEEEvRT_j
Waf:_Collection_1_IsFixedSize_m218241296_gshared
ahb:__Z24MergeTransformComponentsR9TransformS0_b
jti:_AnimatorControllerPlayable_IsInTransition_m3708059860
Wxi:_DelegatePInvokeWrapper_AudioConfigurationChangeHandler_t3743753033
SIe:_MonoIO_get_PathSeparator_m2635828107
$Ne:_MonoType_get_Name_m865859211
Kfe:_CultureInfo__cctor_m2290268677
r$:__Z71Register_UnityEngine_Audio_AudioClipPlayable_INTERNAL_CALL_ValidateTypev
CYf:_RemotingConfiguration__cctor_m2129988840
l9e:_Collection_1_Insert_m44548038_gshared
Y6j:__ZN6il2cpp2vm13ComObjectBase19GetRuntimeClassNameEPP15Il2CppHString__
Sj:_emscripten_glVertexAttribPointer
Wsb:__ZNK20IntermediateRenderer12GetSceneMaskEv
fza:__ZN14PreloadManager26UpdatePreloadingSingleStepENS_21UpdatePreloadingFlagsEi
gCg:_Material__ctor_m1440882780
xnd:_SHA512Managed_Initialize_m891287980
fqd:_SecurityException__ctor_m1484114982
Dej:_X509Crl_GetHashName_m183504634
eRd:_Array_GetValue_m1507415734
Fqc:__Z57Register_UnityEngine_RectTransform_INTERNAL_set_anchorMinv
lxe:_Object_MemberwiseClone_m2655589444
zwa:__ZN6prcoreL25inner_stretch_i8_bilinearEPKNS_9InnerInfoE
Hza:__ZL30RegisterFilteredObjectCallbackPP12Il2CppObjectiPv
Aeg:_MonoMethod_get_IsGenericMethod_m4276550811
l3h:_Transform_1_BeginInvoke_m3826027984_gshared
s1:__ZN11UnityEngine15CloudWebService16SessionContainer24GetSessionHeaderJsonDataERKN4core12basic_stringIcNS2_20StringStorageDefaultIcEEEERNS2_13StringBuilderE
X3d:_Decimal_op_Implicit_m2149927308
kfa:__ZN13RuntimeStaticI21AssetReferenceStorageLb0EE13StaticDestroyEPv
Qpg:_UInt16_System_IConvertible_ToUInt32_m1864968312
L2j:__ZN6il2cpp6icalls8mscorlib6System9AppDomain22InternalGetProcessGuidEP12Il2CppString
Crf:_KeyPairPersistence_get_UseMachineKeyStore_m560802076
uY:__ZN19AudioPlayableOutput19DeallocateResourcesEv
W$h:_Enumerator_System_Collections_IDictionaryEnumerator_get_Entry_m345330700_AdjustorThunk
erk:_glBindRenderbuffer__wrapper
cSb:__Z18Transfer_BlittableI24GenerateTypeTreeTransferLb1EjEvRK29SerializationCommandArgumentsR31RuntimeSerializationCommandInfo
Izf:_MD2Managed_Padding_m410163267
Psb:__ZN11ColorRGBA328TransferI14SafeBinaryReadEEvRT_
Vf:_emscripten_glClearDepth
Ebc:__ZNK8GUILayer22GetTypeVirtualInternalEv
szb:__ZN14SafeBinaryRead21TransferSTLStyleArrayINSt3__26vectorIN15QualitySettings14QualitySettingENS1_9allocatorIS4_EEEEEEvRT_17TransferMetaFlags
HGe:_File_OpenText_m4058508963
OGb:__ZNSt3__26vectorINS_4pairIPKN5Unity4TypeE7Hash128EENS_9allocatorIS7_EEE8__appendEj
GZf:_WellKnownClientTypeEntry__ctor_m670594074
cUj:__ZN15dense_hashtableINSt3__24pairIK10KeyWrapperIP11Il2CppClassES4_EES5_N6il2cpp8metadata16SZArrayClassHashEN14dense_hash_mapIS5_S4_SA_NS5_14EqualsComparerINS9_19SZArrayClassCompareEEENS0_9allocatorIS7_EEE9SelectKeyESE_SG_EC2ERKSJ_j
s7d:_DateTime_System_IConvertible_ToSingle_m3927769066_AdjustorThunk
l2c:_cff_font_load
nHf:_RecordProtocol_SendRecord_m2977889250
dkc:__Z13IsPathCreatedRKN4core12basic_stringIcNS_20StringStorageDefaultIcEEEE
RK:__ZN13ProduceHelperI13AnimationClipLb0EE7ProduceE18MemLabelIdentifier18ObjectCreationMode
TCa:__ZL22stbir__encode_scanlineP11stbir__infoiPvPfiii
vTg:__Z136RuntimeInvoker_Void_t1841601450_Byte_t3683104436_RuntimeObject_Int64U26_t763825331_ObjectU26_t597476745_SerializationInfoU26_t4051840202PFvvEPK10MethodInfoPvPS4_
dTc:__ZN20QuadTreeNodeRenderer13StaticDestroyEPv
o2:__ZN11UnityEngine15CloudWebService20WebRequestRestClient5AbortEv
T7b:__ZN9Transform12CleanupClassEv
SNg:__Z50RuntimeInvoker_Void_t1841601450_Double_t4078015681PFvvEPK10MethodInfoPvPS4_
Zbk:__ZN6il2cpp6icalls8mscorlib6System9Threading16NativeEventCalls19CloseEvent_internalE12Il2CppIntPtr
QD:__ZN11UnityEngine9Animation33SetGenericTransformPropertyValuesERKNS0_30AnimatorGenericBindingConstantERKN7mecanim10ValueArrayEP9Transformb
mDf:_ClientContext_set_ClientHelloProtocol_m2246603449
vWc:_UNITY_FT_Set_Pixel_Sizes
BOd:_U3CMouseDragOutsideRectU3Ec__Iterator1_MoveNext_m2845491958
m0b:__ZNSt3__26vectorIN9ShaderLab19SerializedSubShaderENS_9allocatorIS2_EEE26__swap_out_circular_bufferERNS_14__split_bufferIS2_RS4_EE
tu:__ZN11UnityEngine9Animation28AnimationClipBindingConstant8TransferI24GenerateTypeTreeTransferEEvRT_
nBd:_StandaloneInputModule_IsModuleSupported_m623598506
gVj:__ZN6il2cpp2vmL24thread_cleanup_on_cancelEPv
K1f:_SByte_ToString_m4105923225_AdjustorThunk
Ofe:_CultureInfo_ConstructCurrentUICulture_m3363349599
sAb:__ZN13dynamic_arrayI7SubMeshLj4EE18resize_initializedEjRKS0_12ResizePolicy
PYh:__ZL75CanvasScaler_t2574720772_CustomAttributesCacheGenerator_m_FallbackScreenDPIP21CustomAttributesCache
yNe:_MonoType_GetEvent_m4160342003
tgi:_RawImage_set_texture_m2400157626
_qj:_PrimeHelper_ToPrime_m1606935350_gshared
ctb:__Z30ProcessDynamicBatchGeometryJobP25DynamicVBOGeometryJobDataj
X5a:__ZNSt3__27__sort4IRNS_6__lessI11CulledLightS2_EEPS2_EEjT0_S6_S6_S6_T_
lLj:__ZN6il2cpp2vm14TypeNameParser26ParseArrayModifierOptionalEv
Bwi:_AudioClipPlayable_INTERNAL_CALL_GetLoopedInternal_m3082735156
Pmf:_MSCompatUnicodeTable_Level3_m260824928
Paa:__Z26scripting_object_get_class18ScriptingObjectPtr
Khj:_U3CReadScoresFromDBU3Ec__Iterator2_MoveNext_m2193982753
q7b:__ZNK28MonoBehaviourPropertyBinding15GenerateBindingERKN4core12basic_stringIcNS0_20StringStorageDefaultIcEEEEbRN11UnityEngine9Animation14GenericBindingE
Zzg:_GUIStyle_CalcMinMaxWidth_m2027503105
gCe:_Int32_FindExponent_m3187554672
Orf:_KeyPairPersistence_Load_m1355205585
iDe:_Int32_ToString_m2960866144_AdjustorThunk
Nij:_Predicate_1_Invoke_m3539717340_gshared
rrj:_HashSet_1_Contains_m3626542335_gshared
jsd:_Single_CompareTo_m2081476257_AdjustorThunk
h4j:__ZN6il2cpp6icalls8mscorlib6System11Environment15internalGetHomeEv
znk:dynCall_iiiiiiffiiiiiiiiiffffiiii
Ycj:_PKCS12_get_Keys_m288413492
Zfj:_U3CShowGameOverScreenU3Ec__Iterator1_Reset_m601404735
Hnb:__ZNK5Unity9Component7GetNameEv
r$f:__ZN21InterfaceFuncInvoker4IP12Il2CppObjectS1_P28SerializationInfo_t22898743028StreamingContext_t1417235061S1_E6InvokeEjP11Il2CppClassS1_S1_S3_S4_S1_
Dnj:_ObjectPool_1_Get_m3724675538_gshared
DIc:__ZNK11b2RopeJoint16GetReactionForceEf
bF:__ZN7mecanim8skeleton26SkeletonPoseComputeGlobalQEPKNS0_8SkeletonEPKNS0_13SkeletonPoseTIN4math4trsXEEEPS7_ii
ZEc:__ZN8JSONRead21TransferSTLStyleArrayI13dynamic_arrayIfLj4EEEEvRT_18MemLabelIdentifier17TransferMetaFlags
vZe:_List_1_GetEnumerator_m2672519407_gshared
DE:__ZN9BlobWrite8TransferI22OffsetPtrArrayTransferIiEEEvRT_PKc17TransferMetaFlags
KTg:__Z82RuntimeInvoker_Boolean_t3825574718_SByte_t454417549_RuntimeObject_SByte_t454417549PFvvEPK10MethodInfoPvPS4_
zmf:_ContractionComparer_Compare_m314873025
tab:__ZN14qsort_internal18QSortSingleJobDataIP16RenderObjectDatai26RenderDeferredObjectSorterE7SortJobEPS4_
OAg:_GUIUtility_EndGUIFromException_m2091524531
ADe:_Int64_System_IConvertible_ToDouble_m638786774
PT:__ZN4FMOD6System7releaseEv
Uca:__Z18PathToAbsolutePathRKN4core12basic_stringIcNS_20StringStorageDefaultIcEEEE
JQe:_Enumerator_MoveNext_m3078170540_AdjustorThunk
Tr:__ZN13AnimationClip23VirtualRedirectTransferER17RemapPPtrTransfer
bck:__ZN6il2cpp6icalls8mscorlib6System10Reflection16MonoPropertyInfo16GetTypeModifiersEPvb
doj:_Action_Invoke_m3801112262
cOg:__Z79RuntimeInvoker_Decimal_t724701077_RuntimeObject_Int32_t2071877448_RuntimeObjectPFvvEPK10MethodInfoPvPS4_
XAi:_Color_Lerp_m3323752807
yCa:__ZL13BlitImageImplR14ImageReferenceiiRKS_NS_10ColorSpaceENS_8BlitModeEb
Wt:__ZNSt3__26vectorI24CompressedAnimationCurve13stl_allocatorIS1_L18MemLabelIdentifier25ELi16EEE7reserveEj
sNg:__Z64RuntimeInvoker_RuntimeObject_Int16_t4041245914_Int16_t4041245914PFvvEPK10MethodInfoPvPS4_
pDa:__ZN29SerializeTraitsForStringTypesIN4core12basic_stringIcNS0_20StringStorageDefaultIcEEEEE8TransferI24GenerateTypeTreeTransferEEvRS4_RT_
Dzg:_GUIUtility_Internal_GetHotControl_m2510727642
WR:__ZN12AudioManager29ShutdownReinitializeAndReloadEv
dcj:_NetscapeCertTypeExtension_Decode_m2210025005
iLg:_RectTransform_GetLocalCorners_m1836626405
PZf:_BaseFixupRecord_DoFixup_m1821597450
Eyj:__ZN15dense_hashtableINSt3__24pairIK10KeyWrapperIPK22Il2CppGenericParameterEP11Il2CppClassEES6_N6il2cpp5utils11PointerHashIS4_EEN14dense_hash_mapIS6_S9_SE_NS6_14EqualsComparerINS0_8equal_toIS5_EEEENS0_9allocatorISA_EEE9SelectKeyESJ_SL_E6insertERKSA_
LGe:_FileLoadException__ctor_m1356374414
nNa:__ZN14DataBufferGLES16RecreateWithDataEjPKv
zjc:__Z29GetGlobalAllowNameConversionsv
Uhb:__ZN8Material8SetColorEN9ShaderLab16FastPropertyNameERK10ColorRGBAf
Kcg:_Module_GetCustomAttributes_m3581287913
IV:__ZN11AudioSource23VirtualRedirectTransferER18StreamedBinaryReadILb0EE
pfa:__ZN21AssetReferenceStorageC2Ev
KTc:__ZNSt3__26vectorIN4core12basic_stringIcNS1_20StringStorageDefaultIcEEEE13stl_allocatorIS5_L18MemLabelIdentifier34ELi16EEEC2INS_11__wrap_iterIPS5_EEEET_SE_RKS8_PNS_9enable_ifIXaasr21__is_forward_iteratorISE_EE5valuesr16is_constructibleIS5_NS_15iterator_traitsISE_E9referenceEEE5valueEvE4typeE
G9:__ZL41AssemblyNameMatchesWithOrWithoutExtensionPKcS0_
FRa:__ZN14GfxContextGLES43AddRenderSurfaceToDeferredFBOInvalidateListEPK17RenderSurfaceGLES
eWj:__ZN6il2cpp6icalls8mscorlib6System9Threading6Thread15Thread_internalEP12Il2CppThreadP14Il2CppDelegate
esa:__ZN11NamedObject23VirtualRedirectTransferER14SafeBinaryRead
lWc:__ZNSt3__26vectorIN20TextRenderingPrivate8FontImpl13CharacterInfoE13stl_allocatorIS3_L18MemLabelIdentifier1ELi16EEE6insertENS_11__wrap_iterIPKS3_EERS9_
pza:__ZN23PreloadManagerOperation6IsDoneEv
RIj:__ZN6il2cpp2vm7Runtime15InvokeWithThrowEPK10MethodInfoPvPS5_
tvf:_X509Certificate_get_RawData_m3000055075
qec:__Z33GetHasChangedDeprecatedSystemMaskv
DNc:__ZN10Effector2D10EndContactEP9b2Contact
A6j:__ZN6il2cpp5utils11StringUtils11Utf16ToUtf8ERKNSt3__212basic_stringIDsNS2_11char_traitsIDsEENS2_9allocatorIDsEEEE
f1h:_Enumerator_VerifyState_m1165543189_AdjustorThunk
_7d:_DateTime_AddSeconds_m722082155_AdjustorThunk
cZd:_SynchronizedArrayListWrapper_CopyTo_m956887031
qEj:__ZNSt3__213__lower_boundIRN6il2cpp5utils11collections13ArrayValueMapIPK10Il2CppType17Il2CppInteropData26InteropDataToTypeConverterNS1_8metadata14Il2CppTypeLessENSA_26Il2CppTypeEqualityComparerEE22LowerBoundFindComparerEPKS8_S7_EET0_SI_SI_RKT1_T_
QDa:__ZN21LightProbeProxyVolume18HasHardwareSupportEv
AOc:__ZNK20b2SeparationFunction17FindMinSeparationEPiS0_f
uwa:__ZN6prcoreL31inner_stretch_argb8888_bilinearEPKNS_9InnerInfoE
EVb:__Z18Transfer_BlittableI18StreamedBinaryReadILb1EELb1E8BitFieldEvRK29SerializationCommandArgumentsR31RuntimeSerializationCommandInfo
nYc:_UNITY_FT_Outline_Decompose
yFf:_TlsClientCertificate_get_ClientCertificate_m3062440489
Jpd:_StrongNamePublicKeyBlob_ToString_m3721281223
GIi:_InternalEnumerator_1_get_Current_m198513457_AdjustorThunk
X3a:__Z20scripting_object_new17ScriptingClassPtr
cAe:_TextInfo__ctor_m2782608694
a4e:_Queue_1_System_Collections_ICollection_CopyTo_m772787461_gshared
ptc:__Z58Register_UnityEngine_Object_Internal_CloneSingleWithParentv
lAe:_TextInfo_ToUpper_m299550697
hqi:_AnimationOffsetPlayable_INTERNAL_CALL_SetRotationInternal_m2809009466
MBc:__ZN9JSONWrite8TransferI13dynamic_arrayI8BitFieldLj4EEEEvRT_PKc17TransferMetaFlags
nab:__ZN18ShadowMapJobHeaderD0Ev
vId:_Graphic_OnRectTransformDimensionsChange_m1610753363
Z5d:_Convert_ToUInt16_m3265369225
P:Math_exp
dNe:_MonoEnumInfo_get_Cache_m3551569711
Ro:FUNCTION_TABLE_iiifi
Ahe:_Array_InternalArray__ICollection_Contains_TisVector3_t2243707580_m3625701788_gshared
oGa:__ZNSt3__26vectorINS_4pairIyP17VertexDeclarationEENS_9allocatorIS4_EEE6insertENS_11__wrap_iterIPKS4_EERS9_
Rfb:__ZN13MonoBehaviour9SetScriptERK4PPtrI10MonoScriptE18ScriptingObjectPtr
qhe:_Array_InternalArray__ICollection_Contains_TisPlayableBinding_t2498078091_m4267109606_gshared
VQc:__ZN13ProduceHelperI13BoxCollider2DLb0EE7ProduceE18MemLabelIdentifier18ObjectCreationMode
VXc:_UNITY_FT_Create_Class_sfnt_module_class
sae:_Decimal_IsZero_m3557909184_AdjustorThunk
JWd:_Char_ToString_m1401375624
akd:_MD5CryptoServiceProvider__cctor_m3309191799
Dma:__ZNK10FileSystem16LastErrorMessageEv
HIg:_ScriptPlayableOutput__ctor_m3107656159
S3g:__Z74RuntimeInvoker_Vector2_t2243707579_Vector2_t2243707579_Vector2_t2243707579PFvvEPK10MethodInfoPvPS4_
uSe:_Enumerator_System_Collections_IEnumerator_Reset_m3052395060_gshared
Rxf:_Kernel_DwordDivMod_m3728402123
CJb:__ZN13MonoBehaviour13AwakeFromLoadE17AwakeFromLoadMode
rQb:__ZL26Transfer_SimpleNativeClassI17RemapPPtrTransfer8GradientLb1EEvRK29SerializationCommandArgumentsR31RuntimeSerializationCommandInfo
Eec:__ZN12CachedWriter9InitWriteER15CacheWriterBase
Zcc:__Z21UnsignedInt64ToStringy
Ejg:_UTF7Decoder__ctor_m549434986
ePi:_InternalEnumerator_1_get_Current_m1025321669_AdjustorThunk
ppc:__Z36MonoBehaviour_CUSTOM_InvokeRepeatingP12Il2CppObjectP12Il2CppStringff
Ssc:__Z66Register_UnityEngine_Transform_INTERNAL_CALL_InverseTransformPointv
Tha:__ZZN15DirectorManager15InitializeClassEvEN41FixedUpdateDirectorFixedUpdateRegistrator7ForwardEv
Vck:__ZN6il2cpp2os9MutexImpl7TryLockEjb
ATf:_Group__ctor_m4103922028
l0a:__ZN6Camera26ClearIntermediateRenderersEj
Tuk:_glLinkProgram__wrapper
cxa:__ZN6prcoreL12RemapGenericI17TexFormatARGB888815TexFormatBGR888EEvPKNS_9InnerInfoE
OSd:_BitConverter_ToUInt16_m2715119381
gkd:_MD5CryptoServiceProvider_ProcessFinalBlock_m1052610785
eO:__Z79AnimatorControllerPlayable_CUSTOM_INTERNAL_CALL_GetNextAnimatorClipInfoInternalR9HPlayablei
sZd:_BitArray_Set_m2878881714
fki:_Selectable_get_colors_m3501193396
b_j:__ZN6il2cpp6icalls8mscorlib6System13Globalization11CultureInfo35construct_internal_locale_from_nameEP17Il2CppCultureInfoP12Il2CppString
rSb:__ZL22Transfer_ManagedObjectI24GenerateTypeTreeTransferLb1EEvRK29SerializationCommandArgumentsR31RuntimeSerializationCommandInfo
zXi:_ContextAttribute_Equals_m53324298
Czi:_Canvas_ForceUpdateCanvases_m2446828475
_j:_emscripten_set_main_loop_timing
utg:_WeakReference_AllocateHandle_m1783929473
iNa:__ZN14DataBufferGLES12RecordRenderEv
Gse:_Array_Sort_TisRuntimeObject_m3674422195_gshared
rhb:__ZN14ImageReference10FlipImageYEv
rvc:__Z14GetDefaultSkini
vP:__ZN4FMOD3DSP9setBypassEb
imb:__Z19NormalizeWheelInputf
Ihe:_Array_InternalArray__ICollection_Remove_TisLink_t865133271_m1984184141_gshared
aFc:__Z29Transfer_Blittable_ArrayFieldI8JSONReadhEvRT_R9ArrayInfoRK23StaticTransferFieldInfo
LPd:_LayoutRebuilder_IsDestroyed_m3442208294
khc:__ZN11MonoManager25GetImageFromAssemblyIndexEi
I0h:_Enumerator_VerifyState_m1547102902_AdjustorThunk
tfk:__ZN6il2cpp2os20ThreadLocalValueImpl8SetValueEPv
w1a:__ZN22RenderingCommandBuffer20CleanupCommandBufferEv
_Tg:__Z165RuntimeInvoker_Void_t1841601450_UInt32U26_t2197289955_Int32_t2071877448_UInt32U26_t2197289955_Int32_t2071877448_Int32_t2071877448_Int32_t2071877448_Int32_t2071877448PFvvEPK10MethodInfoPvPS4_
qAc:__Z18Transfer_BlittableI9JSONWriteLb1EtEvRK29SerializationCommandArgumentsR31RuntimeSerializationCommandInfo
MGe:_FileLoadException__ctor_m918124939
rk:___syscall85
evj:__ZL25UnresolvedVirtualCall_198P12Il2CppObjectfPK10MethodInfo
k3a:__ZNSt3__26__sortIRPFbP10GUIElementS2_EPS2_EEvT0_S7_T_
yyf:_SequentialSearchPrimeGeneratorBase_GenerateSearchBase_m2930465198
Jbc:__ZN16GraphicsSettings12CleanupClassEv
i5j:__ZN6il2cpp2os6Thread19DetachCurrentThreadEv
Zyj:__ZN6il2cpp2vmL21SetupInterfacesLockedEP11Il2CppClassRKNS_2os12FastAutoLockE
WLb:__ZN11MonoManager23VirtualRedirectTransferER24GenerateTypeTreeTransfer
NC:__ZN23AnimationPlayableOutput17SetSourcePlayableEP8Playable
aTf:_Capture__ctor_m885749277
$yg:_GUIStyle_set_clipOffset_m3871613343
CLd:_SubmitEvent__ctor_m222860306
o1:__ZN11UnityEngine15CloudWebService14DataDispatcher15SetupWebRequestEv
XKe:_TextWriter__cctor_m4047845042
Mcd:__ZN11UnityEngine15PlatformWrapper13GetShaderCapsEv
tbb:__ZNSt3__211__sift_downIR26RenderDeferredObjectSorterP16RenderObjectDataEEvT0_S5_T_NS_15iterator_traitsIS5_E15difference_typeES5_
Uoi:_AnimationClipPlayable_SetApplyFootIK_m4007156901_AdjustorThunk
WLd:_InputField_CaretBlink_m3960486606
bk:_emscripten_glGetProgramiv
msf:_SmallXmlParser_ReadCharacters_m1966365555
tJf:_InternalAsyncResult_get_CompletedWithError_m3993955322
scc:__ZN21FixedBehaviourManager6UpdateEv
Ojc:__ZN9Transform9SetParentEPS_NS_15SetParentOptionE
ugf:_ReadOnlyCollection_1_System_Collections_IList_Add_m527174473_gshared
B7:__ZN19ShaderPropertySheet8SetFloatEN9ShaderLab16FastPropertyNameEfNS_8SetFlagsE
oWh:__ZL68InputField_t1631627530_CustomAttributesCacheGenerator_m_AsteriskCharP21CustomAttributesCache
DAa:__ZN19RuntimeSceneManager24BeginIntegrateMainThreadEP10UnityScene
bkk:__ZNSt3__212basic_stringIcNS_11char_traitsIcEENS_9allocatorIcEEE6__initEPKcjj
P8i:_Transform_TransformPoint_m3272254198
N3j:__ZNSt3__2plIcNS_11char_traitsIcEENS_9allocatorIcEEEENS_12basic_stringIT_T0_T1_EERKS9_S6_
OLe:_LocalDataStoreSlot__cctor_m1192669356
T$b:__ZN9ShaderLab20SerializedSubProgramaSERKS0_
ilk:_roundf
Oud:_String_CreateString_m2556700934
kqb:__ZN18StreamedBinaryReadILb0EE21TransferSTLStyleArrayINSt3__26vectorI17SortingLayerEntryNS2_9allocatorIS4_EEEEEEvRT_17TransferMetaFlags
Gw:__ZN8Animator15SetPrepareStageEv
Ali:_Slider_get_axis_m162140813
_yj:__ZN6il2cpp2vmL24SetupTypeHierarchyLockedEP11Il2CppClassRKNS_2os12FastAutoLockE
pmb:__ZL11TextHandleriPK23EmscriptenKeyboardEventPv
VPd:_LayoutRebuilder_U3Cs_RebuildersU3Em__0_m3768099182
Yji:_ScrollRect_SetLayoutHorizontal_m3486408020
LVc:_destroy_face
p0h:_Enumerator_VerifyState_m1547102902_gshared
uck:__ZN6il2cpp6icalls8mscorlib6System8Security12Cryptography24RNGCryptoServiceProvider13RngInitializeEP11Il2CppArray
cNf:_IPAddress__cctor_m3624830012
RV:__ZN20SoundChannelInstance7setMuteEb
PKh:__ZL115AnimatorStateInfo_t2577870592_CustomAttributesCacheGenerator_AnimatorStateInfo_t2577870592____nameHash_PropertyInfoP21CustomAttributesCache
WOf:_AsnEncodedData_EnhancedKeyUsageExtension_m1452131166
DWb:__Z19TransferField_ArrayI18StreamedBinaryReadILb1EE27Converter_SimpleNativeClassI17AnimationCurveTplIfEEEvRK23StaticTransferFieldInfoR31RuntimeSerializationCommandInfoRT0_
TQc:__ZN7b2World18SetContactListenerEP17b2ContactListener
ONa:__ZN18GfxFramebufferGLES22MakeCurrentFramebufferENS_7BuiltinE
gUf:_Interpreter_Close_m1500459069
vk:_JS_SystemInfo_GetWidth
kDa:__ZN12CachedReader4ReadEPvj
R0c:_cf2_blues_init
KIi:_InternalEnumerator_1_System_Collections_IEnumerator_get_Current_m3600601141_gshared
Nmd:_SHA1Internal_HashFinal_m3188468925
Faj:_Vector3_op_Inequality_m799191452
U7a:__Z24CalculateLightShadowFadeRK6CamerafffR8Vector4f
L9:__ZN19RuntimeSceneManagerD2Ev
kVi:_ChannelData_get_CustomProperties_m1470957369
Xte:_Dictionary_2_Do_ICollectionCopyTo_TisRuntimeObject_m545661084_gshared
E2:__ZN11UnityEngine15CloudWebService25WebRequestDownloadHandler17OnCompleteContentEv
twa:__ZN6prcore17GetIntegerBlitterE13TextureFormatS0_N14ImageReference8BlitModeE
Syi:_Camera_INTERNAL_CALL_ScreenPointToRay_m2752248646
CJc:__ZN13BoxCollider2DD0Ev
_Oj:__ZN6il2cpp2gc19AppendOnlyGCHashMapINSt3__24pairIPK11Il2CppImageP11Il2CppClassEEP22Il2CppReflectionModule17ReflectionMapHashIS9_ENS2_8equal_toIS9_EEE11TryGetValueERKS9_PSB_
E1h:_Enumerator_VerifyState_m3173176371_AdjustorThunk
gMf:_TypeConverterAttribute__cctor_m506796812
yjc:__ZN9BlobWrite14ReduceCopyImplERK14ReduceCopyDataj
FRi:_Comparer_1_System_Collections_IComparer_Compare_m1790257529_gshared
VIc:__ZNK12b2WheelJoint10GetAnchorAEv
Ypk:_glShaderSource__wrapper
fYa:__ZN25MultiBlocksMemoryFileData17AdjustBlocksCountEj
KWj:__ZNSt3__214__split_bufferIN6il2cpp2vm22EmbeddedResourceRecordERNS_9allocatorIS3_EEED2Ev
tDf:_TlsClientHello__ctor_m1699671541
TTc:__ZN13TextRendering4Font8TransferI24GenerateTypeTreeTransferEEvRT_
eqi:_AnimationOffsetPlayable_GetRotation_m3608800497_AdjustorThunk
P_a:__ZN23ManagedAttributeManager15InitializeClassEv
dmc:__Z27CullingGroup_CUSTOM_DisposeP12Il2CppObject
ZVj:__ZN6il2cpp6icalls8mscorlib6SystemL23CheckWideningConversionEjjj
P1a:__ZN13ComputeShader15SetTextureParamEjRKN9ShaderLab16FastPropertyNameE9TextureID16TextureDimension
Rki:_Shadow_set_effectDistance_m1951993364
Yvg:_GUILayoutEntry_ApplyStyleSettings_m371609721
l9h:_Dictionary_2_ContainsKey_m416495915_gshared
Bm:_glStencilMask
p3j:__ZN6il2cpp2os10ThreadImpl16GetCurrentThreadEv
fEf:_TlsServerHelloDone__ctor_m2125611008
Z_d:_Hashtable__ctor_m2337481811
j1h:_Enumerator_System_Collections_IEnumerator_get_Current_m2010873149_gshared
oYh:__ZL74SpriteState_t1353336012_CustomAttributesCacheGenerator_m_HighlightedSpriteP21CustomAttributesCache
jYf:_RealProxy__ctor_m2505535530
Z9j:_GC_push_conditional_with_exclusions
Nqg:_UInt32_System_IConvertible_ToUInt16_m2798641702_AdjustorThunk
k_f:_BinaryFormatter_get_DefaultSurrogateSelector_m219714691
CF:__ZN12_GLOBAL__N_121ProcessAnimationBeginER35AnimationPlayableEvaluationConstantR32AnimationPlayableEvaluationInputR33AnimationPlayableEvaluationOutput
Dti:_AnimatorControllerPlayable_CrossFadeInFixedTime_m3016214003
tQg:__Z136RuntimeInvoker_Void_t1841601450_Int32_t2071877448_RuntimeObject_RuntimeObject_RuntimeObject_RuntimeObject_RuntimeObject_SByte_t454417549PFvvEPK10MethodInfoPvPS4_
dfg:_MonoProperty_GetOptionalCustomModifiers_m3827844355
uik:_strrchr
esi:_AnimatorControllerPlayable_IsParameterControlledByCurve_m3990583163_AdjustorThunk
vnf:_SimpleCollator_GetSortKey_m2188419329
gZh:__ZL56LayoutElement_t2808691390_CustomAttributesCacheGeneratorP21CustomAttributesCache
aub:__ZN14RenderSettings27UpdateIndirectSpecularColorEv
yHb:__ZN14PlayerSettings8TransferI18StreamedBinaryReadILb0EEEEvRT_
LHj:__ZN6il2cpp6icalls8mscorlib6System8MonoType16GetMethodsByNameEP20Il2CppReflectionTypeP12Il2CppStringibS5_
WTi:_GCHandle__ctor_m2952050298
Zei:_Mask_IsRaycastLocationValid_m62488857
tGa:__ZNSt3__27__sort3IRNS_4lessIN22BuiltinResourceManager8ResourceEEEPS3_EEjT0_S7_S7_T_
TQi:_DefaultComparer_Compare_m3472472212_gshared
kHe:_MonoIO_GetLength_m2812344043
z$c:_ps_hints_t2mask
Z8i:_RequestAtlasCallback_Invoke_m2414509569
wDb:__ZN10BlendShape8TransferI19StreamedBinaryWriteILb0EEEEvRT_
S8i:_Transform_IsChildOf_m10844547
DEe:__Z21il2cpp_codegen_sizeofP11Il2CppClass
goa:__Z19GetTimeSinceStartupv
rrd:_SecurityFrame_get_Assembly_m2816566490
Q4c:_TT_Load_Composite_Glyph
Gbj:_NetFxCoreExtensions_CreateDelegate_m2492743074
FRd:_Array_Sort_m2994254654
A2e:_List_1__ctor_m593058937_gshared
m6a:__ZN29RenderNodeQueuePrepareContextC2Ev
cZ:__ZN10SampleClipC2E18MemLabelIdentifier18ObjectCreationMode
T0b:__ZN9ShaderLab20SerializedSubProgram16TextureParameter8TransferI24GenerateTypeTreeTransferEEvRT_
Ydk:__ZN6il2cpp2os11MutexHandle4WaitEj
zic:__ZL34GetComponentsImplementationRecurseILb1ELi1ELi1EEbR10GameObjectbRK17CompareParametersRK39GetComponentsImplementation_ReturnValue
Xdk:__ZN6il2cpp2os11MutexHandle4WaitEv
cXd:_ArrayList_set_Capacity_m592558035
mya:__ZN6prcoreL17RemapGenericFloatI15TexFormatRGHalf18TexFormatARGBFloatEEvPKNS_9InnerInfoE
_na:__Z18SimulateMouseInputi
M0a:__ZN13RenderManager23AddRemoveCamerasDelayedEv
uBc:__ZN9JSONWrite8TransferI13dynamic_arrayIdLj8EEEEvRT_PKc17TransferMetaFlags
bie:_Array_InternalArray__ICollection_Remove_TisILTokenInfo_t149559338_m1523907845_gshared
ogj:_PlayerController_ResetDestination_m3882061945
NBi:_ContactFilter2D_CheckConsistency_m1391185667
q$d:_Hashtable_Rehash_m2877670513
T3e:_Enumerator_System_Collections_IEnumerator_get_Current_m1853064751_gshared
Qeb:__ZN13RenderTexture8SetWidthEi
UNd:_InputField_Insert_m1593238693
S4c:_UNITY_FT_GlyphLoader_CheckSubGlyphs
tGj:__ZN6il2cpp2vm21ThreadPoolCompartment20SpawnNewWorkerThreadEv
Gne:_Array_InternalArray__ICollection_Add_TisCustomAttributeTypedArgument_t1498197914_m3260005285_gshared
w8a:__Z25SetupObjectBakedOcclusionbRK15SharedLightDataRK26SharedLightmapSettingsDataRK15LightmapIndicesR17ShaderPassContext
f0d:_SyncHashtable_GetObjectData_m3774367030
TAe:_Guid_GetHashCode_m1401300871
byc:__Z42Register_UnityEngine_GUIStyle_set_fontSizev
kP:__Z82Register_UnityEngine_Animations_AnimatorControllerPlayable_INTERNAL_CALL_GetBoolIDv
UD:__ZN8Animator9BuildJobsERK13dynamic_arrayIP14PlayableOutputLj4EERS0_INS_11AnimatorJobELj4EEPS7_bb
T6:__ZN9ShaderLab16FastPropertyName4InitEPKc
K6b:__Z13RegisterClassIN2UI13RectTransformEEvv
Tmf:_MSCompatUnicodeTable_ToWidthCompat_m2299599532
$xj:__ZN13Il2CppHashMapIPK22Il2CppGenericParameterP11Il2CppClassN6il2cpp5utils11PointerHashIS1_EENSt3__28equal_toIS2_EENS9_9allocatorINS9_4pairIK10KeyWrapperIS2_ES4_EEEEEC2EjRKS8_RKSB_
QOe:_NumberFormatter_get_IsFloatingSource_m2830957202
Jpa:__ZN13RenderTexture9SetMipMapEb
Yii:_ScrollRect_set_verticalScrollbarSpacing_m2356851539
Pna:__Z18GetDirectorManagerv
aIg:_PlayableHandle_INTERNAL_CALL_SetTimeInternal_m3873000891
xPe:_OperatingSystem_GetObjectData_m2276196875
nsc:__Z38Transform_CUSTOM_INTERNAL_get_rotationP12Il2CppObjectP11Quaternionf
VLj:__ZNSt3__26vectorIN6il2cpp2vm17TypeNameParseInfoENS_9allocatorIS3_EEE8allocateEj
POj:__ZNK15dense_hashtableINSt3__24pairIK10KeyWrapperINS1_IPK10MethodInfoP11Il2CppClassEEEjEES9_17ReflectionMapHashIS8_EN14dense_hash_mapIS9_jSD_NS9_14EqualsComparerINS0_8equal_toIS8_EEEENS0_9allocatorISB_EEE9SelectKeyESI_SK_E5beginEv
$Pa:__ZN7ApiGLES19UploadBufferSubDataEjN2gl12BufferTargetEllPKv
cka:__ZNSt3__216__rotate_forwardINS_11__wrap_iterIPN4core12basic_stringIcNS2_20StringStorageDefaultIcEEEEEEEET_S9_S9_S9_
Rsd:_String_System_IConvertible_ToInt32_m1927223638
yie:_Array_InternalArray__ICollection_Remove_TisContentType_t1028629049_m3085152315_gshared
kI:__ZN7mecanim12statemachine20StateMachineConstant8TransferI14SafeBinaryReadEEvRT_
rzi:_Canvas_set_sortingOrder_m2922819993
_fj:_U3CShowReadyScreenU3Ec__Iterator0_MoveNext_m1122652240
YAi:_Color_get_red_m2410286591
Efj:_GameGUINavigation_H_ShowGameOverScreen_m432439124
gxi:_AudioMixerPlayable_Create_m3525453973
bvd:_ASCIIEncoding__ctor_m4127831672
RNb:__Z19TransferField_ArrayI14SafeBinaryRead27Converter_SimpleNativeClassI8GUIStyleEEvRK23StaticTransferFieldInfoR31RuntimeSerializationCommandInfoRT0_
PTg:__Z63RuntimeInvoker_Void_t1841601450_RuntimeObject_Int16_t4041245914PFvvEPK10MethodInfoPvPS4_
Dhg:_UTF8Encoding__ctor_m3336862259
Bck:__ZN6il2cpp5utils10MemoryPoolC2Ej
pRf:_X509Chain_GetAuthorityKeyIdentifier_m2607407678
xck:__ZN6il2cpp5utils10MemoryPoolC2Ev
Ftb:__ZN14RenderSettings5ResetEv
h5b:__ZN6Sprite9BindAtlasERK4PPtrI11SpriteAtlasE
eXj:__ZNSt3__212basic_stringIDsNS_11char_traitsIDsEENS_9allocatorIDsEEE6appendEPKDsj
fL:__ZZN8Animator15InitializeClassEvEN37FunctorImpl_421kDidModifyOverrideClip4CallEPviR11MessageData
QNi:_InternalEnumerator_1_get_Current_m3724267862_AdjustorThunk
oue:_Dictionary_2_Do_ICollectionCopyTo_TisKeyValuePair_2_t3716250094_m1740410536_gshared
Tug:_GUI_CallWindowDelegate_m2039577415
stf:_RSAManaged_Dispose_m3018788098
WHc:__ZN12b2MouseJoint23InitVelocityConstraintsERK12b2SolverData
bzc:__ZN8Gradient8TransferI9JSONWriteEEvRT_
Ocj:_X509CertificateEnumerator_MoveNext_m1422952050
Pmb:__ZNK12TLSAllocatorI14StackAllocatorE22GetAllocatedMemorySizeEv
aw:__ZN7mecanim6memory16ChainedAllocator8AllocateEjj
k6d:_Convert_ToUInt32_m3394039268
Tgb:__ZN17RemapPPtrTransfer12PushMetaFlagE17TransferMetaFlags
WYa:__ZN12HandlerChain4NameEv
_Fb:__ZNSt3__26vectorI9InputAxisNS_9allocatorIS1_EEE10deallocateEv
RBe:_Int16_Equals_m3925135434_AdjustorThunk
Ead:__Z44Register_UnityEngine_CanvasRenderer_get_cullv
$jh:__ZL60IHashCodeProvider_t1980576455_CustomAttributesCacheGeneratorP21CustomAttributesCache
f7b:__ZN13ProduceHelperI13MonoBehaviourLb0EE7ProduceE18MemLabelIdentifier18ObjectCreationMode
KRe:_Enumerator_VerifyState_m1677639504_AdjustorThunk
DCf:_CipherSuiteCollection_get_Item_m280627160
nMb:__Z44InitializeTransferFunctionScriptingTraitsForI17RemapPPtrTransferEvR31TransferFunctionScriptingTraits
DXf:_SerializationInfoEnumerator_MoveNext_m1876990879
gng:_TimeSpan_Duration_m4205681645
lib:__ZN14UnityWebStream24UpdateAllUnityWebStreamsEv
Bih:__ZL60ObsoleteAttribute_t3878847927_CustomAttributesCacheGeneratorP21CustomAttributesCache
gpe:_Array_InternalArray__ICollection_CopyTo_TisRaycastHit2D_t4063908774_m3837098618_gshared
uhj:_Point_Update_m800149140
BAa:__ZN18LoadSceneOperation21MustCompleteNextFrameEv
SV:__ZNK12AudioManager16GetAudioListenerEv
OAh:__ZL48Camera_t189460977_CustomAttributesCacheGeneratorP21CustomAttributesCache
oeb:__ZNSt3__26vectorI11CameraStackNS_9allocatorIS1_EEE8__appendEj
sJc:__ZNK11Rigidbody2D20GetAttachedCollidersER13dynamic_arrayIP10Collider2DLj4EE
bNd:_InputField_OnDisable_m1865339380
Kqg:_UInt32_System_IConvertible_ToType_m747769316
Xx:__ZN7mecanim9animation12GetHumanPoseERKNS0_18ClipMuscleConstantEPKNS0_10ValueDeltaERNS_5human9HumanPoseE
xve:_Array_InternalArray__get_Item_TisInt16_t4041245914_m2533263979_gshared
Cz:__ZN22AnimationMixerPlayable17ProcessRootMotionEP35AnimationPlayableEvaluationConstantP32AnimationPlayableEvaluationInputP33AnimationPlayableEvaluationOutput
_ca:__Z13GetFileSystemv
pea:__ZNK5Unity4Type21FindAllDerivedClassesER13dynamic_arrayIPKS0_Lj4EENS0_17TypeFilterOptionsE
yfa:__ZN13RuntimeStaticI15GUIEventManagerLb0EE16StaticInitializeEPv
$Eb:__ZN14SafeBinaryRead8TransferIfEEvRT_PKc17TransferMetaFlags
gze:_DaylightTime_get_Delta_m2316831491
ZOc:__ZNSt3__27__sort5IR24RayHitsByDepthComparitorP12RaycastHit2DEEjT0_S5_S5_S5_S5_T_
whe:_Array_InternalArray__ICollection_Contains_TisUILineInfo_t3621277874_m1175659630_gshared
wmg:_WaitHandle_WaitOne_m370363697
vTf:_FactoryCache_Lookup_m1681894361
s8d:_DateTime_Subtract_m698282245_AdjustorThunk
JEb:__ZThn32_N14SpriteRenderer15AddAsRenderNodeER15RenderNodeQueueRK20DeprecatedSourceData
X4b:__Z7OpenURLRKN4core12basic_stringIcNS_20StringStorageDefaultIcEEEE
b2a:__ZN19ShaderPropertySheet9SetMatrixEN9ShaderLab16FastPropertyNameERK10Matrix4x4fNS_8SetFlagsE
eld:_RIPEMD160Managed_Initialize_m3365407578
hfc:__Z29GetTextureSizeAllowedMultiple13TextureFormat
bNf:_IPAddress_HostToNetworkOrder_m1092199707
Aje:_SetPropertyUtility_SetStruct_TisSpriteState_t1353336012_m2898060836_gshared
vpd:_SecurityAttribute__ctor_m3425755778
Rcc:__ZN21IntermediateRenderers3AddEP20IntermediateRenderer
lJj:_il2cpp_array_element_size
YDi:_InvokableCall__ctor_m738302370
gg:_glCheckFramebufferStatus
Rke:_Array_compare_TisInt32_t2071877448_m840310202_gshared
qQi:_InternalEnumerator_1_System_Collections_IEnumerator_get_Current_m442726479_AdjustorThunk
O3:__ZN19CloudServiceHandler20StartEventDispatcherERKN11UnityEngine15CloudWebService18CloudServiceConfigERNS1_23WebRequestRestHeaderMapE
yOi:_InternalEnumerator_1_System_Collections_IEnumerator_get_Current_m790514740_AdjustorThunk
Yt:__ZNSt3__26vectorI24CompressedAnimationCurve13stl_allocatorIS1_L18MemLabelIdentifier25ELi16EEE6resizeEj
Hmf:__Z37il2cpp_codegen_get_executing_assemblyPK10MethodInfo
UI:__ZN15SerializeTraitsINSt3__24pairI8StateKey10StateRangeEEE8TransferI24GenerateTypeTreeTransferEEvRS4_RT_
AJ:__ZN15SerializeTraitsI9OffsetPtrIN7mecanim12statemachine21SelectorStateConstantEEE8TransferI18StreamedBinaryReadILb0EEEEvRS4_RT_
Xle:_Array_InternalArray__IndexOf_TisByte_t3683104436_m3605266236_gshared
rAg:_GUIStyle_set_richText_m1853532836
mbj:_WWW_get_error_m3092701216
ahi:_RaycastAllCallback_Invoke_m981876639
phg:_UnicodeEncoding__ctor_m72484327
cZj:__ZN14dense_hash_mapI10KeyWrapperIP14Il2CppIUnknownEjN6il2cpp5utils11PointerHashIS1_EENS3_14EqualsComparerINSt3__28equal_toIS2_EEEENS9_9allocatorINS9_4pairIKS3_jEEEEE15set_deleted_keyERSF_
gfa:__ZN22BuiltinResourceManager16StaticInitializeEPv
Mv:__ZN7mecanim4hand8HandPose8TransferI19StreamedBinaryWriteILb0EEEEvRT_
jye:_NumberFormatter_ScaleOrder_m1915154678
qRj:__ZN13Il2CppHashMapIPK14Il2CppAssemblyPK22Il2CppMonoAssemblyNameN6il2cpp5utils11PointerHashIS1_EENSt3__28equal_toIS2_EENSA_9allocatorINSA_4pairIK10KeyWrapperIS2_ES5_EEEEEC2EjRKS9_RKSC_
mMi:_InternalEnumerator_1_System_Collections_IEnumerator_get_Current_m3576641073_AdjustorThunk
yEf:_ClientSessionInfo_SetContext_m2649357891
ICe:_Int32_System_IConvertible_ToInt64_m3790029067_AdjustorThunk
VJc:__ZN13BoxCollider2D13PrepareShapesER13dynamic_arrayIP7b2ShapeLj4EERK10Matrix4x4f
rs:__ZN14AnimationEvent8TransferI14SafeBinaryReadEEvRT_
Qxd:_RaycasterManager_GetRaycasters_m1154876874
LJf:_SslStreamBase_InternalReadCallback_m2524917586
Vda:__ZN8Remapper6RemoveEi
JWe:_List_1_CheckCollection_m2608305187_gshared
rWc:__ZL36CleanupTextRenderingScriptingClassesv
Thf:_ReadOnlyCollection_1__ctor_m3532148437_gshared
lRd:_Array_BinarySearch_m3270245097
Roc:__Z34Mesh_CUSTOM_SetArrayForChannelImplP12Il2CppObject30InternalScriptingShaderChannel34InternalScriptingVertexChannelTypeiP11Il2CppArrayi
yGe:_MonoIO_DeleteFile_m3273821223
Dof:_BigInteger_GenerateRandom_m2507308768
i7d:_DateTime_System_IConvertible_ToDouble_m1431748426_AdjustorThunk
hhe:_Array_InternalArray__ICollection_Contains_TisUInt16_t986882611_m510319131_gshared
kqe:_Array_InternalArray__Insert_TisRaycastHit2D_t4063908774_m3174907903_gshared
Iae:_Decimal_ToString_m541380585
iqi:_AnimationOffsetPlayable_SetRotation_m1448934280_AdjustorThunk
DJj:_il2cpp_class_is_valuetype
HK:__ZN11UnityEngine9Animation28GenericAnimationBindingCache25RegisterIAnimationBindingEPKN5Unity4TypeEiP17IAnimationBinding
Iad:__Z70RectTransformUtility_CUSTOM_INTERNAL_CALL_RectangleContainsScreenPointP12Il2CppObjectRK13Vector2fIcallS0_
Mde:_Enum_ToObject_m2601523252
Llk:dynCall_viiffiii
f5a:__Z20RenderSceneDepthPassRK19SharedRendererSceneRK17ShaderReplaceDatabR17ShaderPassContext
Pcb:__Z40ProcessCameraIndexListIsNodeVisibleInOutRK22SceneCullingParametersPK9SceneNodePK4AABBR9IndexList
Bsb:__ZN16GraphicsSettings8TransferI17RemapPPtrTransferEEvRT_
GJe:_StreamReader__ctor_m2654332332
g8c:__ZN2UI6Canvas13UpdateBatchesEb
KC:__ZNK23AnimationPlayableOutput11DerivesFromE17ScriptingClassPtr
PUe:_List_1_CheckCollection_m3968030679_gshared
kig:_StringBuilder_ToString_m617673931
jdd:__ZN11UnityEngine7Connect13ConfigHandler12GetListenersERKN4core12basic_stringIcNS2_20StringStorageDefaultIcEEEE
kJa:__ZN9GfxDevice18AllocRenderSurfaceEb
b5b:__ZN10TagManager32GetSortingLayerUniqueIDFromValueEi
K0i:_AnchorInfo_get_IsComplete_m1247624133
YGd:_Dropdown_Show_m324374589
p9:__ZL27CleanupCoreScriptingClassesv
KQg:__Z68RuntimeInvoker_RuntimeObject_RuntimeObject_DSAParameters_t1872138834PFvvEPK10MethodInfoPvPS4_
ixi:_AudioMixerPlayable_INTERNAL_CALL_CreateAudioMixerPlayableInternal_m3355685531
k6g:__Z101RuntimeInvoker_Void_t1841601450_RuntimeObject_Int32_t2071877448_Single_t2076509932_Single_t2076509932PFvvEPK10MethodInfoPvPS4_
fui:_AnimatorControllerPlayable_PlayInFixedTime_m1932606764_AdjustorThunk
hAd:_RaycastResult_get_isValid_m2482925612
Goc:__Z26AnimationCurve_CUSTOM_InitP12Il2CppObjectP11Il2CppArray
ztk:_glUniform1uiv__wrapper
kGc:__ZNK14b2PolygonShape5CloneEP16b2BlockAllocator
bRj:__ZN6il2cpp2vm10Reflection7IsEventEP12Il2CppObject
vaa:__ZN17PersistentManager26GetStreamNameSpaceInternalEi
hQ:__ZN4FMOD6System11createSoundEPKcjP22FMOD_CREATESOUNDEXINFOPPNS_5SoundE
jAi:_CanvasRenderer_get_cull_m3577089379
ho:FUNCTION_TABLE_iiifiiii
QFg:_Object_Destroy_m4145850038
uMj:__ZN6il2cpp2vm4Type14IsSystemDBNullEPK10Il2CppType
Y7:__ZN9ShaderLab19CommonPropertyNames13StaticCleanupEPv
dqi:_AnimationOffsetPlayable_INTERNAL_CALL_GetRotationInternal_m3411582030
Cba:__Z31scripting_method_get_returntype18ScriptingMethodPtr
eji:_ScrollRect_UpdateBounds_m3266596336
Cxb:__ZN15SerializeTraitsI12LightmapDataE8TransferI24GenerateTypeTreeTransferEEvRS0_RT_
BEd:_ColorBlock_GetHashCode_m649325222
_pk:_glStencilOpSeparate__wrapper
rfc:__ZN4Mesh5SetUvEiPKfjj
dBa:__ZN7Texture13SetAnisoLimitENS_20AnisotropicFilteringE
wBa:__ZN28LightProbeProxyVolumeManager25UpdateSHCoeffsTextureDataER21LightProbeProxyVolume
YWa:__Z18CreateDecompressor15CompressionType18MemLabelIdentifier
_Z:__ZN11AudioModule16SetListenerPauseEb
Wh:_emscripten_glCompressedTexSubImage2D
tRa:__ZN13GfxDeviceGLES22MemoryBarrierImmediateEyN2gl17MemoryBarrierTypeE
Pja:__ZZN18SpriteAtlasManagerC1EvEN46EarlyUpdateSpriteAtlasManagerUpdateRegistrator7ForwardEv
QXj:__ZN6il2cpp6icalls8mscorlib6System4Type18internal_from_nameEP12Il2CppStringbb
Aya:__ZN6prcoreL26RemapGenericFloatToIntegerI18TexFormatARGBFloat17TexFormatARGB8888EEvPKNS_9InnerInfoE
cfc:__Z46GetShaderModelNumericValueFromRequirementsMask18ShaderRequirements
Z2c:_cff_ps_has_glyph_names
akj:_InvokableCall_1__ctor_m2837611051_gshared
w_i:_PatternCompiler_EmitPosition_m3013268572
TSf:_X509SubjectKeyIdentifierExtension__ctor_m1109455121
iJd:_Graphic_CreateColorFromAlpha_m2614574534
nyc:__Z44Register_UnityEngine_GUIStyle_SetDefaultFontv
UUb:__Z18Transfer_BlittableI18StreamedBinaryReadILb1EELb1EiEvRK29SerializationCommandArgumentsR31RuntimeSerializationCommandInfo
BE:__ZN9BlobWrite8TransferI22OffsetPtrArrayTransferIKN4math7_float3EEEEvRT_PKc17TransferMetaFlags
qod:_TripleDES_IsWeakKey_m483013953
SPj:__ZN15dense_hashtableINSt3__24pairIK10KeyWrapperINS1_IPK12PropertyInfoP11Il2CppClassEEEjEES9_17ReflectionMapHashIS8_EN14dense_hash_mapIS9_jSD_NS9_14EqualsComparerINS0_8equal_toIS8_EEEENS0_9allocatorISB_EEE9SelectKeyESI_SK_E12maybe_shrinkEv
dXg:__Z75RuntimeInvoker_RuntimeObject_RuntimeObject_Single_t2076509932_RuntimeObjectPFvvEPK10MethodInfoPvPS4_
nVb:__Z18Transfer_BlittableI18StreamedBinaryReadILb1EELb1EsEvRK29SerializationCommandArgumentsR31RuntimeSerializationCommandInfo
kB:__ZN26AnimatorControllerPlayable17IsMultithreadableEv
K5g:__Z54RuntimeInvoker_Void_t1841601450_ColorBlock_t2652774230PFvvEPK10MethodInfoPvPS4_
Vrd:_Single_System_IConvertible_ToSByte_m3757385387
yHe:_StreamAsyncResult_SetComplete_m2141125667
jBa:__ZL21SetAnisoLimitEnumImplN7Texture20AnisotropicFilteringEb
Lbd:__ZN22BaseUnityConnectClient17OnEnterStateReadyEv
aEa:__ZN14GrowableBufferD2Ev
Znc:__Z29Input_CUSTOM_GetMouseButtonUpi
jIj:__ZN6il2cpp6icalls8mscorlib6System8MonoType16InternalGetEventEP20Il2CppReflectionTypeP12Il2CppStringi
Mkg:_Interlocked_CompareExchange_m3339239614
IYc:_UNITY_tt_face_load_maxp
ioc:__Z46Input_CUSTOM_INTERNAL_set_compositionCursorPosRK13Vector2fIcall
bx:__ZN7mecanim5human12FullBodyMaskEv
w7:__ZN19ShaderPropertySheet11ComputeHashEv
ECj:__ZN30dense_hashtable_const_iteratorI10KeyWrapperIPK19Il2CppGenericMethodES4_N6il2cpp8metadata23Il2CppGenericMethodHashEN14dense_hash_setIS4_S7_NS4_14EqualsComparerINS6_26Il2CppGenericMethodCompareEEENSt3__29allocatorIS4_EEE8IdentityESB_SE_EppEv
NGc:__ZN12b2EPCollider24ComputePolygonSeparationEv
n2:__ZN11UnityEngine15CloudWebService20WebRequestRestClient6IsDoneEv
Qi:_llvm_fabs_f32
FDd:_CanvasScaler_HandleScaleWithScreenSize_m80056230
S1:__ZN11UnityEngine15CloudWebService16SessionContainer16GetJsonDataBlockEjRKN4core12basic_stringIcNS2_20StringStorageDefaultIcEEEERS6_PjSA_
v1f:_SByte_System_IConvertible_ToUInt64_m2174352876_AdjustorThunk
Es:__ZN7mecanim9animation18ClipMuscleConstant8TransferI14SafeBinaryReadEEvRT_
vjg:_UTF7Encoding_InternalGetBytes_m2772055844
e7h:_Dictionary_2_System_Collections_IDictionary_set_Item_m2290664072_gshared
RSg:__Z76RuntimeInvoker_Void_t1841601450_Int64_t909078037_ResourceInfoU26_t3126209420PFvvEPK10MethodInfoPvPS4_
dnf:_SimpleCollator__cctor_m2693747668
Bae:_Decimal_CompareTo_m2454501434_AdjustorThunk
Jaa:__ZN14SafeBinaryReadD2Ev
vpg:_UInt16_System_IConvertible_ToChar_m4055364664
tfj:_Energizer_OnTriggerEnter2D_m3573700544
D6b:__Z13RegisterClassI7TextureEvv
BWb:__ZN8Gradient8TransferI18StreamedBinaryReadILb1EEEEvRT_
Zxc:__Z45Register_UnityEngine_GUIStyle_SetFontInternalv
TXj:__ZN6il2cpp6icalls8mscorlib6System4Type15MakeGenericTypeEP20Il2CppReflectionTypeP11Il2CppArray
oj:_SDL_PauseAudio
IJj:_il2cpp_class_from_type
TRd:_Array_Sort_m2323017822
Ihi:_Scrollbar_UpdateDrag_m3839695926
Qwg:_GUILayoutUtility__cctor_m2957755459
X7:__ZN9ShaderLab19CommonPropertyNames16StaticInitializeEPv
kMe:_MissingMemberException__ctor_m3710131950
AG:__ZN7mecanim9animation18CreateAvatarOutputEPKNS0_14AvatarConstantEbbRNS_6memory9AllocatorE
xyc:__Z45GUIUtility_CUSTOM_Internal_GetKeyboardControlv
mZg:__Z91RuntimeInvoker_Void_t1841601450_RuntimeObject_Int32_t2071877448_RuntimeObject_RuntimeObjectPFvvEPK10MethodInfoPvPS4_
u2f:_CspParameters__ctor_m2546931874
KV:__ZN11AudioSource23VirtualRedirectTransferER24GenerateTypeTreeTransfer
Tfc:__ZN7Texture11SetWrapModeE15TextureWrapMode
CBb:__ZN14Texture2DArray23VirtualRedirectTransferER14SafeBinaryRead
P7a:__ZNK6Camera21CalculateCanDoShadowsEv
mJd:_Graphic__cctor_m1643894470
b5j:__ZN6il2cpp2os6Thread12SetStackSizeEj
aNg:__Z99RuntimeInvoker_Void_t1841601450_Int32_t2071877448_RuntimeObject_Int32_t2071877448_Int32_t2071877448PFvvEPK10MethodInfoPvPS4_
CQf:_X509ChainElementEnumerator_get_Current_m2232618221
bDd:_U3COnFinishSubmitU3Ec__Iterator0_Reset_m2080388334
Mfc:__ZNK8Renderer16IsVisibleInSceneEv
cyi:_Behaviour_get_isActiveAndEnabled_m3838334305
_ii:_ScrollRect_set_onValueChanged_m3957749575
M6:__Z13VFormatBufferPciPKcz
uXb:__Z18Transfer_BlittableI18StreamedBinaryReadILb0EELb1EhEvRK29SerializationCommandArgumentsR31RuntimeSerializationCommandInfo
$wj:_U3CCreateWhereIteratorU3Ec__Iterator1D_1_Dispose_m1879652802_gshared
fLd:_Image_GenerateSimpleSprite_m4275440988
WCi:_Display_get_systemHeight_m3377672024
kqg:_UInt16_ToString_m3280699191
Eya:__ZN6prcoreL27StretchGenericFloatBilinearI15TexFormatRFloatEEvPKNS_9InnerInfoE
roh:__ZL56_PropertyInfo_t1567586598_CustomAttributesCacheGeneratorP21CustomAttributesCache
Hz:__Z24ProcessAnimationMixBeginP35AnimationPlayableEvaluationConstantP32AnimationPlayableEvaluationInputP33AnimationPlayableEvaluationOutput
Hle:_Array_IndexOf_TisCustomAttributeNamedArgument_t94157543_m745056346_gshared
DPa:__Z14PadImageBorderR14ImageReferenceii
vOj:__ZN15dense_hashtableINSt3__24pairIK10KeyWrapperINS1_IPK10MethodInfoP11Il2CppClassEEEjEES9_17ReflectionMapHashIS8_EN14dense_hash_mapIS9_jSD_NS9_14EqualsComparerINS0_8equal_toIS8_EEEENS0_9allocatorISB_EEE9SelectKeyESI_SK_E4findERSA_
L2g:__Z116RuntimeInvoker_Void_t1841601450_Rect_t3681755626_SByte_t454417549_SByte_t454417549_SByte_t454417549_SByte_t454417549PFvvEPK10MethodInfoPvPS4_
wFi:_ArrayReadOnlyList_1_ReadOnlyError_m2289309720_gshared
iA:__ZN27AnimationLayerMixerPlayableD2Ev
xIj:__ZN6il2cpp2vm8basepathEPKc
uAf:_PKCS1_Verify_v15_m478274703
$R:__ZN12AudioManager39HandlePendingAudioConfigurationCallbackEv
kk:_emscripten_glIsFramebuffer
gcc:__ZN12_GLOBAL__N_16qAtan2Eff
p5d:_Convert_ToInt64_m954367741
ok:_JS_Sound_SetLoopPoints
WWd:_ArrayList__ctor_m1467563650
XW:__ZN12AudioManager17ShouldSourcePauseEb
Sck:__ZN6il2cpp2vm26MetadataAllocGenericMethodEv
TTa:__ZN19ConstantBuffersGLES12RecordRenderEv
nBc:__ZN9JSONWrite8TransferI10RectOffsetEEvRT_PKc17TransferMetaFlags
jPa:__ZN4crnd12symbol_codec11decode_bitsEj
OGc:__ZN15b2CircleContact8EvaluateEP10b2ManifoldRK11b2TransformS4_
Wse:_Array_Sort_TisRaycastResult_t21186376_TisRaycastResult_t21186376_m38820193_gshared
Iui:_Animator_ResetTriggerString_m1445965342
IGe:_StreamReader__ctor_m3454466728
dS:__ZN4FMOD6System12createReverbEPPNS_6ReverbE
g4i:_Vector2_get_Item_m2792130561
aA:__ZN7mecanim19ValueArrayBlendNodeILb1EEEvRKNS_10ValueArrayERKNS_14ValueArrayMaskERS1_RS4_RNS_16ValueArrayWeightEf
Nza:__Z16MarkDependenciesR27GarbageCollectorThreadStatej
uSf:_X509ChainElementEnumerator_Reset_m3832280427
mri:_AnimatorControllerPlayable_SetBoolString_m4011560969
sOe:_MulticastDelegate_RemoveImpl_m2024746777
PDd:_CanvasUpdateRegistry_ParentCount_m2367607495
mOe:_MulticastDelegate_Equals_m3064081489
owf:_Activator_CreateInstance_m1465989661
T7:__ZNK9Transform11GetPositionEv
j2i:_PositionAssertion_GetWidth_m2294218483
ZHg:_PlayableHandle_SetPlayStateInternal_m3829195293
Ufj:_U3CAddScoreU3Ec__Iterator2_Reset_m3746258358
T2a:__ZN23SharedMeshRenderingData18UnloadVertexStreamEi
Maj:_Vector4_set_Item_m3077071044
Qcc:__ZN31CanvasBatchIntermediateRenderer11AddSubBatchERK16DrawBuffersRangePK19ShaderPropertySheet
qbc:__ZN19RenderEventsContextC2Ei
e0:__Z6simd4fRKf
ape:_Array_InternalArray__ICollection_CopyTo_TisColor32_t874517518_m379086718_gshared
yli:_Slider_ClampValue_m2851810895
Rk:_emscripten_glEnable
oxg:_GUISkin_set_font_m4009958323
Hlj:_UnityEvent_1_FindMethod_Impl_m3813546_gshared
Ppb:__ZN10TagManager23VirtualRedirectTransferER14SafeBinaryRead
cYc:_UNITY_FT_Init_Class_ft_grays_raster
Hab:__Z15InitLightMeshesv
Qth:__ZL97WaitHandle_t677569169_CustomAttributesCacheGenerator_WaitHandle_t677569169____Handle_PropertyInfoP21CustomAttributesCache
MPe:_KeyValuePair_2_ToString_m1391611625_AdjustorThunk
Gn:FUNCTION_TABLE_iifiii
t4d:_Double_Parse_m1617409931
vwj:_Comparison_1_BeginInvoke_m4056757384_gshared
Gja:__ZN13RuntimeStaticI15ApplicationInfoLb0EE7DestroyEv
pTb:__Z18Transfer_BlittableI19StreamedBinaryWriteILb0EELb1E8Vector2fEvRK29SerializationCommandArgumentsR31RuntimeSerializationCommandInfo
Z0c:_cf2_arrstack_init
Anh:__ZL65ClassInterfaceAttribute_t910653559_CustomAttributesCacheGeneratorP21CustomAttributesCache
JMj:__ZN15dense_hashtableINSt3__24pairIK10KeyWrapperINS1_IPK14Il2CppAssemblyP11Il2CppClassEEEjEES9_17ReflectionMapHashIS8_EN14dense_hash_mapIS9_jSD_NS9_14EqualsComparerINS0_8equal_toIS8_EEEENS0_9allocatorISB_EEE9SelectKeyESI_SK_E15insert_noresizeERKSB_
y6:__Z15CleanLogHandler7LogTypePKcz
u1b:__ZN9ShaderLab19SerializedSubShader8TransferI19StreamedBinaryWriteILb0EEEEvRT_
ajg:_UTF32Encoding_GetBytes_m2290150495
ZJb:__ZN6Camera17RemoveImageFilterERK11ImageFilter
RQa:__ZNSt3__218__insertion_sort_3IR25ValueParameterArraySorterPN20GpuProgramParameters14ValueParameterEEEvT0_S6_T_
uLc:__ZN10ClipperLib7Clipper27ProcessEdgesAtTopOfScanbeamEx
wei:_LayoutUtility_GetLayoutProperty_m4052007472
ekj:_InvokableCall_1_Invoke_m3239892614_gshared
A2a:__ZNSt3__214__split_bufferI20ComputeShaderVariantRNS_9allocatorIS1_EEED2Ev
HTc:__ZNSt3__26vectorIN4core12basic_stringIcNS1_20StringStorageDefaultIcEEEE13stl_allocatorIS5_L18MemLabelIdentifier34ELi16EEE7reserveEj
WEf:_Context_set_WriteSequenceNumber_m3356252710
O8c:__ZN2UI26InitializeDeviceForOverlayEi
RAe:_Guid_Equals_m2389236871
m8:__Z27LogRepeatingStringWithFlagsRKN4core12basic_stringIcNS_20StringStorageDefaultIcEEEE15LogMessageFlagsi
MSe:_Enumerator_MoveNext_m3483405135_gshared
Mfj:_GameGUINavigation_Md5Sum_m912557190
Cx:__ZN17AnimationPlayable28ComputeNeedsBindingRebuildedEv
RTe:_List_1_CheckIndex_m3609163576_gshared
LHb:__ZN15ResourceManagerD0Ev
cQf:_X509ExtensionCollection__ctor_m1324282194
Tdd:__ZN18UnityConnectClient33OnPlayerSessionStateChangedStaticEPS_jyy
Fjh:__ZL74CaseInsensitiveHashCodeProvider_t2307530285_CustomAttributesCacheGeneratorP21CustomAttributesCache
X2:__ZNK11UnityEngine15CloudWebService23WebRequestUploadHandler11GetProgressEv
CMa:__ZN7ApiGLES4LoadE16GfxDeviceLevelGL
Pxb:__ZN18StreamedBinaryReadILb0EE21TransferSTLStyleArrayI13dynamic_arrayI31EnlightenSystemAtlasInformationLj8EEEEvRT_17TransferMetaFlags
cPa:__ZN4crnd12crn_unpacker22decode_color_endpointsEv
_$j:__ZN15dense_hashtableI10KeyWrapperIP18Il2CppGenericClassES3_N6il2cpp8metadata22Il2CppGenericClassHashEN14dense_hash_setIS3_S6_NS3_14EqualsComparerINS5_25Il2CppGenericClassCompareEEENSt3__29allocatorIS3_EEE8IdentityESA_SD_E15insert_noresizeERKS3_
vgf:_ReadOnlyCollection_1_System_Collections_IList_Clear_m3006875897_gshared
xac:__ZZL31RegisterOtherRendererPropertiesR22GenericPropertyBindingEN30Wrapper_RendererReceiveShadows13GetFloatValueEPv
cTe:_Enumerator_System_Collections_IEnumerator_get_Current_m3866069145_gshared
Coa:__ZN8Material11SetPassFastEPN9ShaderLab4PassER17ShaderPassContextP6Shaderib
Rdd:__ZN11UnityEngine7Connect20BasePersistentValues10SaveValuesER9JSONWrite
aKg:_Rect_get_max_m96665935_AdjustorThunk
Qyd:_ExecuteEvents_get_pointerDownHandler_m1172742772
S3e:_Enumerator_System_Collections_IEnumerator_Reset_m2108388167_AdjustorThunk
YOc:__ZNSt3__27__sort4IR24RayHitsByDepthComparitorP12RaycastHit2DEEjT0_S5_S5_S5_T_
Ggc:__Z14ScaleCurveTimeR17AnimationCurveTplIfEf
RRf:_X509CertificateEnumerator_System_Collections_IEnumerator_MoveNext_m3708362145
L4a:__Z12SetupLODFadeR9GfxDeviceR17ShaderPassContextf
yub:__ZNK14PlayableOutput7GetTypeEv
sOc:__ZN26b2PolygonAndCapsuleContact6CreateEP9b2FixtureiS1_iP16b2BlockAllocator
pQg:__Z203RuntimeInvoker_Boolean_t3825574718_RuntimeObject_Int32U26_t455636984_Int32_t2071877448_Int32_t2071877448_RuntimeObject_SByte_t454417549_Int32_t2071877448_ContractionU26_t2019974048_ContextU26_t3131521781PFvvEPK10MethodInfoPvPS4_
uab:__ZL24CollectForwardObjectsJobP27CollectForwardObjectsHeader
V$h:_Enumerator_System_Collections_IDictionaryEnumerator_get_Entry_m345330700_gshared
heb:__ZNK25CameraStackRenderingState24ResolveTempToEyeTexturesEv
lcb:__Z13IsNodeVisibleRK9SceneNodeRK4AABBRK22SceneCullingParameters
Kad:__Z57RectTransformUtility_CUSTOM_INTERNAL_CALL_PixelAdjustRectP12Il2CppObjectS0_R5RectTIfE
TZf:_DelayedFixupRecord_FixupImpl_m4249966635
vvk:_emscripten_glStencilMask__wrapper
uCj:__ZN15dense_hashtableI10KeyWrapperIPK19Il2CppGenericMethodES4_N6il2cpp8metadata23Il2CppGenericMethodHashEN14dense_hash_setIS4_S7_NS4_14EqualsComparerINS6_26Il2CppGenericMethodCompareEEENSt3__29allocatorIS4_EEE8IdentityESB_SE_EC2ERKSH_j
Pof:_BigInteger_ToString_m3837784224
zae:_Decimal_decimalCompare_m26009298
DSc:__ZN16NovodexAllocator8allocateEjPKcS1_i
U9a:__Z17PrepareShadowMapsRK11CullResultsRK11ActiveLightRK10MinMaxAABB
ykg:_NativeEventCalls_CreateEvent_internal_m1605829321
$Ph:__ZL73RuntimePlatform_t1869584967_CustomAttributesCacheGenerator_MetroPlayerX64P21CustomAttributesCache
gLi:_InternalEnumerator_1_System_Collections_IEnumerator_get_Current_m3239681450_AdjustorThunk
rab:__ZN9ShaderLab10GrabPassesD2Ev
fEg:_MonoBehaviour_set_useGUILayout_m2666356651
NBb:__ZN14Texture2DArray13UploadTextureEv
q_c:_tt_cmap14_done
EAa:__ZN18AwakeFromLoadQueue25RegisterObjectInstanceIDsEv
nUd:_Buffer_BlockCopy_m1586717258
Aqh:__ZL93X509Certificate_t283079845_CustomAttributesCacheGenerator_X509Certificate_GetName_m2354987368P21CustomAttributesCache
mA:__ZNK27AnimationLayerMixerPlayable11DerivesFromE17ScriptingClassPtr
BUc:__ZN20TextRenderingPrivate19NativeTextGenerator15InsertCharacterEiPj
GWj:__ZNSt3__26vectorIN6il2cpp2vm22EmbeddedResourceRecordENS_9allocatorIS3_EEE21__push_back_slow_pathIS3_EEvOT_
vfe:_CompareInfo_GetSortKey_m3691382873
IIc:__ZN11b2RopeJoint24SolveVelocityConstraintsERK12b2SolverData
v9d:_DBNull_ToString_m3228904745
hOf:_WebHeaderCollection_AddWithoutValidate_m1479880592
LAf:_RC4_get_IV_m506011366
yej:_X509Crl__ctor_m2469408229
g0h:_Enumerator_get_CurrentValue_m3562053380_AdjustorThunk
ZSf:_X509SubjectKeyIdentifierExtension_CopyFrom_m136762226
$pi:_AnimationOffsetPlayable_INTERNAL_CALL_SetPositionInternal_m3711322547
$Qe:_Enumerator_System_Collections_IEnumerator_Reset_m610822832_AdjustorThunk
zpc:__Z41MonoBehaviour_Set_Custom_PropUseGUILayoutP12Il2CppObjecth
vVc:_UNITY_FT_Open_Face
nrk:_glGenRenderbuffers__wrapper
Dyi:_Bounds_ToString_m1966597703
Kpf:_BigInteger_op_Division_m1581119694
zZb:__ZN16ScriptingManagerD0Ev
e$f:_CallbackHandler_Invoke_m1498072969
$2f:_DSACryptoServiceProvider__ctor_m701823690
Gwg:_Mathf_Clamp_m2354025655
v5f:_CustomAttributeData_GetCustomAttributes_m2421330738
O_j:__ZN30dense_hashtable_const_iteratorINSt3__24pairIK10KeyWrapperINS1_IPKcS4_EEEiEES6_24NamespaceAndNamePairHashN14dense_hash_mapIS6_iS9_NS6_14EqualsComparerI26NamespaceAndNamePairEqualsEENS0_9allocatorIS8_EEE9SelectKeyESD_SF_EppEv
cog:_Type_get_IsEnum_m313908919
Xlc:__Z44Register_UnityEngine_Component_get_transformv
gnc:__Z39GameObject_CUSTOM_FindGameObjectWithTagP12Il2CppString
R8e:_Collection_1_System_Collections_ICollection_CopyTo_m1335644572_gshared
FF:__ZN12_GLOBAL__N_120ProcessPlayableGraphERN8Animator11AnimatorJobER35AnimationPlayableEvaluationConstantR32AnimationPlayableEvaluationInputR33AnimationPlayableEvaluationOutputPFvS4_R17AnimationPlayableEPFvS4_S6_S8_EPFvS8_S4_S6_S8_fESE_MS9_FvPS3_PS5_PS7_E
q_e:_List_1_CheckMatch_m2830747427_gshared
RWa:__ZN17ArchiveFileSystem12MountArchiveEPKcS1_
tAc:__Z18Transfer_BlittableI9JSONWriteLb1E8Vector4fEvRK29SerializationCommandArgumentsR31RuntimeSerializationCommandInfo
Bn:FUNCTION_TABLE_viififiii
d7c:__ZN2UI13CanvasManagerD0Ev
Q0h:_Enumerator_System_Collections_IEnumerator_Reset_m70453843_gshared
tyb:__ZThn32_NK8Renderer14GetSubsetIndexEi
WSg:__Z58RuntimeInvoker_Byte_t3683104436_IntPtr_t_Int32_t2071877448PFvvEPK10MethodInfoPvPS4_
gue:_Dictionary_2_Do_CopyTo_TisKeyValuePair_2_t1174980068_TisRuntimeObject_m3279061992_gshared
caj:_Vector3_get_Item_m3616014016
h9b:__ZN13ProduceHelperI15ResourceManagerLb0EE7ProduceE18MemLabelIdentifier18ObjectCreationMode
dKa:__ZN9GfxDevice15ImmediateVertexEfff
k6b:__Z13RegisterClassI8MaterialEvv
_wb:__ZNK16LightmapSettings22GetTypeVirtualInternalEv
Bee:_FieldAccessException__ctor_m3893881490
MHa:__ZN13GfxDeviceGLES15SetStencilStateEPK18DeviceStencilStatei
A_g:__Z107RuntimeInvoker_Void_t1841601450_Single_t2076509932_Single_t2076509932_Single_t2076509932_Single_t2076509932PFvvEPK10MethodInfoPvPS4_
vhk:_cycle
m7i:_TextGenerator_Populate_m4139823822
Rd:_emscripten_glUniform1iv
Vmi:_Text_get_preferredHeight_m452532789
ZNc:__ZN15b2DistanceProxy3SetEPK7b2Shapei
Psd:_String_System_IConvertible_ToDouble_m3860911722
ilb:__ZN16MemoryFileSystemD2Ev
yPi:_InternalEnumerator_1_get_Current_m3732458101_AdjustorThunk
dzf:_ARC4Managed__ctor_m2922048522
MUc:__Z17dynamic_pptr_castIP9Texture2D7TextureET_RK4PPtrIT0_E
Mhf:_ReadOnlyCollection_1_System_Collections_IList_set_Item_m1272038804_gshared
AGi:_InternalEnumerator_1_System_Collections_IEnumerator_get_Current_m1931522460_AdjustorThunk
rpd:_SecurityPermission_IsEmpty_m1869313067
egj:_GameManager_get_instance_m4247018130
Blc:__Z37Register_UnityEngine_Camera_get_depthv
Xsf:_EncryptedPrivateKeyInfo_get_Salt_m2734354394
Ijf:_ReadOnlyCollection_1_System_Collections_Generic_IListU3CTU3E_set_Item_m1918537449_gshared
t7e:_Collection_1_System_Collections_ICollection_CopyTo_m3896480607_gshared
uzd:_PointerEventData_set_position_m794507622
fja:__ZN15dense_hashtableINSt3__24pairIKPKcPK4RTTIEES3_N11TypeManager23ConstCharPtrHashFunctorEN14dense_hash_mapIS3_S7_SA_NS9_19ConstCharPtrEqualToE13stl_allocatorIS8_L18MemLabelIdentifier6ELi16EEE9SelectKeyESC_SF_E12resize_deltaEjj
Gkb:__Z23ConvertIntegerToTypePtrItEbPvR14SafeBinaryRead
gG:__ZN7mecanim5human29HumanGetGoalOrientationOffsetENS0_4GoalE
SLb:__ZNK11MonoManager22GetTypeVirtualInternalEv
MYd:_SynchronizedArrayListWrapper_get_Capacity_m2541698837
xeg:_MonoMethod_MakeGenericMethod_impl_m2063853616
ird:__Z46il2cpp_codegen_get_marshal_directive_exceptionPKc
y2b:__ZN9ShaderLab20SerializedSubProgram14AddMatrixParamEPKcii15ShaderParamTypei
me:_glGetActiveUniformBlockName
VM:__ZN26AnimatorControllerPlayable23ValidateParameterStringE17GetSetValueResultRKN4core12basic_stringIcNS1_20StringStorageDefaultIcEEEE
ZAe:_Guid_AppendByte_m2890893073
zVd:_Char_System_IConvertible_ToType_m3106771703_AdjustorThunk
aVf:_Interval_Intersects_m3480157390_AdjustorThunk
Boc:__Z39Quaternion_CUSTOM_INTERNAL_CALL_InverseRK11QuaternionfRS_
bUi:_GCHandle_Alloc_m1063472408
XS:__ZN4FMOD7Channel20set3DConeOrientationEP11FMOD_VECTOR
sn:FUNCTION_TABLE_iiifii
h2f:_CryptoConfig_CreateFromName_m391442950
c2j:__ZN6il2cpp2vm12GenericClass11SetupEventsEP11Il2CppClass
y4c:_tt_delta_interpolate
j_c:_tt_cmap12_get_info
y0d:_SortedList__ctor_m3698381356
Xti:_AnimatorControllerPlayable_PlayInFixedTimeInternal_m3876843019
FZj:__ZN6il2cpp2vm15ReboxIReferenceEP14Il2CppIUnknownP11Il2CppClass
jKe:_StreamWriter_LowLevelWrite_m4205372900
Jxj:__ZN6il2cpp6icalls8mscorlib6System7Decimal14decimalCompareEP19il2cpp_decimal_reprS5_
f8j:__ZThn4_N6il2cpp2vm13CachedCCWBaseINS0_13ManagedObjectEE7ReleaseEv
c_d:_CollectionBase_System_Collections_IList_get_Item_m2370387510
Lse:_Array_Sort_TisCustomAttributeNamedArgument_t94157543_m3436077809_gshared
Bsk:_glCopyTexImage2D__wrapper
I4i:_ResourceRequest__ctor_m3340010930
KOd:_LayoutElement__ctor_m789941073
Wyi:_Camera_FireOnPreCull_m1679634170
fye:_NumberFormatter_CountTrailingZeros_m2398864634
cwa:__Z18ClearByDrawingQuad13GfxClearFlagsRK10ColorRGBAffjR17ShaderPassContext
OWi:_DynamicPropertyCollection_FindProperty_m1233265924
bya:__ZN6prcoreL17RemapGenericFloatI14TexFormatRHalf15TexFormatRFloatEEvPKNS_9InnerInfoE
z4a:__Z16ShouldUseShadowsb
Cha:__ZN15DirectorManager21RebuildStageCallbacksEv
cza:__ZN19RuntimeSceneManager9LoadSceneERKN4core12basic_stringIcNS0_20StringStorageDefaultIcEEEES6_S6_RK9UnityGUIDiNS_11LoadingModeE
UPa:__ZN7ApiGLES10DrawArraysE16GfxPrimitiveTypejjj
IDi:_Event_PopEvent_m1952528237
Cri:_AnimatorControllerPlayable_SetIntegerString_m3665225671
KQ:__ZN10SampleClip13LoadBaseSoundEv
R3g:__Z93RuntimeInvoker_Vector2_t2243707579_Vector2_t2243707579_Vector2_t2243707579_Single_t2076509932PFvvEPK10MethodInfoPvPS4_
Gv:__ZN7mecanim9animation4Clip8TransferI19StreamedBinaryWriteILb0EEEEvRT_
f1j:__ZN15dense_hashtableINSt3__24pairIK10KeyWrapperIP12Il2CppObjectEN6il2cpp2gc9CachedCCWEEES5_NS7_5utils11PointerHashIS3_EEN14dense_hash_mapIS5_S9_SD_NS5_14EqualsComparerINS0_8equal_toIS4_EEEENS0_9allocatorISA_EEE9SelectKeyESI_SK_E15insert_noresizeERKSA_
$bf:_Collection_1_Contains_m643401393_gshared
bwa:__ZN22DeviceMVPMatricesStateC2ER9GfxDevice
Hsd:_String__ctor_m372528291
an:FUNCTION_TABLE_iifii
uN:__Z64AnimationOffsetPlayable_CUSTOM_INTERNAL_CALL_SetRotationInternalR9HPlayableRK11Quaternionf
dAb:__ZNSt3__26vectorI13dynamic_arrayI8Vector2fLj4EENS_9allocatorIS3_EEE6assignINS_11__wrap_iterIPS3_EEEENS_9enable_ifIXaasr21__is_forward_iteratorIT_EE5valuesr16is_constructibleIS3_NS_15iterator_traitsISC_E9referenceEEE5valueEvE4typeESC_SC_
Qgg:_Encoding_SetFallbackInternal_m1682842442
qTj:__ZN6il2cpp2vm10Reflection12HasAttributeEP9FieldInfoP11Il2CppClass
Sqi:_AnimatorControllerPlayable_GetFloat_m1229536053_AdjustorThunk
nAa:__ZNSt3__26__treeIiNS_4lessIiEE13stl_allocatorIiL18MemLabelIdentifier1ELi16EEE7destroyEPNS_11__tree_nodeIiPvEE
uc:invoke_viiifi
hNe:_LongComparer_Compare_m3981323622
Rci:_EqualityComparer_1__cctor_m3033994022_gshared
uFa:__ZNK11AssetBundle14GetPreloadDataEiR13dynamic_arrayIiLj4EE
duf:_EncryptedData_get_EncryptedContent_m2732115576
wf:_JS_Sound_SetPosition
M$i:_Assertion_set_FalseExpression_m1781616372
VSf:_X509SubjectKeyIdentifierExtension_FromHexChars_m2515150420
epa:__ZN19RenderBufferManager13GetTempBufferEii17DepthBufferFormat19RenderTextureFormatj22RenderTextureReadWrite14VRTextureUsagei23RenderTextureMemoryless
iFj:__ZL13GetSharedInstPK17Il2CppGenericInst
rih:__ZL51IReflect_t3412036974_CustomAttributesCacheGeneratorP21CustomAttributesCache
uBd:_StandaloneInputModule_SendSubmitEventToSelectedObject_m3421155293
oBi:_Component_GetComponentsInChildren_m908027537
Ybd:__ZN22BaseUnityConnectClient17SaveSessionValuesEv
BYi:_CallContextRemotingData_Clone_m2226242476
jaa:__Z63ThreadAndSerializationSafeCheckSetMonoBehaviourBeingTransferredP13MonoBehaviour
xab:__Z24SetupActiveLightsContextR21ActiveLightingContextRK12ActiveLightsRK11CullResultsP14ShadowMapCacheRK10MinMaxAABB
prc:__Z38Sprite_CUSTOM_INTERNAL_get_textureRectP12Il2CppObjectP5RectTIfE
r9d:_DBNull_System_IConvertible_ToUInt32_m2681284284
cSj:__ZNK15dense_hashtableINSt3__24pairIK10KeyWrapperIPK22Il2CppGenericParameterEPK24MonoGenericParameterInfoEES6_N6il2cpp5utils11PointerHashIS4_EEN14dense_hash_mapIS6_SA_SF_NS6_14EqualsComparerINS0_8equal_toIS5_EEEENS0_9allocatorISB_EEE9SelectKeyESK_SM_E3endEv
Rdc:__ZN9TextAsset7SetTextERKN4core12basic_stringIcNS0_20StringStorageDefaultIcEEEE
erb:__ZN6Camera8TransferI24GenerateTypeTreeTransferEEvRT_
Idi:_EqualityComparer_1__cctor_m416314417_gshared
Ka:invoke_iiiiiiif
Fa:invoke_iiiiiiii
tDg:_Mesh_GetUVChannel_m364477864
mRf:_X509ChainElementCollection_Contains_m3599995067
Tdb:__ZN8Renderer17PendingAddToSceneEv
cwk:b123
bwk:b122
msi:_AnimatorControllerPlayable_GetLayerName_m1429074517_AdjustorThunk
dwk:b124
gwk:b127
fwk:b126
iwk:b129
Dqc:__Z52Register_UnityEngine_RectTransform_INTERNAL_get_rectv
d9:__Z21PostprocessStacktracePKcRN4core12basic_stringIcNS1_20StringStorageDefaultIcEEEE
Xnh:__ZL70TypeLibImportClassAttribute_t2390314680_CustomAttributesCacheGeneratorP21CustomAttributesCache
CHb:__ZN18StreamedBinaryReadILb0EE21TransferSTLStyleArrayI13dynamic_arrayI16SplashScreenLogoLj4EEEEvRT_17TransferMetaFlags
hie:_Array_InternalArray__ICollection_Remove_TisX509ChainStatus_t4278378721_m4127982424_gshared
Llc:__Z47Register_UnityEngine_Camera_get_allCamerasCountv
Rld:___clang_call_terminate
$bd:__ZN22BaseUnityConnectClient20StartEventDispatcherEv
Afc:__ZNSt3__26vectorIj13stl_allocatorIjL18MemLabelIdentifier1ELi16EEE6assignIPKtEENS_9enable_ifIXaasr21__is_forward_iteratorIT_EE5valuesr16is_constructibleIjNS_15iterator_traitsIS9_E9referenceEEE5valueEvE4typeES9_S9_
XE:__ZN7mecanim9animation16EvaluateAvatarIKEPKNS0_14AvatarConstantEPKNS0_11AvatarInputEPNS0_12AvatarOutputEPNS0_12AvatarMemoryEPNS0_15AvatarWorkspaceEb
EB:__ZN26AnimatorControllerPlayable10GetIntegerEiRi
CHg:_PlayableGraph_INTERNAL_CALL_CreateScriptOutputInternal_m348659249
h0a:__ZN12InputManager13InputEndFrameEv
d0d:_SyncHashtable__ctor_m2029869827
oVj:__ZN6il2cpp2vm6Thread5SetupEP12Il2CppThread
Xkf:_ReadOnlyCollection_1_System_Collections_IList_Remove_m2200089035_gshared
o7e:_Collection_1_CheckWritable_m2756357359_gshared
Cik:___munmap
dMd:_InputField_get_characterLimit_m2386380888
WUh:__ZL68ColorBlock_t2652774230_CustomAttributesCacheGenerator_m_PressedColorP21CustomAttributesCache
b5d:_Convert_ToInt64_m1722087499
mg:_localtime_r
LHg:_PlayableHandle_GetInputCount_m3249715311
VX:__ZN4FMOD5Sound11getDefaultsEPfS1_S1_Pi
Jnh:__ZL65InterfaceTypeAttribute_t4113096249_CustomAttributesCacheGeneratorP21CustomAttributesCache
og:_strftime
opa:__ZN7Texture33SetStoredColorSpaceNoDirtyNoApplyE17TextureColorSpace
yda:__ZN12FileAccessorD2Ev
qCb:__ZN14VertexDataInfoC2Ev
wee:_Exception_GetObjectData_m2653827630
jaj:_Vector3_Equals_m2692262876_AdjustorThunk
RJi:_InternalEnumerator_1_get_Current_m2415979394_gshared
_Vb:__ZL17Transfer_GUIStyleI18StreamedBinaryReadILb1EELb1EEvRK29SerializationCommandArgumentsR31RuntimeSerializationCommandInfo
Kii:_ScrollRect_SetDirtyCaching_m1491302821
PHg:_PlayableHandle_SetInputCount_m2001045454
$Hj:__ZN6il2cpp6icalls8mscorlib6SystemL9IsPrivateEPK12PropertyInfo
iWg:__Z72RuntimeInvoker_DateTime_t693205669_DateTime_t693205669_Int32_t2071877448PFvvEPK10MethodInfoPvPS4_
x5f:_CustomAttributeData_GetCustomAttributes_m3258419955
h8:__ZN9shadertag10InitializeEv
N4a:__ZN13BatchRenderer20RenderSingleWithPassER17ShaderPassContextPK18SharedMaterialDataP6ShaderPN9ShaderLab4PassEiPKNS7_10GrabPassesEjib15BatchBreakCause
Dzb:__ZN15QualitySettings14QualitySetting8TransferI24GenerateTypeTreeTransferEEvRT_
Ooe:_Array_InternalArray__ICollection_CopyTo_TisParameterModifier_t1820634920_m4127516211_gshared
tvd:_DecoderReplacementFallback__ctor_m2344783488
A3f:_OutOfMemoryException__ctor_m239206850
yId:_GraphicRegistry_UnregisterGraphicForCanvas_m820096873
C5c:__Z28Font_Get_Custom_PropMaterialP12Il2CppObject
Rbk:__ZN6il2cpp6icalls8mscorlib6System9Threading16NativeEventCalls19ResetEvent_internalE12Il2CppIntPtr
kZg:__Z88RuntimeInvoker_RuntimeObject_RuntimeObject_RuntimeObject_RuntimeObject_Int32_t2071877448PFvvEPK10MethodInfoPvPS4_
o9e:_Collection_1_Remove_m4136193368_gshared
iyd:_EventTrigger_OnPointerUp_m2791622548
Tki:_Shadow_set_useGraphicAlpha_m141905402
Mec:__ZN22BlockMemoryCacheWriter14LockCacheBlockEjPPhS1_
QDc:__Z22TransferField_NonArrayI8JSONRead27Converter_SimpleNativeClassI8GUIStyleEEvRK23StaticTransferFieldInfoR31RuntimeSerializationCommandInfoRT0_
xcc:__Z13RegisterClassI10GameObjectEvv
BDj:__ZNK15dense_hashtableINSt3__24pairIK10KeyWrapperIN6il2cpp5utils13dynamic_arrayIPK10Il2CppTypeLj4EEEEPFvvEEESA_NS3_8metadata19Il2CppSignatureHashEN14dense_hash_mapISA_SD_SG_NSA_14EqualsComparerINSF_22Il2CppSignatureCompareEEENS0_9allocatorISE_EEE9SelectKeyESK_SM_E5beginEv
Vjh:__ZL53HashValues_t2390200547_CustomAttributesCacheGeneratorP21CustomAttributesCache
YPf:_X509BasicConstraintsExtension_get_PathLengthConstraint_m3004531343
Tri:_AnimatorControllerPlayable_INTERNAL_CALL_ResetTriggerString_m2112584758
JC:__ZNK23AnimationPlayableOutput7GetTypeEv
W5g:__Z69RuntimeInvoker_TextGenerationSettings_t2543476768_Vector2_t2243707579PFvvEPK10MethodInfoPvPS4_
qMe:_MissingMemberException__ctor_m4277447068
HUe:_List_1_Find_m1881447651_gshared
Ofg:_StrongNameKeyPair_System_Runtime_Serialization_ISerializable_GetObjectData_m1693082120
VXb:__Z18Transfer_BlittableI18StreamedBinaryReadILb0EELb1E8Vector4fEvRK29SerializationCommandArgumentsR31RuntimeSerializationCommandInfo
B3j:__ZN6il2cpp2vm6Method8GetParamEPK10MethodInfoj
UDe:_Int64_CompareTo_m1953686218
IYj:__ZN6il2cpp6icalls8mscorlib6System2IO6MonoIO4ReadE12Il2CppIntPtrP11Il2CppArrayiiPi
Xuk:_glBindVertexArray__wrapper
X2f:_DSA_Create_m3450041777
Wta:__ZN8Material8TransferI14SafeBinaryReadEEvRT_
HCi:_Debug_LogWarningFormat_m79553173
ovb:__ZN12CubemapArray17UploadToGfxDeviceEv
kji:_ScrollRect_AdjustBounds_m1033723448
oya:__ZN6prcoreL17RemapGenericFloatI15TexFormatRGHalf17TexFormatRGBAHalfEEvPKNS_9InnerInfoE
_Re:_Enumerator_System_Collections_IEnumerator_Reset_m2200349770_gshared
jfa:__ZN13RuntimeStaticI21AssetReferenceStorageLb0EE16StaticInitializeEPv
KQf:_X509Chain_CheckRevocationOnChain_m2441901351
_7j:__ZN6il2cpp2vm13ManagedObject14QueryInterfaceERK10Il2CppGuidPPv
Hog:_Type_GetMethod_m3650909507
eR:__ZN11AudioSource4StopEb
bhk:_frexp
UOb:__ZN14SafeBinaryRead21TransferSTLStyleArrayI13dynamic_arrayI10Matrix4x4fLj4EEEEvRT_17TransferMetaFlags
adf:_Collection_1_CheckWritable_m732350052_gshared
AUd:_Byte_System_IConvertible_ToDecimal_m1036493607
ioa:__Z25GetSplashScreenBackgroundRK5RectTIfE
eja:__ZN14dense_hash_mapIPKcPK4RTTIN11TypeManager23ConstCharPtrHashFunctorENS5_19ConstCharPtrEqualToE13stl_allocatorINSt3__24pairIKS1_S4_EEL18MemLabelIdentifier6ELi16EEEixERSB_
Zed:__ZN13RuntimeStaticI19UnityConnectServiceLb0EE16StaticInitializeEPv
kRi:_DefaultComparer_Compare_m1247109616_gshared
bgg:_ResourceManager__ctor_m498829021
BUa:__ZN18GlslGpuProgramGLESD2Ev
_hb:__ZN13RenderTexture14SetVolumeDepthEi
E8g:__Z88RuntimeInvoker_Int32_t2071877448_UIVertex_t1204258818_UIVertex_t1204258818_RuntimeObjectPFvvEPK10MethodInfoPvPS4_
f$f:_SerializationCallbacks__ctor_m722356782
uEc:__ZN10Matrix4x4f8TransferI8JSONReadEEvRT_
BNc:__ZThn4_N16PhysicsManager2D9PostSolveEP9b2ContactPK16b2ContactImpulse
Z9:__ZN17PersistentManager18ReadObjectThreadedEi
RLa:__ZN25TransformFeedbackSkinning31CleanupTransformFeedbackShadersEv
t8j:__ZN6il2cpp6icalls8mscorlib6System7Runtime16CompilerServices14RuntimeHelpers15InitializeArrayEP11Il2CppArray12Il2CppIntPtr
Q3a:__Z22scripting_object_unbox18ScriptingObjectPtr
DUc:__ZNK20TextRenderingPrivate8FontImpl19GetCharacterAdvanceEjijfPj
eek:__ZN6il2cpp6icalls8mscorlib4Mono8Security12Cryptography18KeyPairPersistence16_IsUserProtectedEP12Il2CppString
kMf:_DefaultUriParser__ctor_m4218024811
X6f:_DerivedType_GetField_m3960169619
U9d:_Decimal_System_IConvertible_ToInt16_m3159038792_AdjustorThunk
IAb:__ZN10VertexData8TransferI18StreamedBinaryReadILb0EEEEvRT_
Iuf:_PKCS12_GetExistingParameters_m2413397265
fxj:_Nullable_1_get_Value_m1743067844_gshared
kib:__ZN14PreloadManager16UpdatePreloadingEv
bsk:_emscripten_glGenVertexArrays__wrapper
v5j:__ZN14dense_hash_mapI10KeyWrapperIPK19Il2CppGenericMethodEP10MethodInfoN6il2cpp8metadata23Il2CppGenericMethodHashENS4_14EqualsComparerINS8_26Il2CppGenericMethodCompareEEENSt3__29allocatorINSD_4pairIKS4_S6_EEEEEC2EjRKS9_RKSC_
pnb:__ZNK21UnityDefaultAllocatorI17LowLevelAllocatorE8ContainsEPKv
_h:_emscripten_get_main_loop_timing
oGe:_DirectoryInfo__ctor_m3750996792
NCd:_BaseMeshEffect_ModifyMesh_m2134816219
Czb:__ZN24GenerateTypeTreeTransfer21TransferSTLStyleArrayINSt3__26vectorIN15QualitySettings14QualitySettingENS1_9allocatorIS4_EEEEEEvRT_17TransferMetaFlags
Uve:_Array_InternalArray__get_Item_TisAnimatorClipInfo_t3905751349_m2163447872_gshared
WFb:__ZNSt3__26vectorI9InputAxisNS_9allocatorIS1_EEE6resizeEj
U4a:__ZN13BatchRendererC2ER15RenderLoopStatsRK15RenderNodeQueuebbb
ypd:_SecurityElement_IsValidAttributeValue_m483287146
E3b:__ZNK2UI13RectTransform22GetTypeVirtualInternalEv
auh:__ZL56AppDomainSetup_t611332832_CustomAttributesCacheGeneratorP21CustomAttributesCache
tp:getTempRet0
nLd:_Image_AddQuad_m1603575622
GAf:_PrivateKeyInfo_RemoveLeadingZero_m3396807048
jWj:__ZN6il2cpp6icalls8mscorlib6System9ThreadingL21lookup_cached_cultureEP12Il2CppThreadi
ubb:__ZN18DeferredRenderLoopD2Ev
Hqa:__ZNK16TypeTreeIterator4NameEv
Yca:__ZN15FileSystemEntry3SetEPKc
rKj:_il2cpp_method_has_attribute
Ojd:_MACTripleDES__ctor_m884945242
GS:__ZN20SoundChannelInstance15ParameterBuffer5ApplyEPN4FMOD7ChannelE
AUc:__ZN20TextRenderingPrivate19NativeTextGenerator9InsertTabEv
Wvg:_Rect_set_y_m4294916608
mcd:__ZN11UnityEngine15PlatformWrapper24GetRuntimePlatformStringEv
Ji:_glIsEnabled
EKb:__Z25scripting_class_get_image17ScriptingClassPtr
Mi:_emscripten_glDrawElementsInstanced
AB:__ZN26AnimatorControllerPlayable27SetupStateMachineBehavioursEv
gzf:_ARC4Managed_Dispose_m4102232694
Azf:_HMAC_Initialize_m3052649104
rEa:__ZN18JobBatchDispatcherD2Ev
z3b:__ZN9Transform17MainThreadCleanupEv
Dak:_GC_clear_hdr_marks
Xpk:_glScissor__wrapper
Nvk:_emscripten_glCreateShader__wrapper
B0c:_cff_fd_select_get
onh:__ZL73CompilationRelaxationsAttribute_t238494011_CustomAttributesCacheGeneratorP21CustomAttributesCache
VK:__Z13RegisterClassI18AnimatorControllerEvv
Bnd:_SHA512Managed_processBlock_m3220567420
zLf:_NameObjectCollectionBase_get_Keys_m446053925
Wi:_emscripten_glGetShaderiv
IT:__ZN4FMOD6System10getVersionEPj
PGe:_FileLoadException_GetObjectData_m2047020314
yme:_Array_InternalArray__IndexOf_TisSByte_t454417549_m1427585061_gshared
j6c:__ZN2UI6Canvas23VirtualRedirectTransferER24GenerateTypeTreeTransfer
j2d:_Decimal_u64_m3991988111
Gij:_Predicate_1_BeginInvoke_m2959352225_gshared
V9h:_Dictionary_2_CopyToCheck_m2147716750_gshared
Gcj:_X509Certificate_Parse_m1764345628
iTc:__ZN13TextRendering4Font13AwakeFromLoadE17AwakeFromLoadMode
MIa:__ZN9GfxDevice21ReleaseSharedMeshDataEP14SharedMeshData
LGb:__ZNSt3__27__sort5IRNS_6__lessINS_4pairIPKN5Unity4TypeE7Hash128EES8_EEPS8_EEjT0_SC_SC_SC_SC_T_
haf:_Collection_1_ConvertItem_m3168406667_gshared
K9j:_GC_unreachable_finalize_mark_proc
i6g:__Z70RuntimeInvoker_Single_t2076509932_Int32_t2071877448_Single_t2076509932PFvvEPK10MethodInfoPvPS4_
OYi:_ConstructionCall_GetObjectData_m3974358557
vqc:__Z43RectTransform_CUSTOM_INTERNAL_get_anchorMaxP12Il2CppObjectP13Vector2fIcall
RNg:__Z50RuntimeInvoker_Void_t1841601450_Single_t2076509932PFvvEPK10MethodInfoPvPS4_
_8d:_DateTimeOffset_get_DateTime_m229084964_AdjustorThunk
Jta:__ZN8Material28UpdateHashesOnPropertyChangeEN9ShaderLab16FastPropertyNameE
hrc:__Z53Register_UnityEngine_SortingLayer_GetLayerValueFromIDv
IZd:_CaseInsensitiveComparer_Compare_m1192858479
UMb:__Z18Transfer_BlittableI14SafeBinaryReadLb1E8Vector4fEvRK29SerializationCommandArgumentsR31RuntimeSerializationCommandInfo
IPd:_LayoutRebuilder_Clear_m2390054824
VKa:__ZN13GfxDeviceGLES20SetComputeBufferDataE15ComputeBufferIDPKvjj
h5f:_Default_SelectMethod_m622251293
OV:__ZN11AudioSource12AddToManagerEv
xw:__ZN8Animator23VirtualRedirectTransferER19StreamedBinaryWriteILb0EE
eD:__ZN11UnityEngine9Animation32CreateAnimatorGenericBindingsOptERKNS0_20AnimationSetBindingsER9TransformPKN7mecanim9animation14AvatarConstantEPKNS0_21AvatarBindingConstantEbRNS6_6memory9AllocatorER8Animator
l_j:__ZN6il2cpp2vm5Image13ClassFromNameEPK11Il2CppImagePKcS6_
Qlk:dynCall_vdddddd
H0b:__ZN24GenerateTypeTreeTransfer21TransferSTLStyleArrayINSt3__26vectorIN9ShaderLab14SerializedPassENS1_9allocatorIS4_EEEEEEvRT_17TransferMetaFlags
T8:__ZL32MarkLevelGameManagerDependenciesR27GarbageCollectorThreadState
aLa:__ZNK13GfxDeviceGLES26HasActiveRandomWriteTargetEv
Xgd:__ZN20UnityWebRequestProtoI19TransportJavaScript16AtomicRefCounter14RedirectHelper14ResponseHelper15DownloadHandler13UploadHandler12HeaderHelper14AsyncOperationE5BeginEv
Oqk:_glGetActiveUniformsiv__wrapper
erc:__Z43Register_UnityEngine_Material_EnableKeywordv
bba:__ZN13MonoBehaviour19SetupScriptingCacheE17ScriptingClassPtrP10MonoScript
Fr:__Z20AnimationEventToMonoRK14AnimationEventR18MonoAnimationEvent
q2h:_ShimEnumerator_get_Current_m3610131784_gshared
XZg:__Z132RuntimeInvoker_Void_t1841601450_Vector3U26_t425862308_Vector3U26_t425862308_ColorU26_t3402129837_Single_t2076509932_SByte_t454417549PFvvEPK10MethodInfoPvPS4_
XQh:__ZL74UnityEventBase_t828812576_CustomAttributesCacheGenerator_m_PersistentCallsP21CustomAttributesCache
Zha:__ZZN15DirectorManager15InitializeClassEvEN52PreLateUpdateDirectorUpdateAnimationBeginRegistrator7ForwardEv
kYj:__ZN6il2cpp2vm13LivenessState18ShouldProcessValueEP12Il2CppObjectP11Il2CppClass
Odh:__Z49RuntimeInvoker_UIVertex_t1204258818_RuntimeObjectPFvvEPK10MethodInfoPvPS4_
NHg:_PlayableHandle_GetInputCountInternal_m2692879798
d0b:__ZNSt3__26vectorIN9ShaderLab14SerializedPassENS_9allocatorIS2_EEE8__appendEj
v$b:__ZNSt3__26vectorIN9ShaderLab20SerializedSubProgram13BufferBindingENS_9allocatorIS3_EEEC2INS_11__wrap_iterIPS3_EEEET_SB_RKS5_PNS_9enable_ifIXaasr21__is_forward_iteratorISB_EE5valuesr16is_constructibleIS3_NS_15iterator_traitsISB_E9referenceEEE5valueEvE4typeE
aJc:__ZN12b2WheelJoint24SolveVelocityConstraintsERK12b2SolverData
q6g:__Z133RuntimeInvoker_RuntimeObject_Vector2_t2243707579_Vector2_t2243707579_Single_t2076509932_Int32_t2071877448_RuntimeObject_RuntimeObjectPFvvEPK10MethodInfoPvPS4_
Iwb:__ZN9Texture2D23VirtualRedirectTransferER18StreamedBinaryReadILb0EE
oKc:__ZN10Collider2D8TransferI24GenerateTypeTreeTransferEEvRT_
Bce:_Double_System_IConvertible_ToUInt16_m286326038_AdjustorThunk
pZf:_TypeInfo__ctor_m1475908211
cqb:__ZNSt3__26__treeINS_12__value_typeIN4core12basic_stringIcNS2_20StringStorageDefaultIcEEEEjEENS_19__map_value_compareIS6_S7_NS_4lessIS6_EELb1EEE13stl_allocatorIS7_L18MemLabelIdentifier6ELi16EEE7destroyEPNS_11__tree_nodeIS7_PvEE
Jba:__ZN16ScriptingManager27NativeTypeForScriptingClassE17ScriptingClassPtr
LQf:_X509Chain_WrapUp_m1072032285
aej:_X509CertificateEnumerator_System_Collections_IEnumerator_MoveNext_m1448966539
DZc:_get_sfnt_table
a8e:_Collection_1_IsSynchronized_m3261594010_gshared
Mzg:_GUIStyle_GetNumCharactersThatFitWithinWidth_m3760066083
wzd:_PointerEventData_set_pressPosition_m2094137883
F2f:_DES_get_Key_m2584608215
Icb:__ZL22ScheduleSceneNodesJobsP25ScheduleSceneNodesJobDataj
Jk:_emscripten_set_canvas_size
a$d:_Hashtable__ctor_m741952536
N$b:__ZNSt3__26vectorIN9ShaderLab20SerializedSubProgramENS_9allocatorIS2_EEE8__appendEj
J5:__ZN20DynamicHeapAllocatorI17LowLevelAllocatorE8AllocateEji
u5a:__ZN20DynamicPropertySheet15SetVectorQueuedERKN9ShaderLab16FastPropertyNameERK8Vector4fN19ShaderPropertySheet8SetFlagsE
rud:_String_Format_m1263743648
Fif:_ReadOnlyCollection_1_System_Collections_IEnumerable_GetEnumerator_m4248982967_gshared
fE:__ZN7mecanim9animation22EvaluateAvatarRetargetEPKNS0_14AvatarConstantEPKNS0_11AvatarInputEPNS0_12AvatarOutputEPNS0_12AvatarMemoryEPNS0_15AvatarWorkspaceEb
Htb:__ZN14RenderSettings23VirtualRedirectTransferER19StreamedBinaryWriteILb0EE
IAc:__ZL26Transfer_SimpleNativeClassI9JSONWrite10RectOffsetLb0EEvRK29SerializationCommandArgumentsR31RuntimeSerializationCommandInfo
oOa:__ZN17GenericDynamicVBO10AllocateVBEjR21DynamicVBOChunkHandle
YVe:_List_1_get_Item_m1547593893_gshared
$Fe:_Path_GetPathRoot_m1269357080
M$j:__ZN30dense_hashtable_const_iteratorI10KeyWrapperIP18Il2CppGenericClassES3_N6il2cpp8metadata22Il2CppGenericClassHashEN14dense_hash_setIS3_S6_NS3_14EqualsComparerINS5_25Il2CppGenericClassCompareEEENSt3__29allocatorIS3_EEE8IdentityESA_SD_EppEv
Nxd:_EventSystem_SetSelectedGameObject_m2211816110
pgj:_GhostMove_InitializeGhost_m1319561544
gl:_glMapBufferRange
Awb:__ZN9Texture2D8TransferI18StreamedBinaryReadILb0EEEEvRT_
Ync:__Z31Input_CUSTOM_GetMouseButtonDowni
Zpc:__Z75Register_UnityEngine_Playables_PlayableHandle_INTERNAL_CALL_IsValidInternalv
rdc:__ZN13PlayableGraph4PlayEv
o3a:__ZNK9Transform16GetLocalPositionEv
zFa:__ZN13LoadOperation19IntegrateTimeSlicedEi
jFi:_ArrayReadOnlyList_1_get_Item_m176001975_gshared
nvf:_X501__cctor_m3795360380
lLa:__ZN13GfxDeviceGLES22DispatchComputeProgramE12ObjectHandleI18ComputeProgram_TagPvE15ComputeBufferIDj
iAg:_GUIStyle_set_contentOffset_m2138084868
e8e:_Collection_1_System_Collections_ICollection_CopyTo_m4193844941_gshared
Yr:__ZNK13AnimationClip15GetAverageSpeedEv
W4d:_Convert_ToInt32_m2297793940
kHa:__ZN7ApiGLES36GetTextureTargetViaFrameBufferStatusE16TextureDimensionj
vxb:__ZN15SerializeTraitsI13dynamic_arrayI7Hash128Lj8EEE19ResizeSTLStyleArrayERS2_i18MemLabelIdentifier
xQf:_X509Chain_Build_m1140429528
x_b:__ZN9ShaderLab21SerializedShaderState8TransferI14SafeBinaryReadEEvRT_
ijk:_ftruncate
zmd:_RSAPKCS1SignatureFormatter_SetKey_m2365816458
y1c:_cf2_stack_pushInt
mkg:_CompressedStack__ctor_m276924800
azd:_ExecuteEvents_get_cancelHandler_m1964324668
Rua:__ZN15SerializeTraitsINSt3__24pairIN4core12basic_stringIcNS2_20StringStorageDefaultIcEEEES6_EEE8TransferI24GenerateTypeTreeTransferEEvRS7_RT_
OCg:_Matrix4x4__ctor_m2771358574_AdjustorThunk
usk:b81
tsk:b80
tSa:__ZN7ApiGLES19CreateSparseTextureEjj14GraphicsFormatiiiiRiS1_S1_
nca:__ZN18ResourceImageGroup7CleanupEv
ysk:b85
xsk:b84
Gsk:b87
wah:__Z68RuntimeInvoker_Void_t1841601450_Int32_t2071877448_Double_t4078015681PFvvEPK10MethodInfoPvPS4_
hbc:__ZN13ProduceHelperI4MeshLb0EE7ProduceE18MemLabelIdentifier18ObjectCreationMode
EAf:_PrivateKeyInfo_Decode_m1053025782
quf:_PKCS12_Decrypt_m2457743414
rub:__ZN8Playable19SetOutputConnectionEPS_i
HAj:__ZN15dense_hashtableINSt3__24pairIK10KeyWrapperIPK11Il2CppClassEPKcEES6_N6il2cpp5utils11PointerHashIS3_EEN14dense_hash_mapIS6_S9_SE_NS6_14EqualsComparerINS0_8equal_toIS5_EEEENS0_9allocatorISA_EEE9SelectKeyESJ_SL_EC2ERKSO_j
Vl:_glDeleteShader
ree:_Exception_GetType_m3898489832
jya:__ZN6prcoreL17RemapGenericFloatI15TexFormatRGHalf16TexFormatRGFloatEEvPKNS_9InnerInfoE
f5e:_Stack_1_Peek_m1548778538_gshared
Qki:_Shadow_set_effectColor_m3110056844
JGg:_Physics2D_GetColliderFromInstanceID_m95920619
njc:__Z27scripting_add_internal_callPKcPKv
cqe:_Array_InternalArray__Insert_TisUriScheme_t1876590943_m2728325409_gshared
KSj:__ZN13Il2CppHashMapINSt3__24pairIPK9EventInfoP11Il2CppClassEEj17ReflectionMapHashIS7_ENS0_8equal_toIS7_EENS0_9allocatorINS1_IK10KeyWrapperIS7_EjEEEEEC2EjRKS9_RKSB_
q0j:__GLOBAL__sub_I_GarbageCollector_cpp
nej:_X509Store_CheckStore_m1027496478
Ow:__ZN26AnimatorControllerPlayable18SetLayerAutoWeightEv
Qb:invoke_vffff
Ijk:__ZNSt3__212basic_stringIcNS_11char_traitsIcEENS_9allocatorIcEEEC2ERKS5_jjRKS4_
Ytd:_String_Contains_m4017059963
QQi:_DefaultComparer_Compare_m1606207039_gshared
w8c:__ZN2UI14CanvasRenderer12SyncMaterialENS0_8SyncFlagE
Tdk:__ZN6il2cpp2vm9Parameter30GetDefaultParameterValueObjectEPK10MethodInfoPK13ParameterInfoPb
l5b:__ZN15dense_hashtableINSt3__24pairIKN4core12basic_stringIcNS2_20StringStorageDefaultIcEEEE10vector_setI4PPtrI11SpriteAtlasENS0_4lessISB_EE13stl_allocatorISB_L18MemLabelIdentifier79ELi16EEEEES6_20StringHash32FunctionIS6_EN14dense_hash_mapIS6_SH_SK_NS0_8equal_toIS6_EESE_ISI_LSF_79ELi16EEE9SelectKeyESN_SO_E12maybe_shrinkEv
Tqe:_Array_InternalArray__set_Item_TisLabelData_t3712112744_m2253365137_gshared
ODg:_MonoBehaviour_Invoke_m666563676
qKe:_StringReader__ctor_m643998729
fNf:_IPv6Address_TryParse_m2220524278
Bv:__ZN14AnimationEvent8TransferI19StreamedBinaryWriteILb0EEEEvRT_
Cu:__ZN7mecanim9animation9DenseClip8TransferI24GenerateTypeTreeTransferEEvRT_
uZc:_UNITY_tt_face_done_kern
FWi:_Context_get_DefaultContext_m2211922324
lxc:__Z59GUIStyle_CUSTOM_Internal_GetNumCharactersThatFitWithinWidth13Il2Cpp_IntPtrP12Il2CppStringf
TCb:__ZN12BoneWeights48TransferI24GenerateTypeTreeTransferEEvRT_
VAf:_RSAManaged_GetPaddedValue_m2972141669
DN:__Z62AnimationPlayableOutput_CUSTOM_INTERNAL_CALL_InternalSetTargetR15HPlayableOutputP12Il2CppObject
vna:__Z19scripting_gc_enablev
Dgd:__ZN20UnityWebRequestProtoI19TransportJavaScript16AtomicRefCounter14RedirectHelper14ResponseHelper15DownloadHandler13UploadHandler12HeaderHelper14AsyncOperationE9DoRequestEv
$_a:__ZZ23InitPlayerLoopCallbacksvEN41InitializationPlayerUpdateTimeRegistrator7ForwardEv
F0i:_AnchorInfo__ctor_m617409099
qad:__Z55Register_UnityEngine_CanvasRenderer_DisableRectClippingv
eVf:_Interval_CompareTo_m2909556284_AdjustorThunk
mCb:__ZN14SafeBinaryRead21TransferSTLStyleArrayI13dynamic_arrayI11ColorRGBA32Lj4EEEEvRT_17TransferMetaFlags
mwi:_AudioClip_get_length_m3881628918
XTf:_Interpreter_GetLastDefined_m2450713313
W$i:_Parser_ParseAssertionType_m3316669790
h2b:__ZN9ShaderLab7Program27CreateFromSerializedProgramERKNS_17SerializedProgramE10ShaderTypeiP16PropertyNamesSetPK6Shader
rki:_Selectable_get_isPointerDown_m774209881
t3b:__ZNSt3__27__sort4IRNS_6__lessIN4core12basic_stringIcNS2_20StringStorageDefaultIcEEEES6_EEPS6_EEjT0_SA_SA_SA_T_
zmk:dynCall_viiiifii
mRj:__ZN6il2cpp2gc19AppendOnlyGCHashMapINSt3__24pairIPK11Il2CppImageP11Il2CppClassEEP22Il2CppReflectionModule17ReflectionMapHashIS9_ENS2_8equal_toIS9_EEEC2Ev
W9:__Z20GetPersistentManagerv
L4c:_UNITY_TT_Set_Var_Design
Nka:__ZN21SystemInfoStringCache16StaticInitializeEPv
qCf:_TlsStream__ctor_m4117943603
$Nj:__ZN15dense_hashtableINSt3__24pairIK10KeyWrapperIPK10Il2CppTypeEjEES6_N6il2cpp8metadata14Il2CppTypeHashEN14dense_hash_mapIS6_jSB_NS6_14EqualsComparerINSA_26Il2CppTypeEqualityComparerEEENS0_9allocatorIS8_EEE9SelectKeyESF_SH_E12maybe_shrinkEv
gmi:_Text_FontTextureChanged_m4236993972
B4j:__ZN6il2cpp2gc16GarbageCollector23MakeDescriptorForObjectEPji
Cfg:_ParameterModifier_t1820634920_marshal_pinvoke
GJb:__ZNK13MonoBehaviour7GetNameEv
Tza:__ZN19ScriptingInvocation28AdjustArgumentsToMatchMethodEv
Y$j:__ZN15dense_hashtableI10KeyWrapperIP18Il2CppGenericClassES3_N6il2cpp8metadata22Il2CppGenericClassHashEN14dense_hash_setIS3_S6_NS3_14EqualsComparerINS5_25Il2CppGenericClassCompareEEENSt3__29allocatorIS3_EEE8IdentityESA_SD_E6insertERKS3_
NX:__Z15_CheckFMODError11FMOD_RESULTPKciS1_
Xsb:__Z20RenderMultipleMeshesRK15RenderNodeQueueRK18RenderMultipleData17ShaderChannelMask
hMj:__ZN6il2cpp2vm4Type19GetGenericParameterEPK10Il2CppType
S9c:__Z51Register_UnityEngine_CanvasGroup_get_blocksRaycastsv
jPi:_InternalEnumerator_1_get_Current_m2826780083_gshared
_vk:b119
SWi:_Context_UnregisterDynamicProperty_m4064851633
U5d:_Convert_EndianSwap_m975554045
rEc:__ZN8JSONRead21TransferSTLStyleArrayI13dynamic_arrayI11ColorRGBA32Lj4EEEEvRT_18MemLabelIdentifier17TransferMetaFlags
vPj:__ZNK15dense_hashtableINSt3__24pairIK10KeyWrapperINS1_IPK11Il2CppImageP11Il2CppClassEEEjEES9_17ReflectionMapHashIS8_EN14dense_hash_mapIS9_jSD_NS9_14EqualsComparerINS0_8equal_toIS8_EEEENS0_9allocatorISB_EEE9SelectKeyESI_SK_E3endEv
Fd:_glBeginQuery
X3f:_Assembly_GetCustomAttributes_m95309865
fvg:_GUILayoutUtility_INTERNAL_CALL_Internal_GetWindowRect_m3236664463
QI:__ZN18AnimatorController19TransferRuntimeDataI24GenerateTypeTreeTransferEEvRT_
qRc:__ZN10Effector2D25CheckEffectorColliderMaskEP10Collider2DS1_
T0a:__ZN6Camera12RenderStereoENS_10RenderFlagE8CullFlagPNS_24PerformEyeRenderFunctionE
Mla:__ZN20LocalFileSystemPosix10ToAbsoluteEPKc
Nsb:__ZN20TierGraphicsSettings8TransferI19StreamedBinaryWriteILb0EEEEvRT_
Kde:_Enum_ToObject_m275924358
Dm:f0
OXd:_ArrayListWrapper_set_Capacity_m2792463350
_hk:_getcwd
qig:_StringBuilder_Append_m1128243247
oOc:__ZN16b2CapsuleContact6CreateEP9b2FixtureiS1_iP16b2BlockAllocator
dri:_AnimatorControllerPlayable_GetBool_m3606320557
_mb:__ZN25ThreadsafeLinearAllocatorD2Ev
P6d:_DateTime_get_Year_m1985210972
Una:__Z21SendMessageToEveryoneRK17MessageIdentifier11MessageData
Wfa:__ZN21BillboardBatchManager16StaticInitializeEPv
iyg:_Object_get_name_m2079638459
S6:__ZN12_GLOBAL__N_138ArchiveRedirectFileSystemStaticDestroyEPv
iee:_EventHandler_Invoke_m1137722757
lvb:__ZN12CubemapArray34UpdateFileTextureUploadInstructionEP26FileAssetUploadInstructionj
NNe:_MonoType_IsSubclassOf_m2211166238
C9e:_Collection_1_System_Collections_ICollection_CopyTo_m2859266050_gshared
sSa:__Z23CreateSparseTextureGLES9TextureIDii14GraphicsFormati
Nak:_GC_continue_reclaim
XEe:_InvalidCastException__ctor_m2730571470
qSf:_X509ChainElementCollection_System_Collections_IEnumerable_GetEnumerator_m2559704689
GPf:_PublicKey_get_Key_m126090744
tVc:__ZNSt3__23mapIN20TextRenderingPrivate7FontRefEP11FT_FaceRec_NS_4lessIS2_EENS_9allocatorINS_4pairIKS2_S4_EEEEEixERS9_
WWa:__ZN17ArchiveFileSystem10AddStorageEP20ArchiveStorageReader
TAi:_Color_Equals_m661618137
fAi:_CanvasRenderer_SplitIndicesStreamsInternal_m817541557
IHc:__ZNK12b2MotorJoint16GetReactionForceEf
Dci:_EqualityComparer_1_System_Collections_IEqualityComparer_GetHashCode_m1203798961_gshared
Syj:__ZN6il2cpp2vm5Class15GetEnumBaseTypeEP11Il2CppClass
Uvb:__ZNK9Texture2D16GetNpotTexelSizeEv
Oei:_Mask_get_rectTransform_m3304369086
N7i:_TooltipAttribute__ctor_m2640804852
Uu:__ZN18StreamedBinaryReadILb0EE8TransferINSt3__26vectorIN13AnimationClip12Vector3CurveE13stl_allocatorIS5_L18MemLabelIdentifier25ELi16EEEEEEvRT_PKc17TransferMetaFlags
tOa:__ZN9GfxDevice22GetDefaultVertexBufferE26GfxDefaultVertexBufferTypej
c8e:_Collection_1__ctor_m3903788797_gshared
aif:_ReadOnlyCollection_1_System_Collections_ICollection_CopyTo_m1129689124_gshared
qik:___fseeko_unlocked
Jsk:_glGetActiveUniform__wrapper
iik:_sscanf
GCb:__ZN14SafeBinaryRead21TransferSTLStyleArrayINSt3__26vectorI17BlendShapeChannelNS1_9allocatorIS3_EEEEEEvRT_17TransferMetaFlags
fwa:__Z17BeginSplashScreenv
s1b:__ZN9ShaderLab16SerializedShader8TransferI19StreamedBinaryWriteILb0EEEEvRT_
cqg:_UInt32_Parse_m2400360707
xG:__ZN7mecanim9animation18CreateAvatarMemoryEPKNS0_14AvatarConstantERNS_6memory9AllocatorE
w1d:_Stack_Pop_m3788808882
j0h:_Enumerator_VerifyCurrent_m4246196125_AdjustorThunk
z8d:_DateTime_op_Equality_m1867073872
pF:__ZN7mecanim8skeleton16SkeletonPoseCopyIN4math4trsXENS2_7affineXEEEvPKNS0_13SkeletonPoseTIT_EEPNS5_IT0_EE
_Na:__ZN18GfxFramebufferGLES18GetFramebufferNameERK20GfxRenderTargetSetup
EYj:__ZN6il2cpp6icalls8mscorlib6System2IO6MonoIO11GetFileTypeE12Il2CppIntPtrPi
Nvc:__Z30Event_Get_Custom_PropCharacterP12Il2CppObject
yha:__ZN13PlayableGraph27SchedulePlayableDestructionERK9HPlayable
Rpk:_glGetFramebufferAttachmentParameteriv__wrapper
Ffd:__Z13RegisterClassI20UnityConnectSettingsEvv
QNb:__Z22scripting_array_length17ScriptingArrayPtr
upd:_SecurityElement_GetAttribute_m4288291176
tmj:_IndexedSet_1_get_Count_m2839545138_gshared
hDa:__ZN14SafeBinaryRead20TransferTypelessDataEjPvi
Btg:_RenderPipelineManager_get_currentPipeline_m679160301
rnh:__ZL66StringFreezingAttribute_t2691375565_CustomAttributesCacheGeneratorP21CustomAttributesCache
Azc:__ZN9rapidjson13GenericReaderINS_4UTF8IcEES2_13JSONAllocatorE10ParseFalseILj1ENS_25GenericInsituStringStreamIS2_EENS_15GenericDocumentIS2_S3_S3_EEEEvRT0_RT1_
Soi:_AnimationClipPlayable_INTERNAL_CALL_SetApplyFootIKInternal_m4116451205
eX:__ZN13dynamic_arrayI12SoundChannelLj4EE9push_backERKS0_
E7:__Z19GetActiveColorSpacev
Wci:_EqualityComparer_1__cctor_m1672307556_gshared
uXf:_SoapTypeAttribute_get_IsInteropXmlElement_m2941294827
yFb:__ZN14SpriteRenderer18UpdateCachedSpriteEv
ISe:_Enumerator_System_Collections_IEnumerator_get_Current_m3542273247_gshared
dWd:_Char_System_IConvertible_ToUInt32_m1557991717_AdjustorThunk
uhg:_Encoding_get_UTF8Unmarked_m628720656
bye:_NumberFormatter_RoundBits_m1545255255
l8:__Z6StrCmpPKcS0_
R2b:__Z21CheckGpuProgramUsable20ShaderGpuProgramType
S4f:_Binder__cctor_m3736115807
K3j:__ZN6il2cpp2os9Directory20GetFileSystemEntriesERKNSt3__212basic_stringIcNS2_11char_traitsIcEENS2_9allocatorIcEEEESA_iiPi
A8g:__Z84RuntimeInvoker_Int32_t2071877448_Color32_t874517518_Color32_t874517518_RuntimeObjectPFvvEPK10MethodInfoPvPS4_
dai:_Dictionary_2_OnDeserialization_m2160537783_gshared
sUc:__ZN20TextRenderingPrivate19NativeTextGenerator5SetupEv
AHb:__ZN12AspectRatios8TransferI18StreamedBinaryReadILb0EEEEvRT_
Hcc:__ZN10GameObject14CopyPropertiesERS_
Qxc:__Z44Register_UnityEngine_GUIStyle_get_fixedWidthv
Uld:_RSACryptoServiceProvider_Common_m2581564813
Msi:_AnimatorControllerPlayable_INTERNAL_CALL_GetCurrentAnimatorClipInfoInternal_m3360626147
qIe:_MemoryStream_CheckIfClosedThrowDisposed_m2253054610
HFi:_ArrayReadOnlyList_1_GetEnumerator_m634288642_gshared
Hib:__ZNK13ScreenManager12IsFullScreenEv
Lik:_rand
sqk:_emscripten_glFramebufferRenderbuffer__wrapper
H3g:__Z72RuntimeInvoker_Boolean_t3825574718_Ray_t2469606224_SingleU26_t4173844468PFvvEPK10MethodInfoPvPS4_
j4j:__ZN6il2cpp5utils9PathUtils7CombineIcEENSt3__212basic_stringIT_NS3_11char_traitsIS5_EENS3_9allocatorIS5_EEEERKNS0_10StringViewIS5_EERKSA_
EOb:__ZN14SafeBinaryRead21TransferSTLStyleArrayINSt3__26vectorI17AnimationCurveTplIfE13stl_allocatorIS4_L18MemLabelIdentifier1ELi16EEEEEEvRT_17TransferMetaFlags
Tkc:__Z60Register_UnityEngine_AsyncOperation_set_allowSceneActivationv
B_f:_ObjectManager_RegisterObject_m872610295
ocb:__Z22PrepareOptimizedPlanesPK5PlaneiPKN4math7_float4E
FKg:_RectOffset_t3387826427_marshal_pinvoke
tId:_Graphic_SetVerticesDirty_m1607014370
j4:__ZN11UnityEngine15CloudWebService17WebFileDownloaderINS0_20WebRequestRestClientENS0_23WebRequestRestHeaderMapEE10InitializeERKN4core12basic_stringIcNS5_20StringStorageDefaultIcEEEE
Ufa:__ZN17UniqueIDGenerator15CreatePureIndexEv
kyc:__Z59Register_UnityEngine_GUIStyle_Internal_GetCursorFlashOffsetv
iw:__ZN11UnityEngine9Animation28GenericAnimationBindingCache15DidReloadDomainEv
Bwf:_AppDomain_InternalGetProcessGuid_m1278588156
INd:_InputField_MoveRight_m386206014
hK:__ZN19StreamedBinaryWriteILb0EE8TransferIN7mecanim9animation23BlendDirectDataConstantEEEvRT_PKc17TransferMetaFlags
ZOg:__Z116RuntimeInvoker_Boolean_t3825574718_RuntimeObject_Int32_t2071877448_RuntimeObject_Int32_t2071877448_Int32_t2071877448PFvvEPK10MethodInfoPvPS4_
rFe:_BinaryReader_ReadBoolean_m2892291883
gyj:__ZN15dense_hashtableINSt3__24pairIK10KeyWrapperIPK22Il2CppGenericParameterEP11Il2CppClassEES6_N6il2cpp5utils11PointerHashIS4_EEN14dense_hash_mapIS6_S9_SE_NS6_14EqualsComparerINS0_8equal_toIS5_EEEENS0_9allocatorISA_EEE9SelectKeyESJ_SL_E14squash_deletedEv
mIb:__ZNSt3__26__treeINS_12__value_typeIN4core12basic_stringIcNS2_20StringStorageDefaultIcEEEE4PPtrI6ObjectEEENS_19__map_value_compareIS6_SA_NS_4lessIS6_EELb1EEE13stl_allocatorISA_L18MemLabelIdentifier51ELi16EEE7destroyEPNS_11__tree_nodeISA_PvEE
SHc:__ZNK12b2MouseJoint17GetReactionTorqueEf
Ttc:__Z14GUIClipTextureP9Texture2DPhiiii
fu:__ZN14SafeBinaryRead21TransferSTLStyleArrayI13dynamic_arrayI11KeyframeTplI11QuaternionfELj4EEEEvRT_17TransferMetaFlags
oGf:_TlsServerCertificate_validateCertificates_m1988583701
U7:__ZNK9Transform18TransformDirectionERK8Vector3f
Svg:_GUILayoutEntry_SetHorizontal_m1828181654
tvk:_emscripten_glClearStencil__wrapper
vEj:__ZN15dense_hashtableINSt3__24pairIK10KeyWrapperIPK11Il2CppClassEPKcEES6_N6il2cpp5utils11PointerHashIS3_EEN14dense_hash_mapIS6_S9_SE_NS6_14EqualsComparerINS0_8equal_toIS5_EEEENS0_9allocatorISA_EEE9SelectKeyESJ_SL_E12resize_deltaEjj
tkk:__ZNK10__cxxabiv120__si_class_type_info27has_unambiguous_public_baseEPNS_19__dynamic_cast_infoEPvi
bok:_glTexSubImage3D__wrapper
sTf:_FactoryCache_Add_m2602974721
sOa:__Z30AddDefaultStreamsToMeshBuffersR9GfxDeviceR11MeshBuffersj17ShaderChannelMaskS3_
Sea:__ZL16GetInterfaceImpl18UnityInterfaceGUID
jzj:__ZN6il2cpp2vmL17SetupFieldOffsetsENS0_15FieldLayoutKindEP11Il2CppClassjRKNSt3__26vectorIjNS4_9allocatorIjEEEE
vUe:_List_1_System_Collections_IList_get_Item_m936612973_gshared
V6j:__ZN6il2cpp6icalls8mscorlib6System15MonoCustomAttrs27GetCustomAttributesInternalEP12Il2CppObjectP20Il2CppReflectionTypeb
T4c:_UNITY_TT_Set_MM_Blend
L_f:_ObjectReader_ReadAssembly_m869834280
eza:__ZN14PreloadManager35WaitForAllAsyncOperationsToCompleteEv
Odf:_Collection_1_IsSynchronized_m971497175_gshared
Myd:_ExecuteEvents_Execute_m1617536317
dmi:_Text_get_cachedTextGeneratorForLayout_m1357670532
bS:__ZL31InitializeAudioScriptingClassesv
j3a:__Z14SortGUIByDepthP10GUIElementS0_
pCe:_NumberFormatter_NumberToString_m126384393
Vrk:_emscripten_glVertexAttrib4fv__wrapper
dZi:_LogicalCallContext__ctor_m3173272863
YF:__ZN12_GLOBAL__N_120ProcessRootMotionMixER33AnimationPlayableEvaluationOutputR35AnimationPlayableEvaluationConstantR32AnimationPlayableEvaluationInputS1_f
zMe:_MonoCustomAttrs__cctor_m2608447972
cCe:_Int32_FindSign_m3803672540
S0h:_Enumerator_System_Collections_IEnumerator_Reset_m70453843_AdjustorThunk
wma:__ZNK20LocalFileSystemPosix21GetAvailableDiskSpaceEPKcRy
Qka:__ZNSt3__26__treeIiNS_4lessIiEENS_9allocatorIiEEE7destroyEPNS_11__tree_nodeIiPvEE
gCf:_CipherSuite_InitializeCipher_m229247572
_Ha:__ZNK9GfxDevice14GetWorldMatrixEv
Teg:_MonoProperty_GetGetMethod_m1100580870
Beb:__Z19scripting_array_new17ScriptingClassPtrjj
UW:__ZN11SoundHandle13CreateChannelEb
USg:__Z90RuntimeInvoker_Void_t1841601450_IntPtr_t_Int32_t2071877448_RuntimeObject_Int32_t2071877448PFvvEPK10MethodInfoPvPS4_
hxb:__ZN14SafeBinaryRead21TransferSTLStyleArrayI13dynamic_arrayI12LightmapDataLj4EEEEvRT_17TransferMetaFlags
Vwf:_ArgumentException__ctor_m3312963299
U$b:__ZNSt3__26vectorIN9ShaderLab20SerializedSubProgram16TextureParameterENS_9allocatorIS3_EEE6assignIPS3_EENS_9enable_ifIXaasr21__is_forward_iteratorIT_EE5valuesr16is_constructibleIS3_NS_15iterator_traitsISA_E9referenceEEE5valueEvE4typeESA_SA_
$Cj:__ZN13Il2CppHashMapIN6il2cpp5utils13dynamic_arrayIPK10Il2CppTypeLj4EEEPFvvENS0_8metadata19Il2CppSignatureHashENS9_22Il2CppSignatureCompareENSt3__29allocatorINSC_4pairIK10KeyWrapperIS6_ES8_EEEEEC2EjRKSA_RKSB_
_wj:_U3CCreateWhereIteratorU3Ec__Iterator1D_1_MoveNext_m3533253043_gshared
URj:__ZN15dense_hashtableINSt3__24pairIK10KeyWrapperIPK22Il2CppGenericParameterEPK24MonoGenericParameterInfoEES6_N6il2cpp5utils11PointerHashIS4_EEN14dense_hash_mapIS6_SA_SF_NS6_14EqualsComparerINS0_8equal_toIS5_EEEENS0_9allocatorISB_EEE9SelectKeyESK_SM_E15set_deleted_keyERKSB_
x4b:__ZN6prcoreL11inner_clearILj2EEEvPhjjj
XSf:_X509SubjectKeyIdentifierExtension__ctor_m3887138480
QQe:_Enumerator_System_Collections_IEnumerator_get_Current_m2853089017_AdjustorThunk
bJc:__ZN12b2WheelJoint24SolvePositionConstraintsERK12b2SolverData
Qg:_emscripten_exit_fullscreen
GLd:_InputField_get_mesh_m3276583786
eUi:_GCHandle_Free_m1639542352_AdjustorThunk
U2j:__ZN6il2cpp6icalls8mscorlib6System6String19InternalAllocateStrEi
PEc:__Z29Transfer_Blittable_ArrayFieldI8JSONRead11QuaternionfEvRT_R9ArrayInfoRK23StaticTransferFieldInfo
uph:__ZL65SoapParameterAttribute_t2780084514_CustomAttributesCacheGeneratorP21CustomAttributesCache
Hlc:__Z45Register_UnityEngine_Camera_get_targetDisplayv
Pac:__ZNK24RendererAnimationBinding15GenerateBindingERKN4core12basic_stringIcNS0_20StringStorageDefaultIcEEEEbRN11UnityEngine9Animation14GenericBindingE
asb:__Z15GetFlareManagerv
a_i:_Enumerator_System_Collections_IEnumerator_get_Current_m1429268283
Jff:_ReadOnlyCollection_1_System_Collections_Generic_ICollectionU3CTU3E_Clear_m388357963_gshared
Igk:___toread
W3:__ZN19CloudServiceHandler10QueueEventEPN11UnityEngine15CloudWebService14CloudEventInfoE
Qkk:___cxa_is_pointer_type
sud:_String_Concat_m56707527
_F:__ZN7mecanim9animation16EvaluateAvatarDXEPKNS0_14AvatarConstantEPKNS0_11AvatarInputEPNS0_12AvatarMemoryEPNS0_15AvatarWorkspaceEPNS0_12AvatarOutputE
HRa:__ZN4gles20DestroyRenderSurfaceEP7ApiGLESP17RenderSurfaceGLES
PQe:_Enumerator_System_Collections_IEnumerator_get_Current_m2853089017_gshared
Asc:__Z34Transform_CUSTOM_SetAsFirstSiblingP12Il2CppObject
Eva:__ZN17PersistentManager40GlobalToLocalSerializedFileIndexInternalERK26SerializedObjectIdentifier
k1:__ZN11UnityEngine15CloudWebService17SessionEventQueue14ParseEventDataERKN4core12basic_stringIcNS2_20StringStorageDefaultIcEEEE
wwd:_BaseEventData_get_selectedObject_m3551206992
Hnf:_SimpleCollator_CompareOrdinal_m2176988387
Xee:_CCGregorianCalendar_GetYear_m1289900195
nCe:_Int16_ToString_m2592645088
EMa:__ZN13TranslateGLES4InitERK12GraphicsCaps16GfxDeviceLevelGL
d$:__Z60AudioClipPlayable_CUSTOM_INTERNAL_CALL_GetPauseDelayInternalR9HPlayable
k0f:_SerializationInfoEnumerator_Reset_m2206466680
qqk:_emscripten_glGetShaderPrecisionFormat__wrapper
Jqj:_GenericEqualityComparer_1_Equals_m1934771410_gshared
$dk:__ZN6il2cpp5utils9Exception26FormatInvalidCastExceptionEPK11Il2CppClassS4_
_Ib:__ZNSt3__26vectorIN30RuntimeInitializeOnLoadManager15ClassMethodInfoE13stl_allocatorIS2_L18MemLabelIdentifier12ELi16EEE8__appendEj
x8b:__ZN13ProduceHelperI10TagManagerLb0EE7ProduceE18MemLabelIdentifier18ObjectCreationMode
Cek:__ZN6il2cpp2os6Memory12AlignedAllocEjj
v8j:__ZN6il2cpp8metadataL7CompareEPK10Il2CppTypeS3_
s6f:_TypeBuilder_get_is_created_m736553860
mug:_GameObject_set_layer_m2712461877
NAf:_RSAManaged__ctor_m1370411656
dvb:__ZN12CubemapArray23VirtualRedirectTransferER17RemapPPtrTransfer
Dic:__ZL27GetComponentsImplementationILb0ELi0EEbR10GameObjectbRK17CompareParametersRK39GetComponentsImplementation_ReturnValue
mOf:_WebHeaderCollection_GetObjectData_m3940120977
nKb:__ZN9Scripting36IsSystemCollectionsGenericDictionaryE17ScriptingClassPtr
_gi:_Raycast3DCallback_EndInvoke_m3234280377
hFd:_ColorTweenCallback__ctor_m3619686788
Sca:__ZL16ReadTypeTreeImplILb0EEbR8TypeTreeRK16TypeTreeIteratorRPKhS6_i
oK:__ZN25RuntimeAnimatorControllerD2Ev
jqc:__Z28PlayableOutputValidityChecksRK15HPlayableOutput
TB:__ZN27AnimationLayerMixerPlayable16SetLayerMaskCopyEjRKN7mecanim6bitsetILj70EEEPKNS0_8skeleton12SkeletonMaskE
UO:__Z104Register_UnityEngine_Animations_AnimatorControllerPlayable_INTERNAL_CALL_GetNextAnimatorClipInfoInternalv
Ytb:__ZNK22BuiltinResourceManager21GetResourceInstanceIDEPKN5Unity4TypeERKN4core12basic_stringIcNS4_20StringStorageDefaultIcEEEE
Rmc:__Z42Register_UnityEngine_RectOffset_set_bottomv
YXd:_ArrayListWrapper_IndexOf_m3574835167
bN:__Z92Register_UnityEngine_Animations_AnimationClipPlayable_INTERNAL_CALL_GetAnimationClipInternalv
K5a:__ZN28LightProbeProxyVolumeContext8CopyFromERKS_
HAg:_GUIUtility_TakeCapture_m3115231813
eeb:__ZN23TransformChangeDispatch32QueueTransformChangeIfHasChangedER18TransformHierarchy
Eab:__ZN18DeferredRenderLoop15RenderFinalPassEP13RenderTextureS1_
IRa:__ZN7ApiGLES18DeleteRenderbufferERj
wQa:__ZL23ProgramUniformMatrix4fvPK7ApiGLESjiihPKv
gHa:__ZN7ApiGLES13CreateTextureEjj14GraphicsFormatiiiii
C$b:__ZN9ShaderLab20SerializedSubProgram15MatrixParameter8TransferI14SafeBinaryReadEEvRT_
$Be:_Int32_Parse_m124693431
Fic:__ZL27GetComponentsImplementationILb0ELi1EEbR10GameObjectbRK17CompareParametersRK39GetComponentsImplementation_ReturnValue
V3c:_Round_Down_To_Grid
ekg:_UTF8Decoder__ctor_m1460357288
wra:__ZN13RenderTexture7ReleaseEv
RDb:__ZN10MeshFilter23VirtualRedirectTransferER14SafeBinaryRead
p2d:_Convert_ToByte_m1201588964
$Db:__ZN12MeshRenderer17MainThreadCleanupEv
Hkc:__Z36AsyncOperation_Get_Custom_PropIsDoneP12Il2CppObject
nUa:__ZN22CreateGpuProgramOutput12CreateParamsEv
wMa:__ZNK14GfxContextGLES13GetDefaultFBOEv
gie:_Array_InternalArray__ICollection_Remove_TisSByte_t454417549_m2474211570_gshared
eoa:__ZN14GraphicsHelper5ClearE13GfxClearFlagsRK10ColorRGBAffjR17ShaderPassContext
ifc:__Z13GetImagePixelI10ColorRGBAfET_PKhii13TextureFormat15TextureWrapModeS5_ii
LJj:_il2cpp_class_is_enum
xKf:_AuthorityKeyIdentifierExtension_get_Identifier_m3535568551
Fta:__ZNSt3__23mapIN9ShaderLab16FastPropertyNameEN18UnityPropertySheet11UnityTexEnvENS_4lessIS2_EENS_9allocatorINS_4pairIKS2_S4_EEEEEixERS9_
hHa:__ZNK13TranslateGLES25GetTextureTargetDimensionEj
xqe:_Array_InternalArray__set_Item_TisByte_t3683104436_m1694926640_gshared
P_i:_PatternCompiler_EmitInfo_m597931026
cyf:_ModulusRing_Multiply_m3113924743
Orc:__Z47Texture2D_CUSTOM_INTERNAL_CALL_GetPixelBilinearP12Il2CppObjectffR10ColorRGBAf
Ni:_emscripten_glVertexAttrib4f
nff:_ReadOnlyCollection_1_System_Collections_IEnumerable_GetEnumerator_m531171980_gshared
q2b:__ZNSt3__26vectorIN20GpuProgramParameters14ConstantBufferENS_9allocatorIS2_EEE8__appendEj
ete:_Array_Sort_TisUILineInfo_t3621277874_m3105833015_gshared
hOe:_MonoType_GetGenericArguments_m2708198481
BUe:_List_1_AddEnumerable_m2489692396_gshared
ibj:_WaitForSecondsRealtime__ctor_m1734539010
dB:__ZN7mecanim12statemachine24CreateStateMachineMemoryEPKNS0_20StateMachineConstantERNS_6memory9AllocatorE
n4h:_Enumerator_get_Current_m419581838_AdjustorThunk
yKa:__ZN9GfxDevice18SetGlobalDepthBiasEff
_Gj:__ZN6il2cpp6icalls8mscorlib6System8MonoType12get_AssemblyEP20Il2CppReflectionType
_i:_emscripten_glGetPointerv
PF:__ZN8Animator22ApplyBuiltinRootMotionEv
Mhe:_Array_InternalArray__ICollection_Remove_TisKeyValuePair_2_t3716250094_m2566517826_gshared
qZj:__ZN30dense_hashtable_const_iteratorINSt3__24pairIK10KeyWrapperIP14Il2CppIUnknownEjEES5_N6il2cpp5utils11PointerHashIS3_EEN14dense_hash_mapIS5_jSB_NS5_14EqualsComparerINS0_8equal_toIS4_EEEENS0_9allocatorIS7_EEE9SelectKeyESG_SI_EppEv
czb:__ZN8Renderer23VirtualRedirectTransferER14SafeBinaryRead
w7f:_DerivedType_get_UnderlyingSystemType_m3904230233
S2a:__Z27ConvertSubMeshesToTrianglesR13dynamic_arrayI7SubMeshLj4EERS_ItLj2EE
ezj:__ZN6il2cpp2vmL15GetBitmapNoInitEP11Il2CppClassPjRjj
zRf:_X509Certificate2Collection__ctor_m819526826
KR:__ZN12AudioManager5ResetEv
teh:__Z75RuntimeInvoker_RuntimeObject_Single_t2076509932_RuntimeObject_RuntimeObjectPFvvEPK10MethodInfoPvPS4_
pzf:_KeyBuilder_Key_m3814433741
Wwf:_ArgumentException__ctor_m158205422
rle:_Array_compare_TisVector3_t2243707580_m3709184876_gshared
jKd:_HorizontalLayoutGroup_SetLayoutHorizontal_m3237355818
vya:__ZN6prcoreL17RemapGenericFloatI17TexFormatRGBAHalf15TexFormatRGHalfEEvPKNS_9InnerInfoE
g4j:__ZN6il2cpp6icalls8mscorlib6System11Environment20GetWindowsFolderPathEi
EYh:__ZL60AspectRatioFitter_t3114550109_CustomAttributesCacheGeneratorP21CustomAttributesCache
Qz:__ZN7mecanim5human18HumanPoseBlendNodeERNS0_9HumanPoseEPS1_f
L$c:_UNITY_FT_RoundFix
z2b:__ZN9ShaderLab20SerializedSubProgram15AddTextureParamEPKcii16TextureDimension
lY:__ZNK18AudioMixerPlayable11DerivesFromE17ScriptingClassPtr
Q2i:_Uri_get_Parser_m2250631932
bEb:__ZNK12MeshRenderer22GetTypeVirtualInternalEv
ADi:_Event_GetHashCode_m2214628668
mId:_Graphic_set_color_m646149893
Whk:_write
Yta:__ZN14SafeBinaryRead19TransferSTLStyleMapINSt3__23mapIN4core12basic_stringIcNS3_20StringStorageDefaultIcEEEES7_NS1_4lessIS7_EE13stl_allocatorINS1_4pairIKS7_S7_EEL18MemLabelIdentifier1ELi16EEEEEEvRT_17TransferMetaFlags
d8c:__ZN2UI6Canvas27UpdateEventIndexesRecursiveERi
C8b:__ZN14SpriteRenderer12CleanupClassEv
q1:__ZN11UnityEngine15CloudWebService16SessionContainer21PrepareDataErrorEventERN4core12basic_stringIcNS2_20StringStorageDefaultIcEEEE
MXc:_UNITY_FT_Outline_New
rUb:__Z19TransferField_ArrayI19StreamedBinaryWriteILb0EE27Converter_SimpleNativeClassI8GUIStyleEEvRK23StaticTransferFieldInfoR31RuntimeSerializationCommandInfoRT0_
pYh:__ZL70SpriteState_t1353336012_CustomAttributesCacheGenerator_m_PressedSpriteP21CustomAttributesCache
Lti:_AnimatorControllerPlayable_CrossFade_m1077061813_AdjustorThunk
$Yf:_RemotingServices_RegisterInternalChannels_m1827304423
Gyg:_GUIStyle_get_onNormal_m1675201777
Jr:__ZL32CleanupAnimationScriptingClassesv
pCc:__Z35Transfer_Blittable_FixedBufferFieldI8JSONReadiEvRK29SerializationCommandArgumentsR31RuntimeSerializationCommandInfo
dGj:__ZNSt3__213__vector_baseIN6il2cpp2os19SocketHandleWrapperENS_9allocatorIS3_EEED2Ev
EAg:_GUIStyleState_Cleanup_m705006206
LXg:__Z77RuntimeInvoker_RuntimeObject_Int32_t2071877448_RuntimeObject_SByte_t454417549PFvvEPK10MethodInfoPvPS4_
pc:invoke_viiffi
Qib:__ZN13sorted_vectorINSt3__24pairIN4core12basic_stringIcNS2_20StringStorageDefaultIcEEEEPK17MessageIdentifierEEN10vector_mapIS6_S9_NS0_4lessIS6_EENS0_9allocatorISA_EEE13value_compareESF_E10insert_oneERKSA_
slg:_Thread_GetCachedCurrentUICulture_m5590127
paj:_Vector3_Dot_m3161182818
s0b:__Z14resize_trimmedINSt3__26vectorIN9ShaderLab18SerializedPropertyENS0_9allocatorIS3_EEEEEvRT_j
e2e:_List_1_CheckMatch_m4018158235_gshared
iof:_Context_t2636657155_marshal_pinvoke_back
dEj:__ZN6il2cpp2vm13MetadataCache38GetMethodInfoFromMethodDefinitionIndexEi
yUd:_Byte_System_IConvertible_ToDateTime_m1583041031
Apc:__Z39MonoBehaviour_CUSTOM_GetScriptClassNameP12Il2CppObject
Ksj:__ZL24UnresolvedVirtualCall_68P12Il2CppObjectS0_iS0_S0_S0_S0_S0_S0_PK10MethodInfo
zAb:__ZN10VertexData8TransferI24GenerateTypeTreeTransferEEvRT_
t5j:__ZN13Il2CppHashMapIPK19Il2CppGenericMethodP10MethodInfoN6il2cpp8metadata23Il2CppGenericMethodHashENS6_26Il2CppGenericMethodCompareENSt3__29allocatorINS9_4pairIK10KeyWrapperIS2_ES4_EEEEEC2EjRKS7_RKS8_
Fdi:_EqualityComparer_1_System_Collections_IEqualityComparer_Equals_m1089835085_gshared
Sbb:__ZL10CullLightsRK22SceneCullingParametersR11CullResults
sHd:_Dropdown__cctor_m264401557
HCg:_Mathf_Clamp_m3542052159
vRd:_Array_IndexOf_m2819632474
uSi:_Comparer_1__cctor_m3996541505_gshared
_A:__ZN7mecanim12statemachine20GetBlendTreeConstantERKNS0_13StateConstantEi
Wdc:__Z40GetTemporaryCachePathApplicationSpecificv
HIa:__ZN9GfxDevice16EndAsyncJobFrameEv
GYc:_UNITY_tt_face_load_hhea
gEi:_PersistentCall__ctor_m2079279187
P1d:_Convert_ToBase64String_m1936815455
Sk:___syscall3
Vk:___syscall6
Xk:___syscall4
Kae:_Decimal_ToString_m759431975
ZCd:_ColorBlock_get_fadeDuration_m987725262
_1f:_CryptographicException__ctor_m2415891459
OOc:__ZNSt3__26__sortIR24RayHitsByDepthComparitorP12RaycastHit2DEEvT0_S5_T_
Ric:__ZN9Scripting25BroadcastScriptingMessageER10GameObjectPKc18ScriptingObjectPtr
ll:_emscripten_glShaderBinary
xQd:_Array_InternalArray__RemoveAt_m1126483634
$yi:_Camera_INTERNAL_CALL_RaycastTry_m1030092423
kma:__ZNK20LocalFileSystemPosix6ExistsERK13FileEntryData
qLf:_DictionaryNodeEnumerator_get_DictionaryNode_m3521889822
dy:__ZN7mecanim5human19MaskHasLeftFootGoalERKNS_6bitsetILj70EEE
N8g:__Z101RuntimeInvoker_Int32_t2071877448_RuntimeObject_Color32_t874517518_Int32_t2071877448_Int32_t2071877448PFvvEPK10MethodInfoPvPS4_
DDg:_Mesh_get_colors32_m4153271224
Abd:__Z58Register_UnityEngine_Canvas_GetETC1SupportedCanvasMaterialv
FGg:_Physics2D_INTERNAL_CALL_GetRayIntersectionAll_m161475998
EWb:__ZN17AnimationCurveTplIfE8TransferI18StreamedBinaryReadILb1EEEEvRT_
U8d:_DateTimeOffset_GetHashCode_m3312197462_AdjustorThunk
Add:__ZN18UnityConnectClientD2Ev
bJj:_il2cpp_set_data_dir
L2i:_Uri_get_IsUnc_m2111738174
f6i:_DataUtility_INTERNAL_CALL_GetPadding_m1621366113
vbg:_TypeBuilder_IsValueTypeImpl_m1499671481
Lcd:__ZN11UnityEngine15PlatformWrapper30GetGraphicsDriverLibraryStringEv
H9i:_Vector2_ToString_m775491729
xAf:_EncryptedPrivateKeyInfo_Decode_m1706190306
JXb:__Z18Transfer_BlittableI18StreamedBinaryReadILb0EELb0E4AABBEvRK29SerializationCommandArgumentsR31RuntimeSerializationCommandInfo
CK:__ZN16MecanimAnimation24DeleteAnimatedPropertiesERP26IAnimatedPropertyEvaluator
$5d:_Convert_ToUInt16_m1665900934
t0a:__Z14DrawGUITextureRK5RectTIfEP7Texture11ColorRGBA32P8Materiali
kmi:_Text_get_supportRichText_m3291105891
oLg:_RectTransform_GetParentSize_m1571597933
CE:__ZN9BlobWrite8TransferI22OffsetPtrArrayTransferIKN4math7_float4EEEEvRT_PKc17TransferMetaFlags
HFc:__ZNK11b2EdgeShape7RayCastEP15b2RayCastOutputRK14b2RayCastInputRK11b2Transformi
ZZi:_MatchCollection_GetEnumerator_m3516985966
bCc:__ZN9JSONWrite8TransferI4AABBEEvRT_PKc17TransferMetaFlags
shg:_UTF7Encoding__ctor_m2365939916
cYa:__ZN25MultiBlocksMemoryFileData9SetLengthEy
P6i:_TextGenerationSettings_Equals_m3944651893_AdjustorThunk
pCi:_DelegatePInvokeWrapper_StateChanged_t2480912210
dfi:_MatEntry__ctor_m3650167335
DJc:__ZN10Collider2D13AwakeFromLoadE17AwakeFromLoadMode
Kvb:__ZNK9Texture2D20GetRuntimeMemorySizeEv
lpg:_TypeInitializationException__ctor_m2993591639
tm:_emscripten_glUniform2iv
ABe:_Int16_System_IConvertible_ToInt64_m733340257
YCg:_Matrix4x4_ToString_m1982554457_AdjustorThunk
eVc:_UNITY_FT_Outline_Transform
Irc:__Z60Register_UnityEngine_Sprites_DataUtility_Internal_GetMinSizev
xzj:__ZN6il2cpp2vm5Class10GetMethodsEP11Il2CppClassPPv
D7a:__Z30AddDefaultStreamsToMeshBuffersR9GfxDeviceR11MeshBuffersRK16DrawBuffersRange17ShaderChannelMaskS6_
dqd:_Hash_GetObjectData_m315532943
lRa:__ZN7ApiGLES17DeleteFramebufferERN2gl6HandleILNS0_10ObjectTypeE9EEES3_
rTa:__ZN15UniformTFMethod13MapBoneBufferEj
KDf:_RecordProtocol_SendAlert_m2816808523
f7c:__ZN2UI14CanvasRendererD2Ev
Bui:_Animator_SetFloat_m956158019
rZi:_MethodCall_get_LogicalCallContext_m3769562079
UVj:__ZN6il2cpp6icalls8mscorlib6System5Array8SetValueEP11Il2CppArrayP12Il2CppObjectS5_
DKe:_SynchronizedReader_Read_m1399666181
tdg:_MonoEvent_get_Name_m2796714646
ena:__Z9SetupArgviPPKc
Uzd:_PointerEventData_set_worldNormal_m2025727441
REf:_Context_get_SentConnectionEnd_m3114190867
evb:__ZN12CubemapArray23VirtualRedirectTransferER24GenerateTypeTreeTransfer
wda:__ZN12FileAccessor4OpenER15FileSystemEntry14FilePermission16FileAutoBehavior
Ngf:_ReadOnlyCollection_1__ctor_m2364452928_gshared
J3j:__ZN6il2cpp2os9Directory6CreateERKNSt3__212basic_stringIcNS2_11char_traitsIcEENS2_9allocatorIcEEEEPi
qui:_AnimatorControllerPlayable_Play_m1490151611_AdjustorThunk
ASc:__ZL12PhysxJobFuncPN5physx10PxBaseTaskE
deb:__ZN23TransformChangeDispatch32QueueTransformChangeIfHasChangedERK15TransformAccess
xzd:_PointerEventData_set_clickTime_m3931922487
_2:__ZNSt3__24listIP19CloudServiceHandler13stl_allocatorIS2_L18MemLabelIdentifier86ELi16EEE6removeERKS2_
Vxe:_NumberFormatter_AppendNonNegativeNumber_m629862866
Hva:__ZNSt3__26vectorINS_4pairIN9ShaderLab16FastPropertyNameEN18UnityPropertySheet11UnityTexEnvEEENS_9allocatorIS6_EEE21__push_back_slow_pathIKS6_EEvRT_
_Si:_ResourceInfo__ctor_m2401359321_AdjustorThunk
c4j:__ZN6il2cpp2os26LibraryNamePrefixAndSuffixC2EPKcS3_
V_d:_Hashtable__ctor_m392789568
ahj:_PacdotSpawner_Start_m1461223552
Wkg:_Mutex_CreateMutex_internal_m2352956576
qjg:_UTF7Encoding__cctor_m4192443836
CBi:_Component_SendMessage_m2241432133
Uwc:__Z31GUIStyle_CUSTOM_SetFontInternalP12Il2CppObjectS0_
B:tempValue
mfk:__ZN6il2cpp8metadata24Il2CppGenericContextHash4HashEPK20Il2CppGenericContext
EBe:_Int16_System_IConvertible_ToSingle_m3277935657
A9:__Z29scripting_class_from_fullnamePKcS0_S0_
kCh:__ZL97GameObject_t1756533147_CustomAttributesCacheGenerator_GameObject_GetComponentInParent_m1235194528P21CustomAttributesCache
Ygi:_Raycast3DCallback_Invoke_m2271859924
yB:__ZN26AnimatorControllerPlayable18DeallocateBindingsEv
wui:_AnimatorControllerPlayable_HasState_m3003093532
jX:__ZN11AudioSource19CreateOpenALRolloffEfff
tZc:_UNITY_FT_Stream_ReadAt
F0h:_Enumerator_get_CurrentKey_m2387752419_AdjustorThunk
gzg:_GUIStyle_get_lineHeight_m2132859383
fP:__Z87Register_UnityEngine_Animations_AnimatorControllerPlayable_INTERNAL_CALL_GetFloatStringv
oDj:__ZN15dense_hashtableINSt3__24pairIK10KeyWrapperIN6il2cpp5utils13dynamic_arrayIPK10Il2CppTypeLj4EEEEPFvvEEESA_NS3_8metadata19Il2CppSignatureHashEN14dense_hash_mapISA_SD_SG_NSA_14EqualsComparerINSF_22Il2CppSignatureCompareEEENS0_9allocatorISE_EEE9SelectKeyESK_SM_E9set_valueEPSE_RKSE_
CEi:_UnityEvent_FindMethod_Impl_m3303953986
rpg:_UInt16_System_IConvertible_ToBoolean_m887616848
k_:__ZN11AudioModule22CreateAudioClipFromWWWEP10IWWWStreamPKcbbi
gig:_StringBuilder_set_Length_m3039225444
Mbf:_Collection_1_System_Collections_IList_Contains_m3870109702_gshared
ohe:_Array_InternalArray__ICollection_Contains_TisRaycastResult_t21186376_m3188614988_gshared
K6d:_CultureAwareComparer_GetHashCode_m3681260951
b9c:__Z13RegisterClassIN2UI11CanvasGroupEEvv
z4b:__ZN6prcoreL11inner_clearILj4EEEvPhjjj
Af:_emscripten_glClear
fhi:_Selectable__ctor_m1440593935
Utj:__ZL25UnresolvedVirtualCall_132P12Il2CppObject17Color_t2020392075faaaPK10MethodInfo
xha:__ZNK8Playable6HandleEv
Fba:__ZN14MessageHandler28MessageIDToMessageIdentifierEi
JMf:_HttpRequestCreator_Create_m3607509610
WAb:__ZNK11SpriteAtlas20GetRuntimeRenderDataEPK6Sprite
Kck:__ZN6il2cpp2vm10WaitHandle19NewManualResetEventEb
f9i:_UISystemProfilerApi_EndSample_m2059427490
eif:_ReadOnlyCollection_1_System_Collections_IList_Contains_m3707723158_gshared
otg:_Version_GetHashCode_m880841176
qz:__ZN7mecanim14ValueArrayCopyILb0EEEvPKNS_10ValueArrayEPS1_
NN:__Z51Register_UnityEngine_Animator_get_hasBoundPlayablesv
pxj:_Nullable_1_ToString_m1238126148_AdjustorThunk
Sd:emscriptenWebGLGetUniform
zdb:__ZL10CleanUpJobP20CullingGroupsJobData
iWd:_Char_CompareTo_m3044885427_AdjustorThunk
EGe:_FileStream_GetSecureFileName_m508045384
GMi:_InternalEnumerator_1_System_Collections_IEnumerator_get_Current_m2035754659_AdjustorThunk
QDb:__ZN10MeshFilter23VirtualRedirectTransferER24GenerateTypeTreeTransfer
k0a:__ZN13RenderManager15BatchModeUpdateEv
bAb:__ZN14SafeBinaryRead21TransferSTLStyleArrayI13dynamic_arrayI8Vector2fLj4EEEEvRT_17TransferMetaFlags
Dva:__ZN17PersistentManager51InstanceIDToLocalSerializedObjectIdentifierInternalEiR31LocalSerializedObjectIdentifier
ZLc:__ZN10ClipperLib7Clipper15SetWindingCountERNS_5TEdgeE
x2c:_UNITY_FT_Create_Class_cff_services
ud:_glVertexAttribIPointer
$id:_HMAC_set_HashName_m457235014
Qfc:__ZNK6Sprite10GetPaddingE20SpriteRenderDataMode
yge:_Array_InternalArray__ICollection_Contains_TisTableRange_t2011406615_m605506746_gshared
N6h:_Dictionary_2_Add_m1296007576_gshared
E5d:_Decimal_op_Explicit_m729046406
i2f:_CryptoConfig_CreateFromName_m2169102076
MId:_Graphic_OnEnable_m2900261811
l2f:_CryptographicUnexpectedOperationException__ctor_m3552441227
UXd:_ArrayListWrapper_Clear_m321161741
MNd:_InputField_LineDownCharacterPosition_m2690468785
sZc:_UNITY_ft_glyphslot_alloc_bitmap
ite:_Array_Sort_TisVector2_t2243707579_TisVector2_t2243707579_m2582252549_gshared
rrg:_UInt64_System_IConvertible_ToDouble_m2828923873
C7b:__ZZN2UI13RectTransform15InitializeClassEvEN31FunctorImpl_62kTransformChanged4CallEPviR11MessageData
d_e:_List_1_System_Collections_IList_set_Item_m1129584681_gshared
O_c:_ft_raster1_render
Hqc:__Z57Register_UnityEngine_RectTransform_INTERNAL_set_anchorMaxv
ZUe:_List_1_set_Capacity_m491101164_gshared
Djk:__ZNKSt3__221__basic_string_commonILb1EE20__throw_length_errorEv
Eig:_StringBuilder_Insert_m1733097906
yJf:_SslStreamBase_get_HashStrength_m480059173
XRa:__ZN18GfxFramebufferGLES13ReadbackImageER14ImageReferenceiiiiii
X4h:_ValueCollection_System_Collections_Generic_ICollectionU3CTValueU3E_Clear_m3271993638_gshared
A1d:_Enumerator_MoveNext_m1419609883
TS:__ZN4FMOD7Channel19setReverbPropertiesEPK29FMOD_REVERB_CHANNELPROPERTIES
dba:__ZN13MonoBehaviour22GetScriptFullClassNameEv
Z9i:_Vector2__cctor_m3670745621
TMf:_ServicePointManager_FindServicePoint_m3137356168
rig:_StringBuilder_Append_m3541816491
SBa:__ZN20SphericalHarmonicsL211AddWeightedERKS_f
kAd:_PointerInputModule_GetPointerData_m1695674453
XTg:__Z90RuntimeInvoker_Void_t1841601450_RuntimeObject_RuntimeObject_RuntimeObject_SByte_t454417549PFvvEPK10MethodInfoPvPS4_
SQb:__Z19TransferField_ArrayI17RemapPPtrTransfer27Converter_SimpleNativeClassI8GUIStyleEEvRK23StaticTransferFieldInfoR31RuntimeSerializationCommandInfoRT0_
F6d:_Convert_ToUInt64_m345450801
sxj:_Predicate_1_BeginInvoke_m2559992383_gshared
czc:__ZN9JSONWrite8TransferI10ColorRGBAfEEvRT_PKc17TransferMetaFlags
ACi:_Debug_Log_m920475918
j0e:_List_1_Find_m1270109362_gshared
zba:__Z25scripting_method_get_name18ScriptingMethodPtr
Qqc:__Z35Register_UnityEngine_Resources_Loadv
rPb:__Z19TransferField_ArrayI14SafeBinaryRead16Converter_StringEvRK23StaticTransferFieldInfoR31RuntimeSerializationCommandInfoRT0_
_ik:_rename
Zak:_GC_exit_check
M8i:_Transform_INTERNAL_CALL_TransformDirection_m2899991790
AOe:_NotSupportedException__ctor_m3232764727
Os:__ZN7mecanim9animation9DenseClip8TransferI14SafeBinaryReadEEvRT_
hMf:_TypeConverterAttribute_Equals_m2330345916
lYg:__Z90RuntimeInvoker_Boolean_t3825574718_Int32_t2071877448_Int32U26_t455636984_Int32_t2071877448PFvvEPK10MethodInfoPvPS4_
eGe:_MonoIO_CreateDirectory_m379525469
tE:__ZN9BlobWrite8TransferI22OffsetPtrArrayTransferI9OffsetPtrIN7mecanim12statemachine18StateMachineMemoryEEEEEvRT_PKc17TransferMetaFlags
VWc:_UNITY_ft_smooth_renderer_class_pic_free
P0e:_List_1_System_Collections_IList_Remove_m3763718607_gshared
BY:__ZN19AudioPlayableOutput22OnConnectionHashChangeEv
jtd:_String_Concat_m2000667605
Dmi:_Text_set_lineSpacing_m3040793467
aGj:__ZN6il2cpp2os19SocketHandleWrapperC2ERKS1_
l6j:__ZN6il2cpp2vm6String8NewUtf16EPKDsi
g3j:__ZN6il2cpp2os10ThreadImpl12QueueUserAPCEPFvPvES2_
rdd:__ZN22BaseUnityConnectClient10QueueEventERN11UnityEngine15CloudWebService17CloudServiceEventEPKcjb
uDg:_Mesh_DefaultDimensionForChannel_m153181993
$we:_ExecuteEvents_GetEventHandler_TisRuntimeObject_m3333041576_gshared
n4c:_UNITY_FT_Hypot
KSd:_BitConverter_ToInt64_m1329623425
j8b:__ZN8RendererC2E12RendererType18MemLabelIdentifier18ObjectCreationMode
FJj:_il2cpp_class_is_abstract
Kf:_emscripten_glGetError
xRj:__ZN15dense_hashtableINSt3__24pairIK10KeyWrapperIPK14Il2CppAssemblyEPK22Il2CppMonoAssemblyNameEES6_N6il2cpp5utils11PointerHashIS4_EEN14dense_hash_mapIS6_SA_SF_NS6_14EqualsComparerINS0_8equal_toIS5_EEEENS0_9allocatorISB_EEE9SelectKeyESK_SM_E14squash_deletedEv
GT:__Z14FMOD_FILE_SeekPvjS_
RYi:_MethodCall_get_Properties_m1893707917
g2h:_ShimEnumerator_get_Entry_m2387156530_gshared
ODj:__ZN14dense_hash_mapI10KeyWrapperIN6il2cpp5utils13dynamic_arrayIPK10Il2CppTypeLj4EEEEPFvvENS1_8metadata19Il2CppSignatureHashENS8_14EqualsComparerINSB_22Il2CppSignatureCompareEEENSt3__29allocatorINSG_4pairIKS8_SA_EEEEEC2EjRKSC_RKSF_
Xeb:__ZNK13RenderTexture32CalculateNeedsInvertedProjectionEv
umb:__ZN10systeminfo18GetOperatingSystemEv
Sf:emscriptenWebGLGet
AKg:_Rect_GetHashCode_m559954498_AdjustorThunk
Gda:__Z19CanReplaceComponentRN5Unity9ComponentEPKNS_4TypeEPN4core12basic_stringIcNS5_20StringStorageDefaultIcEEEE
S9b:__ZN12CubemapArray11InitTextureEiii13TextureFormatb
nic:__Z17GetSceneBuildInfoRKN4core12basic_stringIcNS_20StringStorageDefaultIcEEEEiR14SceneBuildInfo
VCj:__ZNSt3__27__sort4IRN6il2cpp5utils11collections13ArrayValueMapIPK10Il2CppType17Il2CppInteropData26InteropDataToTypeConverterNS1_8metadata14Il2CppTypeLessENSA_26Il2CppTypeEqualityComparerEE12SortComparerEPS8_EEjT0_SH_SH_SH_T_
IDg:_Mesh_SetUVs_m841280343
jQf:_X509Certificate2_get_SignatureAlgorithm_m3069898012
KDe:_Int64_System_IConvertible_ToSingle_m1678482180
Szg:_GUIStyle_INTERNAL_CALL_Internal_CalcSizeWithConstraints_m1203344891
aF:__ZN7mecanim5human13HumanFixTwistEPKNS0_5HumanEPNS_8skeleton13SkeletonPoseTIN4math4trsXEEES9_iiRKf
l8a:__ZL24AssignProjectorQueuesJobP30AssignProjectorQueuesJobHeader
Kmg:_TimeSpan_get_Hours_m3804628138
t0j:__ZN14dense_hash_mapI10KeyWrapperIP12Il2CppObjectEN6il2cpp2gc9CachedCCWENS4_5utils11PointerHashIS1_EENS3_14EqualsComparerINSt3__28equal_toIS2_EEEENSB_9allocatorINSB_4pairIKS3_S6_EEEEEC2EjRKS9_RKSE_
uDj:__ZN15dense_hashtableINSt3__24pairIK10KeyWrapperIN6il2cpp5utils13dynamic_arrayIPK10Il2CppTypeLj4EEEEPFvvEEESA_NS3_8metadata19Il2CppSignatureHashEN14dense_hash_mapISA_SD_SG_NSA_14EqualsComparerINSF_22Il2CppSignatureCompareEEENS0_9allocatorISE_EEE9SelectKeyESK_SM_E4swapERSP_
w2b:__ZN9ShaderLab20SerializedSubProgram14SetConstBufferEPKci
_wf:_ArgumentNullException__ctor_m911049464
goj:_Check_Source_m3385315029
kmf:_Comparison_1_Invoke_m345024424_gshared
O0c:_cf2_getStdVW
mjf:_ReadOnlyCollection_1_System_Collections_IList_Insert_m3936197025_gshared
w6:__Z40DebugStringToFilePostprocessedStacktraceRK21DebugStringToFileData
YDc:__Z29Transfer_Blittable_ArrayFieldI8JSONReadjEvRT_R9ArrayInfoRK23StaticTransferFieldInfo
bGg:_Object_GetInstanceID_m1920497914
gMi:_InternalEnumerator_1_get_Current_m314017974_AdjustorThunk
xg:__setLetterbox
MHe:_MemoryStream__ctor_m1043059966
k7i:_TextGenerator_Populate_Internal_m1817393161
yWf:__ZN21InterfaceFuncInvoker3IP12Il2CppObjectP6Type_t28StreamingContext_t1417235061PS1_E6InvokeEjP11Il2CppClassS1_S3_S4_S5_
KCb:__ZNSt3__26vectorI17BlendShapeChannelNS_9allocatorIS1_EEE6assignINS_11__wrap_iterIPS1_EEEENS_9enable_ifIXaasr21__is_forward_iteratorIT_EE5valuesr16is_constructibleIS1_NS_15iterator_traitsISA_E9referenceEEE5valueEvE4typeESA_SA_
VOd:_LayoutElement_set_preferredWidth_m3072758716
UOf:_AsnEncodedData_ToString_m724151831
J0a:__ZN11TimeManager11GetRealtimeEv
wak:_GC_print_block_list
Agd:__ZN20UnityWebRequestProtoI19TransportJavaScript16AtomicRefCounter14RedirectHelper14ResponseHelper15DownloadHandler13UploadHandler12HeaderHelper14AsyncOperationE26Job_ExecuteUnityWebRequestEPS8_
TT:__ZN29AudioEffectInternalDefinitionC2EP26UnityAudioEffectDefinitionb
fdg:_MonoMethodInfo_GetDeclaringType_m4186531677
wXf:_SoapTypeAttribute_SetReflectionObject_m1566293812
Pqj:_Enumerator_System_Collections_IEnumerator_Reset_m2573763156_AdjustorThunk
iZf:_RemotingServices_CreateClientProxy_m1631035355
Xrg:_UInt64_ToString_m2892887310
MCa:_stbir_resize
A5j:__ZN15dense_hashtableINSt3__24pairIK10KeyWrapperIPK19Il2CppGenericMethodEP10MethodInfoEES6_N6il2cpp8metadata23Il2CppGenericMethodHashEN14dense_hash_mapIS6_S9_SD_NS6_14EqualsComparerINSC_26Il2CppGenericMethodCompareEEENS0_9allocatorISA_EEE9SelectKeyESH_SJ_EC2ERKSM_j
wOc:__ZN24b2ChainAndCapsuleContact6CreateEP9b2FixtureiS1_iP16b2BlockAllocator
CXa:__Z37ReadDirectoryInfo_UnityWebAndUnityRawR12FileAccessorRKN20ArchiveStorageHeader6HeaderERNS1_13DirectoryInfoE
f8:__ZNSt3__26__treeINS_12__value_typeIPKciEENS_19__map_value_compareIS3_S4_15compare_tstringIS3_ELb1EEENS_9allocatorIS4_EEE7destroyEPNS_11__tree_nodeIS4_PvEE
iai:_Dictionary_2_ToTValue_m1381983709_gshared
rOe:_MulticastDelegate_KPM_m1592985119
xef:_Collection_1_ConvertItem_m3941916604_gshared
v5a:__ZN20DynamicPropertySheet14SetValueQueuedEN9ShaderLab16FastPropertyNameEN19ShaderPropertySheet12PropertyTypeEjNS2_8SetFlagsE
Q7c:__ZN2UI6Canvas26MarkAllNestedCanvasesDirtyEv
EZj:__ZN6il2cpp2vm12ReboxIfBoxedEP14Il2CppIUnknownP11Il2CppClass
M_e:_List_1__ctor_m2766376432_gshared
Kkb:__ZN25PathNamePersistentManagerD2Ev
Y9:__ZN17PersistentManager48IntegrateObjectAndUnlockIntegrationMutexInternalEi
Jka:__ZZ29InitializeSortingGroupManagerPvEN44PostLateUpdateSortingGroupsUpdateRegistrator7ForwardEv
yp:__ZN6Object12SetHideFlagsENS_9HideFlagsE
IPc:__ZN9b2Fixture11SynchronizeEP12b2BroadPhaseRK11b2TransformS4_
tqk:_emscripten_glGetFramebufferAttachmentParameteriv__wrapper
R0a:__ZN13RendererScene15InitializeUmbraEv
dvi:_AnimatorTransitionInfo_IsName_m2561957738_AdjustorThunk
CBa:__Z28CalculateGlobalMatrixInverse23TransformAccessReadOnly
gBc:__ZN4PPtrI6ObjectE8TransferI9JSONWriteEEvRT_
ACb:__ZN13dynamic_arrayI12BoneWeights4Lj16EE18resize_initializedEjRKS0_12ResizePolicy
fAd:_PointerEventData_ToString_m1218584363
yjg:_UTF7Encoding_GetCharCount_m2589913583
aba:__ZN13MonoBehaviour19ReleaseMonoInstanceEv
DIe:_MemoryStream_CalculateNewCapacity_m3533542025
kfk:__ZN6il2cpp6icalls8mscorlib6System6Object7GetTypeEP12Il2CppObject
jng:_TimeSpan_Equals_m4102942751_AdjustorThunk
W4h:_ValueCollection_System_Collections_Generic_ICollectionU3CTValueU3E_Add_m1903672223_gshared
Bgd:__ZN12HeaderHelper14SetUnvalidatedERKN4core12basic_stringIcNS0_20StringStorageDefaultIcEEEES6_b
mQ:__ZN4FMOD6SoundI7releaseEv
xEb:__ZN14SpriteRenderer13AwakeFromLoadE17AwakeFromLoadMode
qYa:__ZN10MemoryFile9SetLengthEy
YJ:__ZN7mecanim10ValueArray8TransferI19StreamedBinaryWriteILb0EEEEvRT_
nxb:__ZN14SafeBinaryRead21TransferSTLStyleArrayI13dynamic_arrayI7Hash128Lj8EEEEvRT_17TransferMetaFlags
DKb:__Z28scripting_class_is_interface17ScriptingClassPtr
Jh:_glTexStorage2D
k2b:__ZNK9ShaderLab10SubProgram14EnsureCompiledEv
ALg:__Z79RuntimeInvoker_Boolean_t3825574718_RuntimeObject_RuntimeObject_SByte_t454417549PFvvEPK10MethodInfoPvPS4_
E$f:_ObjectManager_RecordFixup_m3572285566
x0d:_SortedList_InitTable_m460350503
pba:__Z18BuildScriptClassId17ScriptingClassPtr
_Ii:_InternalEnumerator_1_get_Current_m4279678504_AdjustorThunk
wac:__ZN8Renderer28HandleParentHierarchyChangesEPK23TransformAccessReadOnlyj
Gma:__ZL31DeleteLastPathNameComponentImplRKN4core12basic_stringIcNS_20StringStorageDefaultIcEEEEPKc
Z5b:__Z13RegisterClassI18DelayedCallManagerEvv
Ddd:__ZN18UnityConnectClient15GetCloudServiceEv
eRb:__Z18Transfer_BlittableI24GenerateTypeTreeTransferLb0EiEvRK29SerializationCommandArgumentsR31RuntimeSerializationCommandInfo
aOc:__ZN15b2CircleContact6CreateEP9b2FixtureiS1_iP16b2BlockAllocator
xKb:__ZL28SerializationCommandGroupForRK31TransferFunctionScriptingTraits17ScriptingClassPtr17ScriptingFieldPtrRK20CoreScriptingClasses
Rpb:__ZN10TagManager32RegisterDefaultTagsAndLayerMasksEv
gIg:_PlayableHandle_SetDuration_m1990009798_AdjustorThunk
BEj:__ZN15dense_hashtableINSt3__24pairIK10KeyWrapperIPKcEP11Il2CppClassEES5_N6il2cpp5utils11StringUtils12StringHasherIS4_EEN14dense_hash_mapIS5_S8_SE_NS5_14EqualsComparerINSB_13VmStringUtils21CaseSensitiveComparerEEENS0_9allocatorIS9_EEE9SelectKeyESJ_SL_E15insert_noresizeERKS9_
flg:_SynchronizationLockException__ctor_m549086841
qXd:_ArrayList_InsertRange_m1478230997
DMa:__ZN4gles8InitCapsEP7ApiGLESP12GraphicsCapsR16GfxDeviceLevelGL
rwa:__ZN6prcore14BlitImageFloatERK14ImageReferenceRS0_NS0_8BlitModeE
WDa:__Z24CalculateVertexLightDataRK15SharedLightDataR14GfxVertexLight
TCg:_Matrix4x4_Equals_m1321236479_AdjustorThunk
ri:_glEnable
Cza:__ZN15dense_hashtableINSt3__24pairIKiiEEi21InstanceIDHashFunctorN14dense_hash_mapIiiS4_NS0_8equal_toIiEE13stl_allocatorIS3_L18MemLabelIdentifier1ELi16EEE9SelectKeyES7_SA_E12maybe_shrinkEv
u3a:__ZNK25CameraStackRenderingState21GetImageEffectTextureEb
F0f:_RuntimeMethodHandle__ctor_m2437574937_AdjustorThunk
Szc:__Z35Transfer_Blittable_FixedBufferFieldI9JSONWriteiEvRK29SerializationCommandArgumentsR31RuntimeSerializationCommandInfo
Ipg:_UInt16_System_IConvertible_ToInt64_m2835280558_AdjustorThunk
Yzh:__ZL53g_UnityEngine_Assembly_CustomAttributesCacheGeneratorP21CustomAttributesCache
Wij:_Predicate_1_BeginInvoke_m3926587117_gshared
fIb:__ZNSt3__26vectorI4PPtrI6ObjectE13stl_allocatorIS3_L18MemLabelIdentifier51ELi16EEE6assignINS_11__wrap_iterIPS3_EEEENS_9enable_ifIXaasr21__is_forward_iteratorIT_EE5valuesr16is_constructibleIS3_NS_15iterator_traitsISD_E9referenceEEE5valueEvE4typeESD_SD_
qB:__ZN26AnimatorControllerPlayable17ProcessRootMotionEP35AnimationPlayableEvaluationConstantP32AnimationPlayableEvaluationInputP33AnimationPlayableEvaluationOutput
SXe:_List_1_get_Item_m1231764300_gshared
SLg:__Z94RuntimeInvoker_Boolean_t3825574718_Int32_t2071877448_SByte_t454417549_ExceptionU26_t1467204777PFvvEPK10MethodInfoPvPS4_
XFd:_DefaultControls_CreateToggle_m1568873127
U9h:_Dictionary_2_InitArrays_m2270022740_gshared
lcd:__ZN11UnityEngine7Connect15DeviceInfoEvent16CollectExtraInfoEv
Pig:_UnicodeEncoding_GetChars_m3765282346
yEe:_IntPtr__ctor_m4104029105
sNi:_InternalEnumerator_1_System_Collections_IEnumerator_get_Current_m771161214_AdjustorThunk
pNe:_MonoType_get_attributes_m1493788675
Nck:__ZN6il2cpp6icalls8mscorlib6System10Reflection9FieldInfo25internal_from_handle_typeE12Il2CppIntPtrS5_
x4d:_Convert_ToDouble_m4236754739
lHd:_Dropdown_CreateItem_m2702141380
bkh:__ZL48Stack_t1043988394_CustomAttributesCacheGeneratorP21CustomAttributesCache
Lo:FUNCTION_TABLE_viifi
Mo:FUNCTION_TABLE_viiff
y$:__Z75AudioPlayableGraphExtensions_CUSTOM_INTERNAL_CALL_InternalCreateAudioOutputR14HPlayableGraphP12Il2CppStringP15HPlayableOutput
qdg:_MonoEvent_GetAddMethod_m4289563120
hih:__ZL37Type_t_CustomAttributesCacheGeneratorP21CustomAttributesCache
C4c:_UNITY_tt_face_free_hdmx
jPc:__ZNSt3__26__sortIRN18Overlap2DQueryBase29ColliderHitsByDepthComparitorEPP10Collider2DEEvT0_S7_T_
fLj:__ZN6il2cpp2vm14TypeNameParser5ParseEb
Mgi:_ReflectionMethodsCache__ctor_m1835220
Dfd:__ZN23UnityPurchasingSettingsC2Ev
Qce:_Double_ToString_m1864290157
lek:__ZN6il2cpp2os5Mutex6UnlockEv
w_j:__ZNK24NamespaceAndNamePairHashclERKNSt3__24pairIPKcS3_EE
SCa:__ZL37stbir__resample_horizontal_downsampleP11stbir__infoiPf
_za:__ZNK5Unity9Component38MarkGameObjectAndComponentDependenciesER27GarbageCollectorThreadState
L6:__ZL16OutOfMemoryErrorjj18MemLabelIdentifieriPKc
UYd:_SynchronizedArrayListWrapper_Contains_m2259439339
Qba:__ZNK11TypeManager15ClassNameToRTTIEPKcb
uYb:__Z18Transfer_BlittableI18StreamedBinaryReadILb0EELb1EdEvRK29SerializationCommandArgumentsR31RuntimeSerializationCommandInfo
uAe:_Guid__ctor_m2599802704
cHe:_FileStream_get_CanRead_m4148920720
gPa:__ZN4crnd12symbol_codec32decode_receive_static_data_modelERNS_25static_huffman_data_modelE
x7b:__ZN18ScriptingArguments8AddFloatEf
ize:_GregorianCalendar_set_CalendarType_m2438362222
zhe:_Array_InternalArray__ICollection_Contains_TisVector2_t2243707579_m3625698589_gshared
KAc:__Z18Transfer_BlittableI9JSONWriteLb0EaEvRK29SerializationCommandArgumentsR31RuntimeSerializationCommandInfo
M0:__ZN11UnityEngine15CloudWebService14DataDispatcher34OnSessionContainerArchivedAndReadyERNS0_16SessionContainerE
PKc:__ZN7b2World11CreateJointEPK10b2JointDef
Tze:_NumberFormatInfo_GetFormat_m3247563525
BCf:_CipherSuiteCollection__ctor_m2154226461
mTb:__Z18Transfer_BlittableI19StreamedBinaryWriteILb0EELb0E8Vector3fEvRK29SerializationCommandArgumentsR31RuntimeSerializationCommandInfo
kvg:_RectOffset__ctor_m2227510254
v_b:__ZN14SafeBinaryRead19TransferSTLStyleMapINSt3__23mapIN4core12basic_stringIcNS3_20StringStorageDefaultIcEEEEiNS1_4lessIS7_EENS1_9allocatorINS1_4pairIKS7_iEEEEEEEEvRT_17TransferMetaFlags
jYc:_gray_move_to
m3f:_DSAParameters_t1872138834_marshal_pinvoke
FYi:_ConstructionCall_InitDictionary_m4046452035
jQj:__ZN6il2cpp2vm10Reflection14GetEventObjectEP11Il2CppClassPK9EventInfo
UDf:_TlsStream_Write_m2271546135
fic:__Z30RegisterValidateMethodCallbackiPF18ScriptingMethodPtrS_17ScriptingClassPtrP6ObjectEPKc
Nfe:_CultureInfo_ConstructInternalLocaleFromCurrentLocale_m1342751405
Uhg:_Latin1Encoding_GetString_m3553289597
HZc:_tt_cmap_init
La:invoke_viidi
et:__ZNSt3__26vectorIN13AnimationClip9PPtrCurveE13stl_allocatorIS2_L18MemLabelIdentifier25ELi16EEE6assignINS_11__wrap_iterIPS2_EEEENS_9enable_ifIXaasr21__is_forward_iteratorIT_EE5valuesr16is_constructibleIS2_NS_15iterator_traitsISC_E9referenceEEE5valueEvE4typeESC_SC_
b0j:__ZN15dense_hashtableI10KeyWrapperIP18Il2CppGenericClassES3_N6il2cpp8metadata22Il2CppGenericClassHashEN14dense_hash_setIS3_S6_NS3_14EqualsComparerINS5_25Il2CppGenericClassCompareEEENSt3__29allocatorIS3_EEE8IdentityESA_SD_E12maybe_shrinkEv
b7b:__ZN9TextAssetC2E18MemLabelIdentifier18ObjectCreationMode
ZCi:_Display_RecreateDisplayList_m3412638488
Rvk:_emscripten_glCheckFramebufferStatus__wrapper
TUj:__ZNK15dense_hashtableINSt3__24pairIK10KeyWrapperIP11Il2CppClassES4_EES5_N6il2cpp8metadata16SZArrayClassHashEN14dense_hash_mapIS5_S4_SA_NS5_14EqualsComparerINS9_19SZArrayClassCompareEEENS0_9allocatorIS7_EEE9SelectKeyESE_SG_E12test_deletedEj
qDc:__Z18Transfer_BlittableI8JSONReadLb0EdEvRK29SerializationCommandArgumentsR31RuntimeSerializationCommandInfo
A7g:__Z83RuntimeInvoker_Boolean_t3825574718_NavigationU26_t3929175072_Navigation_t1571958496PFvvEPK10MethodInfoPvPS4_
GI:__ZN7mecanim9animation21BlendTreeNodeConstant35Transfer_4_0_BackwardsCompatibilityI14SafeBinaryReadEEvRT_
zlg:_Thread_ClrState_m822263449
Vnf:_SimpleCollator_LastIndexOfOrdinalIgnoreCase_m550798345
Lzg:_GUIStyle_INTERNAL_CALL_Internal_GetCursorStringIndex_m3074318281
$Ha:__ZNK9GfxDevice13GetViewMatrixEv
kAa:__ZN17RemapPPtrTransferC2E24TransferInstructionFlagsb
iI:__ZN14SafeBinaryRead21TransferSTLStyleArrayI22OffsetPtrArrayTransferIiEEEvRT_17TransferMetaFlags
Lca:__ZN8TypeTree8BlobReadERPKhS1_ib
n7h:_Dictionary_2_System_Collections_Generic_ICollectionU3CSystem_Collections_Generic_KeyValuePairU3CTKeyU2CTValueU3EU3E_Remove_m3080541539_gshared
vAa:__ZN18LoadSceneOperation23GetAllowSceneActivationEv
Oqb:__ZN6CameraD0Ev
upf:_ModulusRing_Multiply_m386339435
Qia:__ZN31CanvasBatchIntermediateRenderer16StaticInitializeEPv
DJd:_GraphicRaycaster_U3CRaycastU3Em__0_m3971200721
Ghf:_ReadOnlyCollection_1_System_Collections_IList_RemoveAt_m3004588099_gshared
CA:__ZN7mecanim12AndValueMaskILb0EEEvPKNS_14ValueArrayMaskEPS1_
d4d:_Decimal_op_Implicit_m4246329390
axf:_ArgumentNullException__ctor_m2252076819
ugb:__ZN10GameObjectC2E18MemLabelIdentifier18ObjectCreationMode
lXc:_raccess_guess_apple_double
iLf:_ListDictionary_GetEnumerator_m1511032609
a$f:_SerializationInfo__ctor_m4016423422
cQa:__ZL18ProgramUniform1uivPK7ApiGLESjiihPKv
bac:__ZN14Texture2DArray13RebuildMipMapEv
vAj:__ZN13Il2CppHashSetIPK17Il2CppGenericInstN6il2cpp8metadata21Il2CppGenericInstHashENS4_24Il2CppGenericInstCompareENSt3__29allocatorI10KeyWrapperIS2_EEEEC2EjRKS5_RKS6_
y4j:__ZN6il2cpp2gc16GarbageCollector14RemoveWeakLinkEPPv
x2b:__ZN9ShaderLab20SerializedSubProgram14AddVectorParamEPKcii15ShaderParamTypei
nkf:_ReadOnlyCollection_1_System_Collections_IEnumerable_GetEnumerator_m1734360860_gshared
kTi:_ResourceSet_ReadResources_m1669023823
jvf:_PKCS12_RemoveCertificate_m1590055870
FVj:__ZN6il2cpp2vm6Thread7SetNameEP12Il2CppThreadP12Il2CppString
Sna:__ZN13ScreenManager18SetAllowCursorLockEb
e2:__ZN11UnityEngine15CloudWebService10RestClientINS0_23WebRequestRestHeaderMapEE16SetRequestHeaderERKN4core12basic_stringIcNS4_20StringStorageDefaultIcEEEESA_
XIb:__ZN30RuntimeInitializeOnLoadManager15ClassMethodInfo8TransferI14SafeBinaryReadEEvRT_
MYh:__ZL73CanvasScaler_t2574720772_CustomAttributesCacheGenerator_m_ScreenMatchModeP21CustomAttributesCache
J_:__ZL22InitializeModule_Audiov
Glb:__ZN16MemoryFileSystem8IsLockedERK13FileEntryData
y9i:_Vector2_get_Item_m2792130561_AdjustorThunk
Zcg:_MonoCMethod_Invoke_m931478014
qNg:__Z86RuntimeInvoker_Int32_t2071877448_Int16_t4041245914_Int32_t2071877448_Int32_t2071877448PFvvEPK10MethodInfoPvPS4_
rTi:_SatelliteContractVersionAttribute__ctor_m2605651717
Yk:_emscripten_glBindRenderbuffer
Gwc:__Z32GUIStyle_Set_Custom_PropClippingP12Il2CppObjecti
Uak:_GC_dirty_init
rRd:_Array_Copy_m1969461849
u_f:_MessageFormatter_ReadMethodResponse_m4134629501
A1j:__ZN6il2cpp2vm5Field14GetValueObjectEP9FieldInfoP12Il2CppObject
S8c:__ZNK2UI6Canvas16GetTargetDisplayEv
vcj:_PKCS12_GetSymmetricAlgorithm_m3196291685
Yde:_Environment_get_OSVersion_m1247315981
zga:__ZN6Object17FindObjectsOfTypeEPKN5Unity4TypeER13dynamic_arrayIPS_Lj4EEb
WJb:__ZN13MonoBehaviour17RemoveFromManagerEv
nrb:__ZN12ImageFilters14AddImageFilterERK11ImageFilter
Nzb:__ZL11DecodeValuePPKcS0_
H2h:_ShimEnumerator_MoveNext_m2013866013_gshared
x5:__ZN13MemoryManagerC2Ev
_Sa:__ZN12SkinMeshInfo10DeallocateEPS_
H8i:_Transform_SetParent_m1963830867
D_a:__ZN20ArchiveStorageReader28AcquireAndPrefillUnusedBlockEjPNS_11CacheResultE
W9b:__Z12NHxRoughnessIA4_tEvP9Texture2DPT_iiii
_ga:__ZN18AsyncUploadManagerD2Ev
l4b:__ZN9Transform5ResetEv
ZSb:__Z22TransferField_NonArrayI24GenerateTypeTreeTransfer16Converter_StringEvRK23StaticTransferFieldInfoR31RuntimeSerializationCommandInfoRT0_
yZc:_UNITY_FT_CMap_New
Ina:__Z17MainLoopKeepalivePv
RZi:_MatchCollection__ctor_m1944681790
Ejd:_HMACSHA512__ctor_m1667460019
rdb:__Z24ScheduleCullingAllGroupsR8JobFenceRK22SceneCullingParameters4PPtrI6CameraERK13CullingOutputRK13dynamic_arrayIP12CullingGroupLj4EERKS_
Tgk:_printf_core
gOe:_MonoType_ToString_m473949831
Dcb:__Z14CalcHullBoundsPK8Vector3fPKhhRK5PlaneRK10Matrix4x4fR10MinMaxAABB
pYf:_RealProxy__ctor_m2147093603
UX:__ZNK14SoundHandleAPI12GetFrequencyEv
q5a:__Z19SetupLODFadeKeywordR17ShaderPassContexti
y9j:_GC_set_fl_marks
uSa:__ZL25CheckCopyTextureArgumentsRK7ApiGLESP11GLESTextureS3_
Tga:__ZN13dynamic_arrayI26EnlightenSystemInformationLj8EE6insertEPS0_PKS0_S4_
cZc:_tt_name_entry_ascii_from_utf16
tOe:_MulticastNotSupportedException__ctor_m2164514827
d7d:_DateTime_System_IConvertible_ToChar_m2489529194_AdjustorThunk
CSb:__Z29Transfer_Blittable_ArrayFieldI24GenerateTypeTreeTransferyEvRT_R9ArrayInfoRK23StaticTransferFieldInfo
jT:__ZN4FMOD7SystemI9playSoundE17FMOD_CHANNELINDEXPNS_5SoundEbPPNS_7ChannelE
dwi:_AttributeHelperEngine_GetRequiredComponents_m120894667
a5:__GLOBAL__sub_I_runtime_graphics_mesh2_lump_cpp
wQh:__ZL68PreferBinarySerialization_t2472773525_CustomAttributesCacheGeneratorP21CustomAttributesCache
BA:__ZN27AnimationLayerMixerPlayable17LayerMixerProcessEP35AnimationPlayableEvaluationConstantP32AnimationPlayableEvaluationInputP33AnimationPlayableEvaluationOutputM17AnimationPlayableFvS1_S3_S5_EMS_FvS1_S3_S5_ESA_MS_FvS5_S1_S3_S5_ifE
cLj:__ZN6il2cpp2os4File4ReadEPNS0_10FileHandleEPciPi
mv:__ZN18StreamedBinaryReadILb0EE21TransferSTLStyleArrayI13dynamic_arrayI12PPtrKeyframeLj4EEEEvRT_17TransferMetaFlags
pCb:__ZN10VertexData13SwapEndianessEv
pjk:_realloc
Isc:__Z57Register_UnityEngine_Transform_INTERNAL_get_localRotationv
$ng:_Type_get_IsInterface_m3583817465
jnk:dynCall_viif
Jdg:_MonoField_get_DeclaringType_m1591666235
yVf:_Enumerator_MoveNext_m4234629003
P1c:_cf2_hint_lock
qQb:__ZL26Transfer_SimpleNativeClassI17RemapPPtrTransfer8GradientLb0EEvRK29SerializationCommandArgumentsR31RuntimeSerializationCommandInfo
q8g:__Z59RuntimeInvoker_Boolean_t3825574718_RaycastHit2D_t4063908774PFvvEPK10MethodInfoPvPS4_
qNe:_MonoType_GetDefaultConstructor_m925465120
Nog:_Type_IsArrayImpl_m3073208555
O2:__ZN13UploadHandlerD2Ev
ylk:dynCall_viiiiiffi
Mc:_emscripten_glBlendFuncSeparate
h9:__Z20scripting_string_newPKc
Yqc:__Z43Material_CUSTOM_Internal_CreateWithMaterialP12Il2CppObjectS0_
ZFe:_Directory_GetCurrentDirectory_m44486537
m5e:_Collection_1_System_Collections_ICollection_CopyTo_m1047946700_gshared
qNc:__ZN16PhysicsManager2D20GetRigidBodyVelocityERK11Rigidbody2D
$Of:_AsnEncodedData_Default_m4197142414
SKj:__ZN6il2cpp2os4File17GetFileAttributesERKNSt3__212basic_stringIcNS2_11char_traitsIcEENS2_9allocatorIcEEEEPi
KF:__ZNSt3__26__sortIRPFbPKN8Animator11AnimatorJobES4_EPS4_EEvT0_S9_T_
bR:__ZN17AudioCustomFilterD2Ev
rP:__Z91Register_UnityEngine_Animations_AnimatorControllerPlayable_INTERNAL_CALL_ResetTriggerStringv
jvc:__ZNK8GUIStyle13GetLineHeightEv
ERa:__ZN18GfxFramebufferGLES18ReleaseFramebufferEP17RenderSurfaceBaseP14GfxContextGLES
MWi:_Context_GetDynamicPropertyCollection_m1987747444
mQf:_X509Certificate2_get_Version_m1927399907
Ubc:__ZN13ProduceHelperI6CameraLb0EE7ProduceE18MemLabelIdentifier18ObjectCreationMode
jLd:_Image_RadialCut_m3229543088
k4:__ZN19CloudServiceHandler34HandleSaveFileWebRequestPlayerLoopEv
SB:__ZN7mecanim21ValueArrayReverseCopyEPKNS_18ValueArrayConstantEPKNS_10ValueArrayES2_PS3_PKi
OQ:__Z31GetParentSampleClipFromInstancePN11SoundHandle8InstanceE
E7b:__ZNK28RectTransformPropertyBinding13GetFloatValueERKN11UnityEngine9Animation10BoundCurveE
sfb:__ZN6Camera22StandaloneCustomRenderENS_10RenderFlagEP6ShaderRKN4core12basic_stringIcNS3_20StringStorageDefaultIcEEEEPNS_21PerformRenderFunctionE
Hfk:__ZN6il2cpp2os16ThreadLocalValue8GetValueEPPv
IEj:__ZN6il2cpp2vm13MetadataCache14GetGenericInstEPKPK10Il2CppTypej
jnd:_SHA384Managed_Initialize_m712692291
mVi:_ChannelInfo__ctor_m2502026239
Vb:invoke_iiidii
$sc:__Z52Object_CUSTOM_GetOffsetOfInstanceIDInCPlusPlusObjectv
rp:setThrew
O9b:__ZL21BuildEmptyCubeTexturePKci11ColorRGBA3217TextureColorSpace
y_b:__ZN14SafeBinaryRead21TransferSTLStyleArrayINSt3__26vectorIN9ShaderLab20SerializedSubProgramENS1_9allocatorIS4_EEEEEEvRT_17TransferMetaFlags
xCc:__Z15Transfer_StringI8JSONReadLb1EEvRK29SerializationCommandArgumentsR31RuntimeSerializationCommandInfo
Nxa:__ZN6prcoreL17RemapGenericFloatI17TexFormatRGBFloat15TexFormatRGHalfEEvPKNS_9InnerInfoE
I6a:__Z25DoForwardShaderRenderLoopR17RenderLoopContextR13dynamic_arrayI16RenderObjectDataLj4EERK11CullResultsbbbN6Camera10RenderFlagE
qwe:_GameObject_GetComponent_TisRuntimeObject_m2812611596_gshared
CYc:_sfnt_load_face
aVc:_UNITY_FT_Render_Glyph_Internal
Ojg:_UTF8Encoding_GetByteCount_m2372933408
JWi:_Context_get_NeedsContextSink_m1907794755
tYc:_UNITY_ft_service_list_lookup
ozf:_ARC4Managed_GenerateKey_m716135508
Ouc:__ZN5IMGUI21SelectReceivingWindowER8GUIStateb
uM:__ZNK26AnimatorControllerPlayable17ValidateGoToStateERiS0_
ZMi:_InternalEnumerator_1_get_Current_m3179981210_gshared
Ymb:__ZN13BaseAllocator13TryDeallocateEPv
bRd:_Array_CreateInstance_m1054139389
jxg:_GUIStyleState_GetGUIStyleState_m2816150617
xKd:_LayoutGroup_GetAlignmentOnAxis_m1783063916
wrb:__ZNSt3__26vectorIN12FlareManager10FlareEntryENS_9allocatorIS2_EEE21__push_back_slow_pathIKS2_EEvRT_
j5f:_Default_check_arguments_with_score_m1714931543
Cmd:_SHA1_Create_m4086509717
seg:_MonoMethodInfo_GetMethodInfo_m3298558752
yR:__ZN13AudioListener17RemoveFromManagerEv
Gd:_glAttachShader
pHd:_Dropdown_SetAlpha_m2769981009
k4a:__ZNK6Camera19GetProjectionMatrixEv
yij:_Predicate_1_BeginInvoke_m1856151290_gshared
Qbe:_StackTrace__ctor_m2404985356
Zaa:__Z38PreallocateObjectFromPersistentManagerib
r7d:_DateTime_System_IConvertible_ToSingle_m3927769066
c5:__GLOBAL__sub_I_runtime_interfaces_lump_cpp
Rvb:__ZNK9Texture2D20GetUnscaledTextureIDEv
x5d:_Convert_ToSByte_m883113940
atk:_glFenceSync__wrapper
see:_Exception_get_Message_m173095527
uP:__Z103Register_UnityEngine_Animations_AnimatorControllerPlayable_INTERNAL_CALL_IsParameterControlledByCurveIDv
i4e:_Queue_1_Peek_m1463479953_gshared
Kwi:_AudioClipPlayable_INTERNAL_CALL_GetStartDelayInternal_m3715907549
jWh:__ZL53InputField_t1631627530_CustomAttributesCacheGeneratorP21CustomAttributesCache
QCd:_ButtonClickedEvent__ctor_m938038541
kZb:__ZN18StreamedBinaryReadILb0EE21TransferSTLStyleArrayI13dynamic_arrayI4AABBLj4EEEEvRT_17TransferMetaFlags
wUg:__Z119RuntimeInvoker_Int32_t2071877448_RuntimeObject_Int32_t2071877448_Int32_t2071877448_CharU26_t1894467670_SByte_t454417549PFvvEPK10MethodInfoPvPS4_
Cpg:_UInt16_System_IConvertible_ToDouble_m4100549304_AdjustorThunk
ZAa:__Z29ClearRepeatingLogMessageStatev
Prd:_Single_System_IConvertible_ToInt16_m962677079
nga:__ZN21EnlightenSceneMappingaSERKS_
Zfk:__ZNK6il2cpp8metadata21Il2CppGenericInstHashclEPK17Il2CppGenericInst
bsd:_Single_System_IConvertible_ToUInt32_m2447833283
ijf:_ReadOnlyCollection_1_System_Collections_IList_Add_m3806843030_gshared
sWa:__ZN7ApiGLESD2Ev
dhb:__ZN9Transform47ClearTransformHierarchyAndApplyToSerializedDataEv
uLi:_InternalEnumerator_1_get_Current_m4083613828_AdjustorThunk
zvi:_Application_LoadLevel_m393995325
xyi:_Bounds_op_Equality_m2161830280
Qkb:__ZN17PersistentManager9AddStreamEv
Cnk:dynCall_fidi
oNj:__ZN15dense_hashtableINSt3__24pairIK10KeyWrapperINS1_IPK9FieldInfoP11Il2CppClassEEEjEES9_17ReflectionMapHashIS8_EN14dense_hash_mapIS9_jSD_NS9_14EqualsComparerINS0_8equal_toIS8_EEEENS0_9allocatorISB_EEE9SelectKeyESI_SK_E12resize_deltaEjj
Fxc:__Z47Register_UnityEngine_GUIStyle_set_imagePositionv
gxc:__Z49GUIStyle_CUSTOM_INTERNAL_CALL_Internal_DrawCursor13Il2Cpp_IntPtrRK5RectTIfEP12Il2CppObjectiRK10ColorRGBAf
PKg:_RectTransform_set_anchorMin_m4247668187
aic:__ZNK13MonoBehaviour13GetScriptTypeEv
Kpa:__ZN13RenderTexture12SetDimensionE16TextureDimension
d5i:_ScriptableObject_CreateInstance_m3921674852
Qzf:_MD4Managed__ctor_m796835377
we:_SDL_FreeRW
Jsf:_PKCS1_OS2IP_m1273945439
Lmd:_SHA1Internal_FillBuff_m891541953
jad:__Z34CanvasRenderer_Get_Custom_PropCullP12Il2CppObject
_W:__ZN20SoundChannelInstance8getDelayE14FMOD_DELAYTYPEPjS1_
oMd:_InputField_set_customCaretColor_m3534590098
Jii:_ScrollRect_set_viewport_m323693490
pye:_NumberFormatter_FormatExponential_m3975285307
RTc:__ZNSt3__26vectorIN20TextRenderingPrivate8FontImpl13CharacterInfoE13stl_allocatorIS3_L18MemLabelIdentifier1ELi16EEE8__appendEj
v:tempBigInt
Ee:_emscripten_glVertexAttrib1fv
c$b:__ZNSt3__26vectorIN9ShaderLab20SerializedSubProgram12UAVParameterENS_9allocatorIS3_EEE7reserveEj
Xni:_AnimationCurve_Init_m1486386337
uBi:_Component_GetComponents_m3712441745
Jth:__ZL99Thread_t241561612_CustomAttributesCacheGenerator_Thread_t241561612____ExecutionContext_PropertyInfoP21CustomAttributesCache
glj:_UnityAction_4_Invoke_m3312096275_gshared
T3i:_RectTransformUtility_ScreenPointToRay_m1842507230
Geb:__ZN16ReflectionProbes16UpdateSampleDataEv
_Lb:__ZN14SafeBinaryRead21TransferSTLStyleArrayI10vector_setI4PPtrI10MonoScriptENSt3__24lessIS4_EE13stl_allocatorIS4_L18MemLabelIdentifier76ELi16EEEEEvRT_17TransferMetaFlags
FUi:_SafeHandle_Finalize_m1839546519
cEc:__ZN8JSONRead21TransferSTLStyleArrayINSt3__26vectorI10RectOffset13stl_allocatorIS3_L18MemLabelIdentifier1ELi16EEEEEEvRT_S5_17TransferMetaFlags
sXi:_Context_AllocateNamedDataSlot_m3200404053
kPf:_X509EnhancedKeyUsageExtension_Decode_m3866320499
lye:_NumberFormatter_AppendIntegerStringWithGroupSeparator_m1401773574
$e:_JS_Sound_Play
yLd:_Image_IsRaycastLocationValid_m864962354
FQg:__Z181RuntimeInvoker_Void_t1841601450_RuntimeObject_Int32_t2071877448_Int32_t2071877448_RuntimeObject_Int32_t2071877448_Int32_t2071877448_RuntimeObject_Int32_t2071877448_Int32_t2071877448PFvvEPK10MethodInfoPvPS4_
$Zb:__ZN9ShaderLab16SerializedShader8TransferI14SafeBinaryReadEEvRT_
cF:__ZN7mecanim8skeleton13SkeletonAlignEPKNS0_8SkeletonERKN4math7_float4ES7_i
Hac:__ZN19ShaderPropertySheet16SetVectorIndexedEN9ShaderLab16FastPropertyNameEifRK8Vector4fNS_8SetFlagsE
Kq:__ZN14SafeBinaryRead21TransferSTLStyleArrayIN4core12basic_stringIcNS1_20StringStorageDefaultIcEEEEEEvRT_17TransferMetaFlags
LYf:_RemotingConfiguration_RegisterWellKnownServiceType_m2491506630
toh:__ZL55_TypeBuilder_t2783404358_CustomAttributesCacheGeneratorP21CustomAttributesCache
ZYe:_List_1_System_Collections_IList_IndexOf_m4061554721_gshared
T3:__ZN11UnityEngine15CloudWebService14DataDispatcher4StopEv
spi:_AnimationLayerMixerPlayable_SetLayerAdditive_m4206337590_AdjustorThunk
e$b:__ZNSt3__26vectorIN9ShaderLab20SerializedSubProgram12UAVParameterENS_9allocatorIS3_EEE8__appendEj
Tod:_X509Certificate_ToString_m1582581274
x4h:_Enumerator_get_Current_m2986380627_gshared
rsa:__ZN17ScriptingGCHandle7AcquireE18ScriptingObjectPtr25ScriptingGCHandleWeakness
tWi:_LifetimeServices_set_LeaseTime_m1487876644
v6f:_ConstructorBuilder_not_supported_m3687319507
U_:__ZN19AudioPlayableOutputC2EjP13PlayableGraph
Urd:_Single_System_IConvertible_ToInt64_m3555853323_AdjustorThunk
qmk:dynCall_iifiii
CCa:__Z21HasAlphaTextureFormat13TextureFormat
SZ:__ZN12AudioManager6UpdateEv
xCa:__ZN14ImageReference9BlitImageERKS_NS_8BlitModeE
Ew:__ZN8Animator12AddToManagerEv
SKb:__ZN23CachedSerializationDataD2Ev
keb:__ZNK25CameraStackRenderingState31CalculateStereoCameraTargetTypeEv
Ltb:__ZN14RenderSettings23VirtualRedirectTransferER14SafeBinaryRead
dGc:__ZNK13b2CircleShape5CloneEP16b2BlockAllocator
o3j:__ZN6il2cpp2os10ThreadImpl15CurrentThreadIdEv
mhe:_Array_InternalArray__ICollection_Contains_TisColor32_t874517518_m2818328910_gshared
H4c:_UNITY_tt_face_load_fpgm
DFb:__ZN12InputManagerD0Ev
Sdk:__ZN6il2cpp6icalls8mscorlib6System11Diagnostics10StackTrace9get_traceEP15Il2CppExceptionib
JFd:_DefaultControls_CreateUIObject_m2810394112
Wyg:_GUIStyle_get_overflow_m1125058093
XBa:__ZNK16LightmapSettings14GetLightProbesEv
Jig:_UnicodeEncoding_GetBytes_m1337660232
SXb:__Z18Transfer_BlittableI18StreamedBinaryReadILb0EELb1EtEvRK29SerializationCommandArgumentsR31RuntimeSerializationCommandInfo
ujk:_posix_memalign
Xac:__ZN13ProduceHelperI12MeshRendererLb0EE7ProduceE18MemLabelIdentifier18ObjectCreationMode
EQi:_InternalEnumerator_1_get_Current_m747506907_AdjustorThunk
Jyi:_Camera_get_eventMask_m4241372419
Nwg:_GUILayoutUtility_LayoutFromEditorWindow_m1847418289
cca:__ZNK15MonoScriptCache7ReleaseEv
hzj:__ZN6il2cpp2vm5Class13HasReferencesEP11Il2CppClass
ng:_glBindTexture
Hhk:_snprintf
XMd:_InputField_set_caretPosition_m888572237
M9f:_ILGenerator__cctor_m3943061018
gYd:_ArrayListWrapper_Clone_m1506311066
FDi:_Event_get_character_m3740896233
Kza:__Z36scripting_liveness_calculation_begin17ScriptingClassPtriPFvPP12Il2CppObjectiPvES3_PFvvES7_
oUa:__ZN16UniformCacheGLES6CreateERK20GpuProgramParameters
Xjg:_UTF8Encoding_Fallback_m811555654
ZI:__ZN7mecanim12statemachine13StateConstant8TransferI24GenerateTypeTreeTransferEEvRT_
Mme:_Array_InternalArray__IndexOf_TisPlayableBinding_t2498078091_m398853908_gshared
yhg:_Encoding_GetString_m1894033578
dif:_ReadOnlyCollection_1_System_Collections_IList_Clear_m1918003010_gshared
rqk:_emscripten_glGetProgramInfoLog__wrapper
GK:__ZN25AnimatedPropertyEvaluator29BindCurveToScriptingObjectPtrERKN13AnimationClip10FloatCurveEj18ScriptingObjectPtrb
$jg:_UTF8Encoding_InternalGetChars_m373801468
Uda:__ZN17PersistentManager23DestroyFromFileInternalEi
N9d:_Decimal_System_IConvertible_ToChar_m2425091200_AdjustorThunk
U6a:__Z19SetupMotionMatricesR6CameraR18RPDataMotionVector
Qde:_Enum_ToString_m2112979707
Z6i:_TextGenerator_ValidatedSettings_m1640214759
iWf:_MonoMethodMessage_get_MethodName_m3580519713
rG:__ZN26AnimatorControllerPlayable18PrepareForPlaybackERN7mecanim6memory9AllocatorE
Cle:_Array_FindLastIndex_TisRuntimeObject_m986818300_gshared
Sjg:_UTF8Encoding_GetBytes_m4170182058
jid:__Z66Register_UnityEngine_Networking_UnityWebRequest_get_isNetworkErrorv
lta:__ZN22CreateGpuProgramOutputC2Ev
pIe:_MemoryStream_InternalConstructor_m2423667240
eXf:_SoapMethodAttribute_SetReflectionObject_m3431595769
jli:_Slider_set_maxValue_m2951480075
Abc:__ZN8GUILayer12CleanupClassEv
jOd:_InputField_OnSubmit_m2856515494
ha:invoke_vidi
lgc:__ZNK15GUIEventManager15GetEventAtIndexEi
q8c:__ZN2UI14CanvasRenderer17SyncDirtyElementsER8JobFence
AEd:_ColorBlock_op_Inequality_m1517672458
Q6j:__ZN6il2cpp5utils11StringUtils15StringDuplicateEPKc
jgb:__Z15CanAddComponentR10GameObjectPKN5Unity4TypeE
Esa:__ZNK9ShaderLab21ShaderRasterStateDesc16ToGfxRasterStateEPK19ShaderPropertySheetS3_R14GfxRasterState
k6:_tlsf_memalign
t2f:_CspParameters__ctor_m2480441577
Ofk:__ZN6il2cpp2os9EventImplC2Ebb
VWi:_DynamicPropertyCollection_NotifyMessage_m840388347
y2i:_Uri_ParseUri_m5711497
QZg:__Z98RuntimeInvoker_RuntimeObject_RuntimeObject_RayU26_t3651946800_Single_t2076509932_Int32_t2071877448PFvvEPK10MethodInfoPvPS4_
W6:__Z20IsMatrixBuiltinParamPKcPi
M8e:_Collection_1_CheckWritable_m2467777750_gshared
oac:__ZN8Renderer19PostInitializeClassEv
EGi:_InternalEnumerator_1_get_Current_m1943362081_AdjustorThunk
taj:_Vector3_get_sqrMagnitude_m1814096310_AdjustorThunk
cck:__ZN6il2cpp6icalls8mscorlib6System8Delegate23CreateDelegate_internalEP20Il2CppReflectionTypeP12Il2CppObjectP22Il2CppReflectionMethodb
d5f:_Default_check_type_m2363631305
gKb:__ZN18DelayedCallManager18CancelCallDelayed2E4PPtrI6ObjectEPF15CallObjectStatePS1_PvES7_
bnb:__ZN25ThreadsafeLinearAllocator10ReallocateEPvji
FMb:__Z18Transfer_BlittableI14SafeBinaryReadLb1E11QuaternionfEvRK29SerializationCommandArgumentsR31RuntimeSerializationCommandInfo
Gka:__ZN18SpriteAtlasManagerD0Ev
Ome:_Array_InternalArray__IndexOf_TisRaycastHit2D_t4063908774_m3739817942_gshared
Seg:_MonoProperty_GetAccessors_m3704698731
Fbk:_GC_disable
DCb:__ZN10Matrix4x4f8TransferI14SafeBinaryReadEEvRT_
GLe:_UnmanagedMemoryStream_ReadByte_m2501145010
As:__ZN15SerializeTraitsI13dynamic_arrayIN11UnityEngine9Animation14GenericBindingELj4EEE19ResizeSTLStyleArrayERS4_i18MemLabelIdentifier
E_f:_ObjectRecord_UnchainFixup_m3025030310
lea:__Z6AppendRKN4core12basic_stringIcNS_20StringStorageDefaultIcEEEEPKc
cVb:__Z18Transfer_BlittableI18StreamedBinaryReadILb1EELb0E8Vector3fEvRK29SerializationCommandArgumentsR31RuntimeSerializationCommandInfo
PZg:__Z81RuntimeInvoker_RuntimeObject_Ray_t2469606224_Single_t2076509932_Int32_t2071877448PFvvEPK10MethodInfoPvPS4_
rNa:__ZN7ApiGLES18ClearBufferSubDataEjN2gl12BufferTargetEll
_L:__ZN8Animator7SetBoolEib
vlc:__Z37Camera_Get_Custom_PropAllCamerasCountv
QBb:__ZN14Texture2DArray8TransferI18StreamedBinaryReadILb0EEEEvRT_
PVj:__ZN6il2cpp6icalls8mscorlib6System5Array9GetLengthEP11Il2CppArrayi
mbb:__Z18ApplyOcclusionMaskR19ProbeOcclusionCacheRK17LightProbeContextRK10RenderNodeb
JHe:_FileStreamAsyncResult__ctor_m1096228032
i$c:_Split_Cubic
ib:invoke_fiiii
n9d:_DBNull_System_IConvertible_ToSByte_m1228193074
r7e:_Collection_1__ctor_m2818834331_gshared
cwe:_Array_InternalArray__get_Item_TisUICharInfo_t3056636800_m3872982785_gshared
iYg:__Z68RuntimeInvoker_UInt16_t986882611_UInt16_t986882611_UInt16_t986882611PFvvEPK10MethodInfoPvPS4_
J$e:_List_1__ctor_m2168280176_gshared
osi:_AnimatorControllerPlayable_INTERNAL_CALL_GetLayerIndexInternal_m2875146206
Kek:__ZN6il2cpp2vm14MetadataLoader16LoadMetadataFileEPKc
q3j:__ZN6il2cpp2os10ThreadImpl22CreateForCurrentThreadEv
jHe:_FileStream_FlushBuffer_m2594140542
_xc:__Z64Register_UnityEngine_GUIStyle_GetFontInternalDuringLoadingThreadv
C7j:__ZN6il2cpp2vm8Profiler12GCHeapResizeEx
Jnk:dynCall_viiifi
gRa:__ZN18GfxFramebufferGLES20ActiveContextChangedEPP17RenderSurfaceBaseS2_
cRa:__Z19PluginsRenderMarkeri
pL:__ZN10HumanTrait18InitializeBoneNameEv
q$j:__ZNSt3__214__split_bufferIN6il2cpp2vm5Image20EmbeddedResourceDataERNS_9allocatorIS4_EEEC2EjjS7_
nKd:_HorizontalOrVerticalLayoutGroup_get_spacing_m2859152439
Enh:__ZL57DispIdAttribute_t607560947_CustomAttributesCacheGeneratorP21CustomAttributesCache
kR:__ZN12AudioManager17RemoveAudioSourceEP11AudioSource
$rk:_emscripten_glBindProgramARB__wrapper
kCi:_CullingGroup_Finalize_m3172731580
ZCg:_Matrix4x4__cctor_m3092679229
Sve:_Array_InternalArray__get_Item_TisUInt64_t2909196914_m2580870875_gshared
A8b:__ZN13ProduceHelperI14SpriteRendererLb0EE7ProduceE18MemLabelIdentifier18ObjectCreationMode
N$:__ZN5physx14PxLightCpuTask12addReferenceEv
yOc:__Z10b2DistanceP16b2DistanceOutputP14b2SimplexCachePK15b2DistanceInput
Sxb:__ZN21EnlightenSceneMapping8TransferI19StreamedBinaryWriteILb0EEEEvRT_
R0j:__ZN6il2cpp2gc16GarbageCollector19InitializeFinalizerEv
UB:__ZN7mecanim8skeleton18CreateSkeletonMaskEjPKNS0_19SkeletonMaskElementERNS_6memory9AllocatorE
suc:__ZN10GUIManager10DoGUIEventER10InputEventb
ERb:__Z35Transfer_Blittable_FixedBufferFieldI24GenerateTypeTreeTransferxEvRK29SerializationCommandArgumentsR31RuntimeSerializationCommandInfo
V7:__Z20CalculateSqrDistanceRK8Vector3fRK4AABB
e2j:__ZN6il2cpp2vm12GenericClass8GetClassEP18Il2CppGenericClass
aV:__Z32AudioMixerDuckingProcessCallbackP21UnityAudioEffectStatePfS1_jii
S5f:_CustomAttributeTypedArgument_GetHashCode_m999147081_AdjustorThunk
r9b:__ZN26CustomRenderTextureManagerD2Ev
sHe:_FileStream_Read_m3880951166
SR:__ZN12AudioManager8TransferI24GenerateTypeTreeTransferEEvRT_
mwa:__Z25GetBytesFromTextureFormat13TextureFormat
iwi:_AudioClipPlayable__ctor_m1273139759
_s:__Z14resize_trimmedINSt3__26vectorIN13AnimationClip9PPtrCurveE13stl_allocatorIS3_L18MemLabelIdentifier25ELi16EEEEEvRT_j
zK:__ZN16MecanimAnimation25RegisterIAnimationBindingEPKN5Unity4TypeEiP17IAnimationBinding
_ba:__Z32scripting_class_get_assemblyname17ScriptingClassPtr
DOc:__ZN9b2Simplex9ReadCacheEPK14b2SimplexCachePK15b2DistanceProxyRK11b2TransformS5_S8_
M6h:_Dictionary_2_Resize_m2532139610_gshared
o6i:_StackTraceUtility__cctor_m1132099289
fng:_TimeSpan_Equals_m2029123271_AdjustorThunk
fFj:__ZN6il2cpp2vm13MetadataCache23GetInvokerMethodPointerEPK10MethodInfoPK20Il2CppGenericContext
wVa:__ZN9GfxDevice21RegisterNativeTextureE9TextureIDi16TextureDimension
Jfe:_CultureInfo__ctor_m456863818
ddk:__ZN6il2cpp6icalls8mscorlib6System10Reflection4Emit11TypeBuilder20create_generic_classEP27Il2CppReflectionTypeBuilder
qSe:_Enumerator_MoveNext_m2504790928_gshared
zxg:_GUISkin_set_button_m412653849
Zi:_emscripten_glUniformMatrix4fv
Z2b:__ZN12ScriptMapperD2Ev
jjd:_KeyedHashAlgorithm_Dispose_m1864300576
Fcj:_X509Certificate_PEM_m49854707
sti:_AnimatorControllerPlayable_GetParameter_m4243058543_AdjustorThunk
nPf:_X509BasicConstraintsExtension__ctor_m3320418592
Pbj:_ExtendedKeyUsageExtension_Decode_m901297139
Xrc:__Z52Register_UnityEngine_RenderTexture_Internal_GetWidthv
pak:_GC_check_leaked
F1b:__ZN9ShaderLab20SerializedSubProgram16TextureParameter8TransferI19StreamedBinaryWriteILb0EEEEvRT_
tqe:_Array_InternalArray__Insert_TisVector4_t2243707581_m1643342708_gshared
wob:__ZNK7Hash12812PackToUInt32Ev
$3:__ZN11UnityEngine15CloudWebService16SessionContainer8AddEventEPNS0_14CloudEventInfoE
qUa:__Z4TrimRKN4core12basic_stringIcNS_20StringStorageDefaultIcEEEES5_
rmi:_Text_set_resizeTextMaxSize_m4034967714
Iih:__ZL55GuidAttribute_t222072359_CustomAttributesCacheGeneratorP21CustomAttributesCache
Mug:_GUIStyle_SetDefaultFont_m2095841351
D5f:_CustomAttributeNamedArgument_Equals_m2691468532
lAb:__ZN10VertexData8TransferI14SafeBinaryReadEEvRT_
dT:__ZN4FMOD8ChannelI8setDelayE14FMOD_DELAYTYPEjj
k1d:_Stack__ctor_m2410583781
b5f:_Default_GetBetterMethod_m4255740863
G6f:_ConstructorBuilder_GetILGenerator_m1731893569
s$j:__ZNSt3__214__split_bufferIN6il2cpp2vm5Image20EmbeddedResourceDataERNS_9allocatorIS4_EEED2Ev
eaa:__ZL20SortItemByInstanceIDRKN18AwakeFromLoadQueue4ItemES2_
kbg:_TypeBuilder_create_runtime_class_m2719530260
Hld:_RNGCryptoServiceProvider_RngClose_m2921734810
mC:__ZNK34AnimationStateMachineMixerPlayable26GetInterruptedPosePlayableEv
Bed:__ZN20UnityConnectSettings8TransferI24GenerateTypeTreeTransferEEvRT_
FE:__ZN34BlobWriteTransferSTLStyleArrayImplI22OffsetPtrArrayTransferIbEEclERS1_17TransferMetaFlagsR9BlobWrite
hnf:_SimpleCollator_IsHalfKana_m4255579023
p5e:_Collection_1_System_Collections_IList_Contains_m3365884450_gshared
i_a:__Z16FlaggedAsSkippedIN4core12basic_stringIcNS0_20StringStorageDefaultIcEEEEEbRK13FileEntryInfoRKT_19FileEnumerationFlag
dga:__ZL31InitializeRendererUpdateManagerPv
CWg:__Z106RuntimeInvoker_RuntimeObject_Int16_t4041245914_RuntimeObject_BooleanU26_t3168250738_BooleanU26_t3168250738PFvvEPK10MethodInfoPvPS4_
mEf:_ClientSessionInfo_Dispose_m2571428025
tPd:_LayoutGroup_DelayedSetDirty_m4276695617
yHf:_RecordProtocol_decryptRecordFragment_m2510859489
sGb:__ZN11TimeManager8TransferI19StreamedBinaryWriteILb0EEEEvRT_
_He:_DelegatePInvokeWrapper_ReadDelegate_t3184826381
h0c:_compare_uni_maps
Qcd:__ZN11UnityEngine15PlatformWrapper27GetGraphicsCapsSupportFlagsEv
Eae:_Decimal_Equals_m1115043331
NUb:__ZN12NativeBufferI16Converter_StringE15SetupForWritingER9ArrayInfo
L5h:_ValueCollection_System_Collections_Generic_ICollectionU3CTValueU3E_Clear_m231380274_gshared
uyd:_Entry__ctor_m1176697586
Tfb:__ZN13MonoBehaviour22DoScriptRebuildWarningEv
xlc:__Z38Camera_CUSTOM_INTERNAL_CALL_RaycastTryP12Il2CppObjectRK3Rayfi
Ami:_Text_get_verticalOverflow_m3134063496
tti:_AnimatorControllerPlayable_StringToHash_m2562221043
_Ti:_GCHandle_get_Target_m2327042781
$kk:_llvm_cttz_i32
IPf:_PublicKey_DecodeDSA_m1169363495
Avc:__ZN11IMGUIModule25GetGUIStyleScriptingClassEv
f3c:_tt_get_interface
Ise:_Array_Sort_TisRuntimeObject_m143182644_gshared
NWj:__ZN6il2cpp5utils9PathUtils7CombineIcEENSt3__212basic_stringIT_NS3_11char_traitsIS5_EENS3_9allocatorIS5_EEEERKSA_SC_
JLf:_NameObjectCollectionBase_BaseGet_m667273025
qTg:__Z104RuntimeInvoker_RuntimeObject_Byte_t3683104436_RuntimeObject_SByte_t454417549_RuntimeObject_RuntimeObjectPFvvEPK10MethodInfoPvPS4_
mCc:__ZN9JSONWrite8TransferI13dynamic_arrayIiLj4EEEEvRT_PKc17TransferMetaFlags
k9:__Z18ConvertUTF16toUTF8PPKtS0_PPhS2_15ConversionFlags
L4j:__ZN6il2cpp2os20PathErrnoToErrorCodeERKNSt3__212basic_stringIcNS1_11char_traitsIcEENS1_9allocatorIcEEEEi
vog:_TypeLoadException__ctor_m1903359728
Cxj:__ZL16my_g_bit_nth_msfj
Ijd:_KeySizes__ctor_m3526899007
zBe:_Int16_System_IConvertible_ToInt32_m191782913_AdjustorThunk
$8i:_SpriteAtlasManager__cctor_m1344469326
IQh:__ZL69ArgumentCache_t4810721_CustomAttributesCacheGenerator_m_FloatArgumentP21CustomAttributesCache
wgg:_EncoderReplacementFallback__ctor_m2208438262
d4a:__Z23SetupStereoFlareElementP11FlareVertexRK8Vector2fS3_S3_RK11ColorRGBA32RK10Matrix4x4fRK8Vector3fb
ta:invoke_iiiifiiii
wFc:__ZN9rapidjson8internal6u64toaEyPc
iGe:_Directory_GetFiles_m4036267478
tN:__Z64AnimationOffsetPlayable_CUSTOM_INTERNAL_CALL_GetRotationInternalR9HPlayableR11Quaternionf
KRa:__ZL19BlitFramebufferImplRN4gles23BlitFramebufferDrawQuadER9GfxDevice9TextureIDRK8Vector4f
QNj:__ZN15dense_hashtableINSt3__24pairIK10KeyWrapperIPK10Il2CppTypeEjEES6_N6il2cpp8metadata14Il2CppTypeHashEN14dense_hash_mapIS6_jSB_NS6_14EqualsComparerINSA_26Il2CppTypeEqualityComparerEEENS0_9allocatorIS8_EEE9SelectKeyESF_SH_E4findERS7_
Sff:_ReadOnlyCollection_1_System_Collections_IList_Add_m2333231354_gshared
GVc:_UNITY_FT_List_Add
abg:_OpCodes__cctor_m939885911
EN:__Z87Register_UnityEngine_Animations_AnimationPlayableOutput_INTERNAL_CALL_InternalGetTargetv
J3i:_UriParser_InitializeAndValidate_m251943319
aod:_SymmetricAlgorithm_set_Padding_m3081984460
bGb:__ZN9InputAxis8TransferI18StreamedBinaryReadILb0EEEEvRT_
l0f:_StreamingContext_t1417235061_marshal_pinvoke_back
tXd:_ArrayList_RemoveAt_m2578928333
jNb:__Z18Transfer_BlittableI14SafeBinaryReadLb0EaEvRK29SerializationCommandArgumentsR31RuntimeSerializationCommandInfo
Yef:_ReadOnlyCollection_1_System_Collections_IList_set_Item_m1233322304_gshared
Wbj:_GeneralNames_get_DNSNames_m2721668874
cde:_Enum_System_IConvertible_ToByte_m38374586
Gef:_ReadOnlyCollection_1_System_Collections_Generic_IListU3CTU3E_RemoveAt_m1592158292_gshared
Dok:_emscripten_glFrustum__wrapper
QHf:_ReceiveRecordAsyncResult_get_CompletedWithError_m2670396551
pae:_Decimal_Equals_m1798565377
Ofc:__ZNSt3__26vectorINS_4pairI11ShaderTagIDS2_EENS_9allocatorIS3_EEE6assignIPS3_EENS_9enable_ifIXaasr21__is_forward_iteratorIT_EE5valuesr16is_constructibleIS3_NS_15iterator_traitsISA_E9referenceEEE5valueEvE4typeESA_SA_
S7f:_TypeBuilder_check_created_m2929267877
Ov:__ZN19StreamedBinaryWriteILb0EE8TransferIKN4math7_float3EEEvRT_PKc17TransferMetaFlags
Y0a:__Z20SyncFenceCullResultsR11CullResults
fTa:__ZN15TextureTFMethod20IsBoneCountSupportedEi
wM:__ZN26AnimatorControllerPlayable9GotoStateEiifff
Pxg:_GUISkin_set_horizontalScrollbarThumb_m2119687595
_ie:_PlayableHandle_IsPlayableOfType_TisAudioMixerPlayable_t1831808911_m1065481197_AdjustorThunk
Ktb:__ZN14RenderSettings23VirtualRedirectTransferER24GenerateTypeTreeTransfer
q7d:_DateTime_System_IConvertible_ToSByte_m2575078084_AdjustorThunk
VQb:__Z22TransferField_NonArrayI17RemapPPtrTransfer27Converter_SimpleNativeClassI8GUIStyleEEvRK23StaticTransferFieldInfoR31RuntimeSerializationCommandInfoRT0_
Zui:_AnimatorStateInfo_IsTag_m1529621725_AdjustorThunk
X7b:__ZNK17AnimationCurveTplIfE20EvaluateWithoutCacheEfRf
f5j:__ZN6il2cpp2os6Thread12QueueUserAPCEPFvPvES2_
Ita:__ZN19ShaderPropertySheet10SetTextureERK23FastTexturePropertyNameP7Texture
AAg:_GUIStyleState__ctor_m3611888666
Z7e:_Collection_1_IsValidItem_m1304951912_gshared
pfc:__ZN4Mesh10SetNormalsEPK8Vector3fj
oSc:__Z66Register_UnityEngine_Physics2D_INTERNAL_CALL_GetRayIntersectionAllv
z3d:_Convert_ToDateTime_m4161927553
Y7f:_TypeBuilder_GetConstructors_m774120094
H6j:__ZNSt3__212basic_stringIDsNS_11char_traitsIDsEENS_9allocatorIDsEEE9__grow_byEjjjjjj
ot:__ZN17AnimationCurveTplIfE8TransferI14SafeBinaryReadEEvRT_
Iee:_Calendar_get_EraNames_m452820602
vzb:__ZNSt3__26vectorIN15QualitySettings14QualitySettingENS_9allocatorIS2_EEE6assignIPS2_EENS_9enable_ifIXaasr21__is_forward_iteratorIT_EE5valuesr16is_constructibleIS2_NS_15iterator_traitsIS9_E9referenceEEE5valueEvE4typeES9_S9_
p2a:__ZNK19ShaderPropertySheet11HasPropertyERKN9ShaderLab16FastPropertyNameE
b7d:_DateTime_System_IConvertible_ToByte_m2670443498_AdjustorThunk
p5:__GLOBAL__sub_I_runtime_utilities4_lump_cpp
gyf:_BigInteger_op_Addition_m1734797151
zXe:_List_1_CheckMatch_m1814522134_gshared
r8f:_EnumBuilder_CreateNotSupportedException_m62763134
qgd:__ZNK12HeaderHelper3GetERKN4core12basic_stringIcNS0_20StringStorageDefaultIcEEEE
SQf:_X509Chain_CheckRevocation_m2480313486
bMe:_Math_Log_m3371716878
_ug:_GUILayoutUtility_Layout_m3812180708
UFb:__ZN9InputAxis8TransferI14SafeBinaryReadEEvRT_
taa:__ZNK21ExecutionOrderManager30GetCustomAwakeFromLoadQueueForEPKN5Unity4TypeE
Gfd:__Z27RegisterModule_UnityConnectv
__d:_Hashtable__ctor_m4280223555
cmg:_Scheduler_Remove_m1930366072
oyi:_Bounds_get_size_m1728027642_AdjustorThunk
kYf:_RealProxy__ctor_m3041043303
Fxe:_NumberFormatter_Init_m2654758994
tjd:_HMACSHA1__ctor_m1168389339
YMc:__ZNK17Physics2DSettings22GetTypeVirtualInternalEv
fN:__Z96Register_UnityEngine_Animations_AnimationClipPlayable_INTERNAL_CALL_SetRemoveStartOffsetInternalv
xU:__ZN10ObjectPoolIN4FMOD12ChannelGroupENS0_13ChannelGroupIEE7SetSizeEi
aqf:_PrimalityTest_BeginInvoke_m966469054
xif:_ReadOnlyCollection_1_System_Collections_Generic_ICollectionU3CTU3E_Clear_m1785953911_gshared
urg:_UInt64_System_IConvertible_ToInt16_m2797150165_AdjustorThunk
Eve:_Array_InternalArray__get_Item_TisLabelData_t3712112744_m863115768_gshared
dDe:_Int32_Parse_m753946802
q5b:__ZN9Polygon2D7SetPathEiRK13dynamic_arrayI8Vector2fLj4EE
r1e:_List_1_RemoveAt_m2331128844_gshared
Qqi:_AnimatorControllerPlayable_GetFloatString_m3678921564
Ibg:_UnmanagedMarshal_ToMarshalAsAttribute_m3695569337
GOb:__Z14resize_trimmedINSt3__26vectorI17AnimationCurveTplIfE13stl_allocatorIS3_L18MemLabelIdentifier1ELi16EEEEEvRT_j
jeb:__ZN25CameraStackRenderingState19SetupLastEyeCamerasERK11CameraStack
ckc:__Z12GUIDToStringRK9UnityGUID
xid:__GLOBAL__sub_I_runtime_vr_plugininterface_lump_cpp
LQ:__ZN11SoundHandleC2ERKS_
Uei:_Mask_OnEnable_m501850981
szi:_Canvas_get_targetDisplay_m316548313
cO:__Z75AnimatorControllerPlayable_CUSTOM_INTERNAL_CALL_GetAnimatorClipInfoInternalR9HPlayableihP12Il2CppObject
Hpf:_BigInteger_op_Addition_m1196561843
zWi:_FormatterData__ctor_m3974986124
Tkd:_RijndaelManagedTransform_get_CanReuseTransform_m3735256596
v_d:_Comparer__cctor_m1327316974
dGe:_MonoIO_ExistsFile_m1421941572
A8d:_DateTime_op_GreaterThanOrEqual_m3818963848
Fz:__ZN17AnimationPlayable18DeallocateBindingsEv
khb:__ZN6Camera25StandaloneRenderToCubemapEP7TextureiPFvPK9SceneNodePK4AABBR9IndexListPvESA_j
MFd:_DefaultControls_SetDefaultTextValues_m1707718380
LBd:_TouchInputModule_UseFakeInput_m2112019004
Mxd:_EventSystem_get_baseEventDataCache_m4294741599
Ptb:__ZN14RenderSettings18TransferDeprecatedI14SafeBinaryReadEEvRT_
K6:__ZN12TLSAllocatorI14StackAllocatorE8AllocateEji
oba:__ZN16ScriptingManager18GetMonoScriptCacheEi
cPg:__Z62RuntimeInvoker_Void_t1841601450_RuntimeObject_Int64_t909078037PFvvEPK10MethodInfoPvPS4_
awg:_GUIStyle_get_stretchHeight_m3396762700
EAj:__ZN15dense_hashtableINSt3__24pairIK10KeyWrapperIPK11Il2CppClassEPKcEES6_N6il2cpp5utils11PointerHashIS3_EEN14dense_hash_mapIS6_S9_SE_NS6_14EqualsComparerINS0_8equal_toIS5_EEEENS0_9allocatorISA_EEE9SelectKeyESJ_SL_E15set_deleted_keyERKSA_
TJd:_GridLayoutGroup_CalculateLayoutInputHorizontal_m2355123124
qNb:__Z18Transfer_BlittableI14SafeBinaryReadLb1EyEvRK29SerializationCommandArgumentsR31RuntimeSerializationCommandInfo
Syc:__ZN8JSONRead8TransferIfEEvRT_PKc17TransferMetaFlagsb
Sjk:__ZNSt3__212basic_stringIcNS_11char_traitsIcEENS_9allocatorIcEEE6appendEPKcj
Olh:__ZL54TypeBuilder_t3308873219_CustomAttributesCacheGeneratorP21CustomAttributesCache
aya:__ZN6prcoreL17RemapGenericFloatI18TexFormatARGBFloat17TexFormatRGBAHalfEEvPKNS_9InnerInfoE
x9e:_Collection_1_CheckWritable_m691269733_gshared
_V:__ZN11AudioSource21ApplyCachedParametersE12SoundChannel
V8f:_GenericTypeParameterBuilder_GetAttributeFlagsImpl_m3338182267
j0:__ZN13Simd4iFactoryIN6detail9FourTupleEEC2Eiiii
yKe:_SynchronizedReader__ctor_m1408327515
afj:_X509Store_LoadCrl_m1146720614
pkf:_ReadOnlyCollection_1_System_Collections_IList_Clear_m1858417639_gshared
sxb:__ZN15SerializeTraitsI33EnlightenTerrainChunksInformationE8TransferI14SafeBinaryReadEEvRS0_RT_
HPc:__ZN6b2Body12SetTransformERK6b2Vec2f
Eac:__ZNK32RendererMaterialAnimationBinding9BindValueER6ObjectRKN11UnityEngine9Animation14GenericBindingERNS3_10BoundCurveE
wub:__Z13GetIAnimationv
YCa:__ZL18stbir__support_onef
iWe:_List_1_System_Collections_IList_Remove_m2040310137_gshared
_Ac:__Z26Transfer_UnityEngineObjectI9JSONWriteLb0EEvRK29SerializationCommandArgumentsR31RuntimeSerializationCommandInfo
Ioa:__ZN9ShaderLab4Pass9ApplyPassEjPK19ShaderPropertySheetR17ShaderPassContextP6ShaderiPKNS_10GrabPassesEPNS_11SubProgramsE
Hua:__ZNSt3__26vectorIN4core12basic_stringIcNS1_20StringStorageDefaultIcEEEE13stl_allocatorIS5_L18MemLabelIdentifier1ELi16EEE6assignINS_11__wrap_iterIPS5_EEEENS_9enable_ifIXaasr21__is_forward_iteratorIT_EE5valuesr16is_constructibleIS5_NS_15iterator_traitsISF_E9referenceEEE5valueEvE4typeESF_SF_
Bqg:_UInt32_System_IConvertible_ToInt16_m2251335934_AdjustorThunk
D7c:__ZNSt3__27__sort5IRNS_6__lessIN2UI14DepthSortEntryES3_EEPS3_EEjT0_S7_S7_S7_S7_T_
USd:_Boolean_System_IConvertible_ToType_m3990189691
Ca:invoke_vdd
En:FUNCTION_TABLE_fiii
Cce:_Double_System_IConvertible_ToUInt32_m624993430
Hn:FUNCTION_TABLE_fiif
U8b:__ZNK30SpriteRendererAnimationBinding12GetPPtrValueERKN11UnityEngine9Animation10BoundCurveE
s5c:__ZZ29InitializeTextRenderingModulevEN27cleanupAfterLoadRegistrator7ForwardEv
amg:_Scheduler_Add_m376749205
AA:__ZN27AnimationLayerMixerPlayable24ProcessAnimationLayerMixEP33AnimationPlayableEvaluationOutputP35AnimationPlayableEvaluationConstantP32AnimationPlayableEvaluationInputS1_if
Idb:__Z29PluginsIssueRenderingExtEvent26UnityRenderingExtEventTypePv
A_j:__ZN15dense_hashtableINSt3__24pairIK10KeyWrapperINS1_IPKcS4_EEEiEES6_24NamespaceAndNamePairHashN14dense_hash_mapIS6_iS9_NS6_14EqualsComparerI26NamespaceAndNamePairEqualsEENS0_9allocatorIS8_EEE9SelectKeyESD_SF_E12resize_deltaEjj
E9b:__Z14RandomRotationP9Texture2DPhiiii
qnf:_SimpleCollator_IsIgnorable_m2485013022
U_e:_List_1_System_Collections_IList_Insert_m2036969360_gshared
tNd:_InputField_GetUnclampedCharacterLineFromPosition_m1912794077
Nri:_AnimatorControllerPlayable_SetTrigger_m2446912300
Z8d:_DateTimeOffset_ToString_m2121173678_AdjustorThunk
aXg:__Z74RuntimeInvoker_RuntimeObject_RuntimeObject_Int16_t4041245914_RuntimeObjectPFvvEPK10MethodInfoPvPS4_
YMa:__ZN4gles14UseGLSLProgramER15DeviceStateGLESjbij
Iuk:_glDeleteProgram__wrapper
Elc:__Z50Register_UnityEngine_Camera_INTERNAL_get_pixelRectv
sxa:__ZN6prcoreL18BlitFloatToIntegerERK14ImageReferenceRS0_
Bvf:_X509CertificateCollection_get_Item_m410866272
hwg:_Rect_get_yMax_m2915146103
u3:__ZN11UnityEngine15CloudWebService14RestDownloader17OnCompleteContentEv
lKd:_LayoutGroup_SetChildAlongAxis_m1615929339
eXg:__Z75RuntimeInvoker_RuntimeObject_RuntimeObject_Double_t4078015681_RuntimeObjectPFvvEPK10MethodInfoPvPS4_
tWg:__Z200RuntimeInvoker_Boolean_t3825574718_RuntimeObject_RuntimeObject_RuntimeObject_Int32_t2071877448_DateTimeU26_t3448131235_SByte_t454417549_BooleanU26_t3168250738_SByte_t454417549_ExceptionU26_t1467204777PFvvEPK10MethodInfoPvPS4_
Ta:invoke_viffi
hia:__ZNSt3__26vectorI20ProcessCallbackGroupNS_9allocatorIS1_EEEC2ERKS4_
yC:__ZN17AnimationPlayable28UpdateInternalStateRecursiveILi1ELb0EEEvPK35AnimationPlayableEvaluationConstant
Wa:invoke_vifff
qoc:__Z53Register_UnityEngine_Input_INTERNAL_get_mousePositionv
utk:_glGetVertexAttribiv__wrapper
_e:_emscripten_request_fullscreen
ama:__ZN20LocalFileSystemWebGL6DeleteER13FileEntryDatab
bae:_Decimal_System_IConvertible_ToUInt16_m1621568250
af:_emscripten_glDisableVertexAttribArray
Xm:FUNCTION_TABLE_iiiifiiii
Xmg:_TimeSpan_get_TotalMinutes_m1645177229_AdjustorThunk
wc:invoke_fifffi
SNa:__ZN4gles23ClearCurrentFramebufferEP7ApiGLESbbbRK10ColorRGBAffi
$A:__ZN7mecanim12statemachine20CreateStateWorkspaceEjjjRNS_6memory9AllocatorE
kHi:_InternalEnumerator_1_System_Collections_IEnumerator_get_Current_m3680087284_gshared
mf:_emscripten_glDeleteObjectARB
HPa:__Z14DecompressDXT3iiiPKjPj
oLe:_UnexceptionalStreamReader_Read_m3839775235
Yrc:__Z53Register_UnityEngine_RenderTexture_Internal_GetHeightv
Bwe:_Dropdown_GetOrAddComponent_TisRuntimeObject_m2875934266_gshared
tya:__ZN6prcoreL17RemapGenericFloatI17TexFormatRGBAHalf18TexFormatARGBFloatEEvPKNS_9InnerInfoE
ide:_Enum_System_IConvertible_ToInt32_m2459904362
cvc:__ZNK8GUIStyle21DrawWithTextSelectionER8GUIStateRK5RectTIfER10GUIContentbbbbbiiRK10ColorRGBAfSA_
hXg:__Z61RuntimeInvoker_RuntimeObject_Double_t4078015681_RuntimeObjectPFvvEPK10MethodInfoPvPS4_
lPc:__ZNSt3__27__sort4IRN18Overlap2DQueryBase29ColliderHitsByDepthComparitorEPP10Collider2DEEjT0_S7_S7_S7_T_
qvc:__Z14GetBuiltinSkini
Wvd:_DecoderReplacementFallbackBuffer_Reset_m2576819665
Iwd:_BaseInput_set_compositionCursorPos_m2632248731
Oqj:_Enumerator_System_Collections_IEnumerator_Reset_m2573763156_gshared
TFe:_DirectoryInfo_Initialize_m2216118894
Hqd:_WindowsIdentity_Dispose_m2649088337
J3b:__ZN2UI13RectTransform23VirtualRedirectTransferER14SafeBinaryRead
Kjj:_InvokableCall_1__ctor_m54675381_gshared
l0b:__ZNSt3__26vectorIN9ShaderLab20SerializedSubProgramENS_9allocatorIS2_EEE6assignIPS2_EENS_9enable_ifIXaasr21__is_forward_iteratorIT_EE5valuesr16is_constructibleIS2_NS_15iterator_traitsIS9_E9referenceEEE5valueEvE4typeES9_S9_
ZCc:__Z18Transfer_BlittableI8JSONReadLb0E8BitFieldEvRK29SerializationCommandArgumentsR31RuntimeSerializationCommandInfo
xZf:_SoapServices_RegisterInteropXmlType_m2949236705
ZVb:__ZL17Transfer_GUIStyleI18StreamedBinaryReadILb1EELb0EEvRK29SerializationCommandArgumentsR31RuntimeSerializationCommandInfo
Rud:_String_CharCopy_m2550399897
lZg:__Z234RuntimeInvoker_RuntimeObject_Int16_t4041245914_RuntimeObject_Int32_t2071877448_Int32_t2071877448_Int32_t2071877448_SByte_t454417549_SByte_t454417549_SByte_t454417549_SByte_t454417549_Int16_t4041245914_SByte_t454417549_SByte_t454417549PFvvEPK10MethodInfoPvPS4_
u_b:__ZN9ShaderLab14SerializedPass8TransferI14SafeBinaryReadEEvRT_
iwc:__Z71Register_UnityEngine_GUILayoutUtility_INTERNAL_CALL_Internal_MoveWindowv
QZ:__ZN12AudioManager16SetListenerPauseEb
hLc:__ZNSt3__26__sortIRN10ClipperLib12LocMinSorterEPNS1_12LocalMinimumEEEvT0_S6_T_
WWj:__ZN6il2cpp2vm9Exception25RaiseOutOfMemoryExceptionERKNS_5utils10StringViewIDsEE
m7e:_Collection_1_IsValidItem_m2254106115_gshared
f8f:_TypeBuilder_GetEvent_m3876348075
Hli:_Slider_OnMove_m641164662
ea:invoke_viiiiiiiiiii
sgk:___syscall_ret
dmg:_Scheduler__ctor_m3716265742
Fsf:_MACAlgorithm_Final_m4076939925
u5b:__ZN14qsort_internal30FindAndMovePivotToLastPositionIP8Vector2fi26PointDistanceSortPredicateEEvT_S4_T0_T1_
SAb:__ZN11ChannelInfo8TransferI19StreamedBinaryWriteILb0EEEEvRT_
SGi:_InternalEnumerator_1_System_Collections_IEnumerator_get_Current_m3583252352_gshared
I7f:_EnumBuilder_get_FullName_m2818393911
W4a:__ZN14qsort_internal13Partition3WayIP17RODataReplacementi19ROSorterReplacementEENSt3__24pairIT_S6_EES6_S6_T0_T1_
Hnc:__Z34Register_UnityEngine_Gradient_Initv
jxd:_BaseInputModule_GetAxisEventData_m3903709281
Tve:_Array_InternalArray__get_Item_TisUriScheme_t1876590943_m1821482697_gshared
jxf:_BigInteger__ctor_m3239748086
xla:__ZN13ScreenManager23SetIsOrientationEnabledE18EnabledOrientationb
GA:__ZN7mecanim5human25HumanPoseAddOverrideLayerERNS0_9HumanPoseERKS1_fRKNS_6bitsetILj70EEE
R7b:__ZN13ProduceHelperI9TransformLb0EE7ProduceE18MemLabelIdentifier18ObjectCreationMode
$xc:__Z45Register_UnityEngine_GUIStyle_GetFontInternalv
ss:__ZNSt3__26vectorI14AnimationEvent13stl_allocatorIS1_L18MemLabelIdentifier25ELi16EEE7reserveEj
BBi:_Component_SendMessageUpwards_m19741277
doe:_Array_InternalArray__ICollection_Add_TisHitInfo_t1761367055_m2956071622_gshared
Fgb:__ZN10GameObject23VirtualRedirectTransferER18StreamedBinaryReadILb0EE
Bg:_glFrontFace
s$f:_ObjectRecord_get_IsUnsolvedObjectReference_m2202692850
tTf:_FactoryCache_Cleanup_m4130035987
fM:__ZN26AnimatorControllerPlayable14SetLayerWeightEif
P6b:__ZN13ProduceHelperI19LowerResBlitTextureLb0EE7ProduceE18MemLabelIdentifier18ObjectCreationMode
_9a:__ZNSt3__26vectorI16ShadowCasterData13stl_allocatorIS1_L18MemLabelIdentifier2ELi16EEE21__push_back_slow_pathIKS1_EEvRT_
Oie:_PlayableHandle_IsPlayableOfType_TisAnimationClipPlayable_t4099382200_m682525715_AdjustorThunk
ykj:_UnityAction_1_Invoke_m1279802577_gshared
drg:_UInt32_ToString_m1783596809
Z3i:_Vector3_get_forward_m1201659139
$5c:__Z51Register_UnityEngine_TextGenerator_GetLinesInternalv
hrj:_HashSet_1_Init_m1258286688_gshared
Dvf:_X509CertificateEnumerator_System_Collections_IEnumerator_get_Current_m1643583406
Yff:_ReadOnlyCollection_1_System_Collections_IList_RemoveAt_m525136953_gshared
FAi:_Collision2D_get_gameObject_m4234358314
Kxa:__ZN6prcoreL17RemapGenericFloatI17TexFormatRGBFloat18TexFormatRGBAFloatEEvPKNS_9InnerInfoE
irg:_UInt64_System_IConvertible_ToBoolean_m3012279573_AdjustorThunk
Xog:_Type_get_IsGenericTypeDefinition_m2147901038
SYa:__ZN12HandlerChain10ToAbsoluteEPKc
bxe:_GregorianCalendar__ctor_m3794576475
_qg:_UInt32_TryParse_m4283512434
sNc:__ZN16PhysicsManager2D12BeginContactEP9b2Contact
CQ:__ZN9AudioClip11CreateSoundEv
f2h:_ShimEnumerator_MoveNext_m3313047792_gshared
_7e:_Collection_1_ConvertItem_m2185647560_gshared
Cng:_TimeSpan_op_Inequality_m257547441
Kkg:_ExecutionContext_GetObjectData_m1456913356
$Sj:__ZN14dense_hash_mapI10KeyWrapperINSt3__24pairIPK9FieldInfoP11Il2CppClassEEEj17ReflectionMapHashIS8_ENS9_14EqualsComparerINS1_8equal_toIS8_EEEENS1_9allocatorINS2_IKS9_jEEEEEC2EjRKSB_RKSF_
IEg:_Object_set_hideFlags_m2204253440
BOj:__ZNK15dense_hashtableINSt3__24pairIK10KeyWrapperINS1_IPK10MethodInfoP11Il2CppClassEEEjEES9_17ReflectionMapHashIS8_EN14dense_hash_mapIS9_jSD_NS9_14EqualsComparerINS0_8equal_toIS8_EEEENS0_9allocatorISB_EEE9SelectKeyESI_SK_E13find_positionERSA_
bLa:__ZN13GfxDeviceGLES20CreateComputeProgramEPKhj
Wye:_DateTimeFormatInfo_get_RoundtripPattern_m562440017
cfd:__ZN11UnityEngine7Connect16PersistentValues13RestoreValuesER8JSONRead
y_a:__ZN20ArchiveStorageReader31TryToReadDirectoryFromBlockDataEyPKvj
hce:_Double_System_IConvertible_ToByte_m3004284950_AdjustorThunk
JZj:__ZN6il2cpp2vmL11GetIdentityEP14Il2CppIUnknown
_9j:_GC_push_gc_structures
nIj:__ZN6il2cpp6icalls8mscorlib6SystemL8IsPublicEPK9EventInfo
e1d:_Enumerator_get_Current_m1271212567
j7j:__ZThn4_N6il2cpp2vm13ComObjectBase18ReleaseMarshalDataEP13Il2CppIStream
xBg:_Input_set_compositionCursorPos_m1615567306
eNf:_IPAddress_ParseIPV6_m2209709575
lii:_U3CClickRepeatU3Ec__Iterator0_MoveNext_m1747924386
Yvj:_Comparison_1_Invoke_m1670081898_gshared
ani:_Toggle_set_group_m3833595685
MPd:_LayoutRebuilder_ForceRebuildLayoutImmediate_m566681977
jBb:__ZNSt3__213__stable_sortIRNS_4lessI4PPtrI11SpriteAtlasEEENS_11__wrap_iterIPS4_EEEEvT0_SA_T_NS_15iterator_traitsISA_E15difference_typeEPNSD_10value_typeEi
loe:_Array_InternalArray__ICollection_Add_TisVector4_t2243707581_m698578249_gshared
k8:__ZN8keywords6CreateEPKc
S:Math_imul
Fyg:_GUIStyle_set_active_m2896743432
xFb:__ZN14SpriteRenderer15SetupPropertiesEv
Jzb:__ZN11PlayerPrefs6GetIntERKN4core12basic_stringIcNS0_20StringStorageDefaultIcEEEEi
aDj:__ZN6il2cpp5utils13dynamic_arrayIPK10Il2CppTypeLj4EEC2ERKS5_
J5c:__Z45TextGenerator_CUSTOM_INTERNAL_get_rectExtentsP12Il2CppObjectP5RectTIfE
DBf:_CertificateValidationCallback_Invoke_m2500463874
jje:_SetPropertyUtility_SetStruct_TisChar_t3454481338_m2333420724_gshared
p7e:_Collection_1_IsSynchronized_m2601980439_gshared
z$d:_Hashtable_ContainsKey_m2716576664
r_i:_PatternCompiler_EmitCategory_m1696942454
mae:_Decimal_decimalFloorAndTrunc_m3655683429
Foe:_Array_InternalArray__ICollection_CopyTo_TisInt32_t2071877448_m984622488_gshared
a9:__ZN18ScriptingArguments9AddObjectE18ScriptingObjectPtr
M9c:__Z39CanvasGroup_Get_Custom_PropInteractableP12Il2CppObject
JMc:__ZN16CircleCollider2D23VirtualRedirectTransferER18StreamedBinaryReadILb0EE
gOa:__ZN17GenericDynamicVBOC2ER9GfxDevice13GfxBufferModejj
ZWi:_Context_get_HasDynamicSinks_m1998518649
zPc:__Z28GetPhysics2DScriptingClassesv
nuc:__ZZN10GUIManager14InitGUIManagerEvEN41PreUpdateIMGUISendQueuedEventsRegistrator7ForwardEv
Yri:_AnimatorControllerPlayable_ResetTrigger_m758725835_AdjustorThunk
Z1:__ZN11UnityEngine15CloudWebService17SessionEventQueue10PurgeItemsEj
rfb:__ZN6Camera16StandaloneRenderENS_10RenderFlagEP6ShaderRKN4core12basic_stringIcNS3_20StringStorageDefaultIcEEEE
eQd:_Array_System_Collections_IList_get_Item_m2088124007
yQd:_Array_GetLength_m2083296647
Snj:_SymmetricTransform_OFB_m397918932
iZd:_SynchronizedArrayListWrapper_ToArray_m1522185111
tVb:__Z18Transfer_BlittableI18StreamedBinaryReadILb1EELb1EtEvRK29SerializationCommandArgumentsR31RuntimeSerializationCommandInfo
lJa:__ZN9GfxDevice20DeallocRenderSurfaceEP17RenderSurfaceBase
Ysg:_ValueType_ToString_m3796301715
a0j:__ZNK15dense_hashtableI10KeyWrapperIP18Il2CppGenericClassES3_N6il2cpp8metadata22Il2CppGenericClassHashEN14dense_hash_setIS3_S6_NS3_14EqualsComparerINS5_25Il2CppGenericClassCompareEEENSt3__29allocatorIS3_EEE8IdentityESA_SD_E12test_deletedEj
Hoc:__Z53Register_UnityEngine_Quaternion_INTERNAL_CALL_Inversev
jvg:_GUILayoutGroup__ctor_m992523271
vqb:__ZN12BaseRenderer23RendererBecameInvisibleEv
ZTc:__ZN20TextRenderingPrivate8FontImpl13CharacterInfo8TransferI18StreamedBinaryReadILb0EEEEvRT_
_Sb:__Z29Transfer_Blittable_ArrayFieldI24GenerateTypeTreeTransferfEvRT_R9ArrayInfoRK23StaticTransferFieldInfo
yPg:__Z76RuntimeInvoker_RuntimeObject_RuntimeObject_SByte_t454417549_SByte_t454417549PFvvEPK10MethodInfoPvPS4_
eib:__ZN19CustomRenderTexture9AddParentE4PPtrIS_E
yyb:__ZN8Gradient8TransferI14SafeBinaryReadEEvRT_
Ylj:_UnityEvent_1_Invoke_m1533100983_gshared
Gua:__ZNSt3__26vectorIN4core12basic_stringIcNS1_20StringStorageDefaultIcEEEE13stl_allocatorIS5_L18MemLabelIdentifier1ELi16EEE7reserveEj
uMf:_FileWebRequest__ctor_m4003648606
qYh:__ZL71SpriteState_t1353336012_CustomAttributesCacheGenerator_m_DisabledSpriteP21CustomAttributesCache
kde:_Enum_System_IConvertible_ToSByte_m3488526280
cEg:_MonoBehaviour_StopAllCoroutines_m1675795839
fEj:__ZNK15dense_hashtableI10KeyWrapperIPK19Il2CppGenericMethodES4_N6il2cpp8metadata23Il2CppGenericMethodHashEN14dense_hash_setIS4_S7_NS4_14EqualsComparerINS6_26Il2CppGenericMethodCompareEEENSt3__29allocatorIS4_EEE8IdentityESB_SE_E4findERKS4_
uri:_AnimatorControllerPlayable_GetIntegerString_m2944800090
Vla:__ZNK20LocalFileSystemPosix9IsSymLinkERK13FileEntryData
U8j:_GC_new_free_list_inner
oai:_DefaultComparer_Equals_m85211180_gshared
xNe:_MonoType_InternalGetEvent_m532443236
X9e:_Collection_1_IndexOf_m2700825189_gshared
NDc:__ZN8JSONRead8TransferI10RectOffsetEEvRT_PKc17TransferMetaFlagsb
H1:__ZN9JSONWrite8TransferIN11UnityEngine15CloudWebService14DataErrorEvent15FileErrorDetailEEEvRT_PKc17TransferMetaFlags
rvd:_Decoder__ctor_m2623573910
Sgf:_ReadOnlyCollection_1_System_Collections_Generic_IListU3CTU3E_RemoveAt_m1731148677_gshared
sT:__ZN12SoundManager20RegisterModifiedClipEP10SampleClip
TV:__ZN11AudioSource4PlayEd
V1j:__ZN6il2cpp2vm6Object16GetVirtualMethodEP12Il2CppObjectPK10MethodInfo
prj:_HashSet_1_Add_m199171953_gshared
YBj:__ZN15dense_hashtableI10KeyWrapperIPK17Il2CppGenericInstES4_N6il2cpp8metadata21Il2CppGenericInstHashEN14dense_hash_setIS4_S7_NS4_14EqualsComparerINS6_24Il2CppGenericInstCompareEEENSt3__29allocatorIS4_EEE8IdentityESB_SE_E13set_empty_keyERKS4_
ldi:_EqualityComparer_1_System_Collections_IEqualityComparer_Equals_m3589836321_gshared
qsf:_SmallXmlParser_IsNameChar_m1561000202
odj:_X501__cctor_m2610532554
l1h:_Enumerator_VerifyState_m3173176371_gshared
o1e:_List_1_CheckCollection_m2220107869_gshared
Mvb:__ZN7Cubemap23VirtualRedirectTransferER18StreamedBinaryReadILb0EE
SDf:_RecordProtocol_EncodeRecord_m3884270352
Ymd:_SHA256_Create_m896954069
L3c:_Read_CVT
p6d:_Convert_ToUInt32_m776714429
sXa:__ZN12FileAccessor4SeekEx10FileOrigin
URb:__ZL26Transfer_SimpleNativeClassI24GenerateTypeTreeTransfer17AnimationCurveTplIfELb0EEvRK29SerializationCommandArgumentsR31RuntimeSerializationCommandInfo
Gxb:__ZN24GenerateTypeTreeTransfer8TransferI13dynamic_arrayI33EnlightenTerrainChunksInformationLj4EEEEvRT_PKc17TransferMetaFlags
lga:__ZN16LightmapSettings20DidChangeActiveSceneEP10UnitySceneS1_
s_h:__ZL59g_AssemblyU2DCSharp_Assembly_CustomAttributesCacheGeneratorP21CustomAttributesCache
BIj:__ZN6il2cpp5utils9PathUtils8BasenameIcEENSt3__212basic_stringIT_NS3_11char_traitsIS5_EENS3_9allocatorIS5_EEEERKSA_
JU:__ZN10AudioMixer11SetupGroupsEv
Wvc:__Z35Register_UnityEngine_Event_get_typev
dtf:_PrivateKeyInfo_DecodeRSA_m1427048948
gXj:__ZN6il2cpp2vm9Exception23GetInvalidCastExceptionERKNS_5utils10StringViewIDsEE
d4f:_Assembly_FillName_m1934025015
Itd:_String_IndexOf_m2126171214
sEe:_Int64_ToString_m1544341651_AdjustorThunk
zC:__ZN8Animator28BuildControllerPlayableCacheEv
rAe:_Guid_CheckNull_m2903986431
dyi:_Bounds__ctor_m1202659404
iaa:__Z63ThreadAndSerializationSafeCheckGetMonoBehaviourBeingTransferredv
Ebk:_GC_enable
NFf:_TlsClientCertificateVerify_ProcessAsSsl3_m3377063356
cBd:_StandaloneInputModule_set_repeatDelay_m2820945738
iqg:_UInt16_ToString_m4213290405
loc:__Z37Register_UnityEngine_Input_GetAxisRawv
KH:__ZNK18AnimatorController28HasMultiThreadedStateMachineEv
rde:_Enum_GetName_m1226611481
Kwj:_Func_2_Invoke_m4121137703_gshared
FV:__ZN11AudioSource5ResetEv
zBb:__ZN14Texture2DArray23VirtualRedirectTransferER18StreamedBinaryReadILb0EE
W0i:_Literal_CompileLiteral_m276843152
A3b:__ZN2UI13RectTransform13AwakeFromLoadE17AwakeFromLoadMode
w9a:__ZN14qsort_internal30FindAndMovePivotToLastPositionIP20ShadowCasterSortDatai26ShadowCasterSortDataSorterEEvT_S4_T0_T1_
CCj:__ZNK15dense_hashtableI10KeyWrapperIPK19Il2CppGenericMethodES4_N6il2cpp8metadata23Il2CppGenericMethodHashEN14dense_hash_setIS4_S7_NS4_14EqualsComparerINS6_26Il2CppGenericMethodCompareEEENSt3__29allocatorIS4_EEE8IdentityESB_SE_E3endEv
qMb:__Z18Transfer_BlittableI14SafeBinaryReadLb1EiEvRK29SerializationCommandArgumentsR31RuntimeSerializationCommandInfo
ZEa:__ZN17PersistentManager13GetAllFileIDsERKN4core12basic_stringIcNS0_20StringStorageDefaultIcEEEER13dynamic_arrayIxLj8EE
yRd:_Array_LastIndexOf_m4096535198
jXd:_ArrayList_Add_m1719188324
xce:_Double_System_IConvertible_ToSByte_m1653690240_AdjustorThunk
Ek:_glGetStringi
O$j:__ZNK15dense_hashtableI10KeyWrapperIP18Il2CppGenericClassES3_N6il2cpp8metadata22Il2CppGenericClassHashEN14dense_hash_setIS3_S6_NS3_14EqualsComparerINS5_25Il2CppGenericClassCompareEEENSt3__29allocatorIS3_EEE8IdentityESA_SD_E10test_emptyERK30dense_hashtable_const_iteratorIS3_S3_S6_SF_SA_SD_E
eL:__ZZN8Animator15InitializeClassEvEN43FunctorImpl_420kDidModifyAnimatorController4CallEPviR11MessageData
age:_CultureInfo_set_NumberFormat_m1618950525
UBb:__ZN18StreamedBinaryReadILb0EE21TransferSTLStyleArrayI13dynamic_arrayI8Vector4fLj4EEEEvRT_17TransferMetaFlags
bRf:_X509Store__ctor_m1573680316
qRf:_X509Chain_get_CertificateCollection_m324631835
Ddi:_EqualityComparer_1__cctor_m1011898363_gshared
bCd:_AnimationTriggers__ctor_m2623627182
Vle:_Array_InternalArray__IndexOf_TisClientCertificateType_t4001384466_m1168139450_gshared
t2:__ZN11UnityEngine15CloudWebService20WebRequestRestClient18GetResponseHeadersEv
Jdc:__ZN16PropertyAccessorC2Ev
Lzb:__ZNSt3__23mapIN4core12basic_stringIcNS1_20StringStorageDefaultIcEEEE9PrefValueNS_4lessIS5_EENS_9allocatorINS_4pairIKS5_S6_EEEEEixERSB_
ddc:__ZN15DirectorManager22ConstructPlayableGraphEv
Vnd:_SymmetricAlgorithm_set_IV_m4262655606
ami:_StencilMaterial__cctor_m2963056855
sui:_AnimatorControllerPlayable_Play_m614561002_AdjustorThunk
M5f:_CustomAttributeNamedArgument_GetHashCode_m3715408876_AdjustorThunk
Q5c:__Z38Register_UnityEngine_Font_HasCharacterv
vQf:_X509Certificate2_AppendBuffer_m3517242299
Bdb:__Z35IntersectSpherePlaneBoundsOptimizedRKN4math7_float4EPS1_i
Yfe:_CultureInfo_get_IsNeutralCulture_m3874876470
abe:_Delegate_CreateDelegate_m3813023227
g3i:_Uri_get_AbsoluteUri_m2120317928
A2j:__ZN6il2cpp2os5posix15PosixWaitObject13InterruptWaitEv
dFd:_ColorTween_TweenValue_m3279916815
Nfa:__Z22CleanupLODGroupManagerPv
eoe:_Array_InternalArray__ICollection_Add_TisContentType_t1028629049_m2984242302_gshared
Svc:__Z21Event_CUSTOM_PopEventP12Il2CppObject
h0j:__ZN6il2cpp8metadata15GenericMetadata20RegisterGenericClassEP18Il2CppGenericClass
nl:_glUniform3fv
$Hb:__ZNSt3__218__insertion_sort_3IRN15ResourceManager10Dependency6SorterEPS2_EEvT0_S6_T_
SSe:_Enumerator_System_Collections_IEnumerator_Reset_m3796537546_AdjustorThunk
W4c:_UNITY_FT_Init_Class_tt_service_gx_multi_masters
pXg:__Z53RuntimeInvoker_Int32_t2071877448_TimeSpan_t3430258949PFvvEPK10MethodInfoPvPS4_
rNg:__Z64RuntimeInvoker_RuntimeObject_Int32_t2071877448_Int16_t4041245914PFvvEPK10MethodInfoPvPS4_
gNe:_IntComparer_Compare_m3057931085
c8a:__ZNK16LightmapSettings31GetRealtimeLightmapDecodeValuesEv
gV:__ZN5audio5mixer12SetSuspendedERNS0_16AudioMixerMemoryEb
pAa:__ZN17PersistentManager21UnloadNonDirtyStreamsEv
XXj:__ZN6il2cpp2vm13LivenessStateC2EP11Il2CppClassjPFvPP12Il2CppObjectiPvES7_PFvvESB_
Zwe:_Array_ConvertAll_TisRuntimeObject_TisRuntimeObject_m2423585546_gshared
$1a:__ZN12ImageFilters4BlitER17ShaderPassContextP7TextureP13RenderTextureiPK18SharedMaterialDataPKcP6ShaderiNS_9BlitFlagsE11CubemapFaceRK8Vector2fSH_
LOf:_Oid__ctor_m1936781897
MFg:_Object_INTERNAL_CALL_Internal_InstantiateSingleWithParent_m1401308849
h2:__ZN11UnityEngine15CloudWebService10RestClientINS0_23WebRequestRestHeaderMapEED2Ev
cTi:_ResourceSet__ctor_m1222864106
y5e:_Collection_1_System_Collections_IList_get_Item_m3376056117_gshared
Jl:_emscripten_glDepthMask
Foi:_AnimationClipPlayable_INTERNAL_CALL_CreateHandleInternal_m218917601
RSe:_Enumerator_VerifyState_m3639069574_gshared
kPa:__ZN4crnd25static_huffman_data_model22prepare_decoder_tablesEv
Y4e:_Enumerator_MoveNext_m689054299_gshared
Pxf:_ModulusRing_Difference_m662924064
HDd:_CanvasUpdateRegistry_ObjectValidForUpdate_m855695984
wMd:_InputField_set_onValueChanged_m2406388125
Ska:__ZL22CleanupUnityWebStreamsPv
HXb:__Z18Transfer_BlittableI18StreamedBinaryReadILb0EELb0E10ColorRGBAfEvRK29SerializationCommandArgumentsR31RuntimeSerializationCommandInfo
lLf:_ListDictionary_Add_m4276262662
qga:__Znaj
tld:_RIPEMD160Managed_GGG_m1639995340
gvk:_emscripten_glEnableClientState__wrapper
o7:__ZN17MessageIdentifierC2EPKcNS_7OptionsEPKN5Unity4TypeES1_
kO:__Z76AnimatorControllerPlayable_CUSTOM_INTERNAL_CALL_CrossFadeInFixedTimeInternalR9HPlayableifif
V3h:_Enumerator_System_Collections_IEnumerator_get_Current_m1648049763_gshared
dek:__ZN6il2cpp6icalls8mscorlib4Mono8Security12Cryptography18KeyPairPersistence15_ProtectMachineEP12Il2CppString
plk:dynCall_viiifiii
rQd:_Array_System_Collections_IList_Remove_m2438892375
$Je:_TextWriter__ctor_m2225796097
Nob:__ZN14SafeBinaryRead8TransferI14ConstantStringEEvRT_PKc17TransferMetaFlags
c5i:_ScriptableObject_Internal_CreateScriptableObject_m1778903390
Lra:__ZNK6Camera16GetStereoEnabledEv
kt:__ZN13AnimationClip9PPtrCurveaSERKS0_
fac:__ZN12LightManager15InitializeClassEv
Lsa:__ZN9ShaderLab11shaderprops16GetComputeBufferEPK19ShaderPropertySheetS3_NS_16FastPropertyNameE
dzg:_GUIStyle_GetFontInternal_m3509743324
n9:__ZN18ScriptingArgumentsC2Ev
Kng:_TimeZone_IsDaylightSavingTime_m875882154
Eqk:_emscripten_glBlendFuncSeparate__wrapper
ECf:_CipherSuiteCollection_System_Collections_IList_set_Item_m750275607
ari:_AnimatorControllerPlayable_SetFloatID_m3806317182
GMa:__Z17HasSampledTexture14GraphicsFormat13formatSupport
t3a:__ZNK25CameraStackRenderingState27GetStereoImageEffectTextureEb
Dmd:_SHA1CryptoServiceProvider__ctor_m3127563759
Ygc:__ZN13BuildSettings13GetSceneIndexERKN4core12basic_stringIcNS0_20StringStorageDefaultIcEEEE
pEg:_DownloadHandler_Finalize_m3781185347
g_h:__ZL103BaseVertexEffect_t2504093552_CustomAttributesCacheGenerator_BaseVertexEffect_ModifyVertices_m3446986347P21CustomAttributesCache
Jo:FUNCTION_TABLE_ii
S4h:_Enumerator_MoveNext_m335649778_AdjustorThunk
jqb:__ZN10TagManager8TransferI18StreamedBinaryReadILb0EEEEvRT_
AAc:__Z18Transfer_BlittableI9JSONWriteLb0E8BitFieldEvRK29SerializationCommandArgumentsR31RuntimeSerializationCommandInfo
crg:_UInt32_ToString_m3894907091_AdjustorThunk
Sfe:_CultureInfo_get_TextInfo_m1582311326
hne:_Array_ForEach_TisRuntimeObject_m1849351808_gshared
gAg:_GUIStyle_get_contentOffset_m1904924583
Wrf:_SmallXmlParser_Error_m1832158746
Dk:_glDeleteVertexArrays
blb:__Z24CreateDirectoryRecursiveRKN4core12basic_stringIcNS_20StringStorageDefaultIcEEEE
Uok:b41
g1b:__ZN9ShaderLab20SerializedSubProgram8TransferI18StreamedBinaryReadILb0EEEEvRT_
BJe:_StreamAsyncResult_get_AsyncWaitHandle_m4218169359
iuc:__Z22MonoGUIContentToNative18ScriptingObjectPtrR10GUIContent
Wve:_Array_InternalArray__get_Item_TisContactPoint2D_t3659330976_m825151777_gshared
s6c:__ZN2UI13CanvasManager9AddCanvasEPNS_6CanvasE
vDa:__ZN9Texture3D8TransferI19StreamedBinaryWriteILb0EEEEvRT_
y4a:__ZNK6Camera22CalculateRenderingPathEv
UBc:__ZN9JSONWrite8TransferI5RectTIfEEEvRT_PKc17TransferMetaFlags
Voi:_AnimationClipPlayable_INTERNAL_CALL_GetRemoveStartOffsetInternal_m3895628593
aSa:__Z13ConvertMipmap14GraphicsFormatPKvS_Pviiii
nnd:_SHA384Managed_processBlock_m3232296629
svf:_X509Certificate_get_PublicKey_m714501701
nZc:_tt_sbit_decoder_load_image
Xtd:_String_LastIndexOf_m290475879
zse:_Array_Sort_TisInt32_t2071877448_m1860415737_gshared
Auc:__ZNSt3__24listIN10GUIManager12SortedScriptE11memory_poolIS2_EE6__sortI13OldSortScriptEENS_15__list_iteratorIS2_PvEESA_SA_jRT_
mrg:_UInt64_System_IConvertible_ToChar_m1930853313_AdjustorThunk
IFf:_TlsClientCertificate_SendCertificates_m1096074091
l0d:_SyncHashtable_get_Item_m408601391
Xgf:_ReadOnlyCollection_1_System_Collections_IEnumerable_GetEnumerator_m1401363518_gshared
c5e:_Stack_1_System_Collections_ICollection_CopyTo_m2104527616_gshared
eij:_TileManager_ReadTiles_m985135445
Big:_StringBuilder_AppendFormat_m1666670800
wab:__ZN18DeferredRenderLoop13RenderGBufferEP13RenderTexturePS1_b8JobFencePK25DeferredRenderLoopScratchRi
a2g:__Z97RuntimeInvoker_Boolean_t3825574718_RuntimeObject_TextGenerationSettings_t2543476768_RuntimeObjectPFvvEPK10MethodInfoPvPS4_
BKg:_Rect_Equals_m3806390726
meh:__Z80RuntimeInvoker_RuntimeObject_RaycastResult_t21186376_RuntimeObject_RuntimeObjectPFvvEPK10MethodInfoPvPS4_
Qu:__ZN13AnimationClip8TransferI17RemapPPtrTransferEEvRT_
fWj:__ZN6il2cpp6icalls8mscorlib6System9ThreadingL11ThreadStartEPv
qia:__ZN15DirectorManager12OnSampleTimeEv
njf:_ReadOnlyCollection_1_System_Collections_IList_Remove_m3878418841_gshared
BMd:_InputField_EnforceContentType_m1902926812
kra:__ZN12CachedReader10Align4ReadEv
HNc:__ZN15b2WorldManifold10InitializeEPK10b2ManifoldRK11b2TransformfS5_f
AXj:__ZN6il2cpp2vm9Exception28GetMarshalDirectiveExceptionEPKc
lOe:_MulticastDelegate_GetObjectData_m3187757658
pob:__ZNK9Behaviour22GetTypeVirtualInternalEv
Xjf:_ReadOnlyCollection_1_System_Collections_IList_get_Item_m887129009_gshared
Ceb:__Z21GetScriptingArraySize17ScriptingArrayPtr
rTc:__ZN20TextRenderingPrivate8FontImpl8TransferI14SafeBinaryReadEEvRT_
Ppi:_AnimationOffsetPlayable_INTERNAL_CALL_CreateHandleInternal_m2301240007
mva:__Z35UnityPropertySheet_MakeSortedColorsRKNSt3__23mapIN9ShaderLab16FastPropertyNameE10ColorRGBAfNS_4lessIS2_EENS_9allocatorINS_4pairIKS2_S3_EEEEEER10vector_mapIS2_S3_S5_NS6_INS7_IS2_S3_EEEEE
S2g:__Z116RuntimeInvoker_Void_t1841601450_Rect_t3681755626_RuntimeObject_Int32_t2071877448_Int32_t2071877448_Int32_t2071877448PFvvEPK10MethodInfoPvPS4_
kzg:_GUIStyle_Draw_m4006459684
hKa:__ZN9GfxDevice17ImmediateTexCoordEifff
o$i:_Parser_ParseRegularExpression_m2390577313
MLc:__ZN10ClipperLib7Clipper13AppendPolygonEPNS_5TEdgeES2_
XRd:_Array_double_swapper_m1175307080
SRf:_X509CertificateEnumerator_System_Collections_IEnumerator_Reset_m327358896
cqd:_Hash__ctor_m2554411450
aye:_NumberFormatter_AppendDigits_m1308372770
Krd:_Single_System_IConvertible_ToDateTime_m2510003459_AdjustorThunk
tbe:_Delegate_RemoveImpl_m3666700529
vok:_emscripten_glUniform4f__wrapper
FLf:_NameObjectCollectionBase_OnDeserialization_m3478980442
YK:__ZN25RuntimeAnimatorControllerC2E18MemLabelIdentifier18ObjectCreationMode
nMd:_InputField_set_caretColor_m2252440840
E$:__Z78Register_UnityEngine_Audio_AudioPlayableOutput_INTERNAL_CALL_InternalSetTargetv
fH:__ZN8Animator8TransferI19StreamedBinaryWriteILb0EEEEvRT_
W6a:__ZNK6Camera16GetProjectionFarEv
dr:__Z24InverseTransformRotationRK23TransformAccessReadOnlyRKN4math7_float4E
jMe:_MissingFieldException__ctor_m1161042282
oWd:_Char_GetHashCode_m2343577184
zub:__ZNK14PlayableOutput11DerivesFromE17ScriptingClassPtr
ADa:__ZN7Texture34CreateFileTextureUploadInstructionE18TextureUploadFlagsj
Q1a:__ZN13ComputeShader14SetBufferParamEjRKN9ShaderLab16FastPropertyNameE15ComputeBufferID
ajf:_ReadOnlyCollection_1_System_Collections_Generic_IListU3CTU3E_Insert_m3054305464_gshared
YG:__ZN8Animator8TransferI14SafeBinaryReadEEvRT_
xme:_Array_InternalArray__IndexOf_TisTypeTag_t141209596_m2882894956_gshared
mli:_Slider_get_value_m4182660424
NFc:__ZNK14b2CapsuleShape5CloneEP16b2BlockAllocator
xx:__ZN17AnimationPlayable34CollectAnimatorControllerPlayablesER13dynamic_arrayIP26AnimatorControllerPlayableLj4EE
z_:__ZN16BaseVideoTexture19UpdateVideoTexturesEv
btb:__Z28BuildSingleStreamChannelInfo17ShaderChannelMaskRK20VertexChannelsLayoutS_S2_P11ChannelInfo
ZBa:__ZNK16LightmapSettings23HasLightProbeTetrahedraEv
VEf:_Context_get_WriteSequenceNumber_m243492531
Tzb:__ZN6Sprite23VirtualRedirectTransferER19StreamedBinaryWriteILb0EE
_lh:__ZL51Assembly_t4268412390_CustomAttributesCacheGeneratorP21CustomAttributesCache
Ptd:_String_LastIndexOfAny_m1473637802
ksc:__Z38Transform_CUSTOM_INTERNAL_set_positionP12Il2CppObjectRK8Vector3f
ENj:__ZNK15dense_hashtableINSt3__24pairIK10KeyWrapperINS1_IPK9FieldInfoP11Il2CppClassEEEjEES9_17ReflectionMapHashIS8_EN14dense_hash_mapIS9_jSD_NS9_14EqualsComparerINS0_8equal_toIS8_EEEENS0_9allocatorISB_EEE9SelectKeyESI_SK_E5beginEv
bta:__ZNK9ShaderLab7Program19HasMatchingVariantsERK13dynamic_arrayI16ShaderKeywordSetLj4EE
lNa:__ZN14DataBufferGLES11CopySubDataEPKS_jjj
se:_emscripten_glVertexPointer
xWa:__ZNSt3__26__treeI20DeviceDepthStateGLES11memcmp_lessIS1_S1_ENS_9allocatorIS1_EEE7destroyEPNS_11__tree_nodeIS1_PvEE
j8c:__ZN2UI13PrepareOutputERNS_7BatchesEjjNS_30AdditionalCanvasShaderChannelsE
OIj:__ZN6il2cpp2vm7Runtime47RaiseExecutionEngineExceptionIfMethodIsNotFoundEPK10MethodInfo
cab:__Z17GetFrustumPortionPK8Vector3fffPS_
fZj:__ZN15dense_hashtableINSt3__24pairIK10KeyWrapperIP14Il2CppIUnknownEjEES5_N6il2cpp5utils11PointerHashIS3_EEN14dense_hash_mapIS5_jSB_NS5_14EqualsComparerINS0_8equal_toIS4_EEEENS0_9allocatorIS7_EEE9SelectKeyESG_SI_E14squash_deletedEv
cSh:__ZL60MovedFromAttribute_t922195725_CustomAttributesCacheGeneratorP21CustomAttributesCache
eGd:_DefaultControls_CreateDropdown_m1384069408
Wzd:_PointerEventData_get_clickCount_m4064532478
gee:_EventArgs__cctor_m1350395667
cfj:_X509Stores_Open_m2057354563
Mee:_CCGregorianCalendar_is_leap_year_m567513478
wSd:_Attribute_IsDefined_m2118467641
ctf:_PrivateKeyInfo_Normalize_m3959595934
aHi:_InternalEnumerator_1_System_Collections_IEnumerator_get_Current_m3125080595_gshared
Lbf:_Collection_1_System_Collections_IList_Add_m2091889616_gshared
Ydc:__ZN16StreamedResource8TransferI24GenerateTypeTreeTransferEEvRT_
BHc:__ZN11b2GearJoint4DumpEv
AHd:_DropdownItem_OnPointerEnter_m761897861
npi:_AnimationLayerMixerPlayable_INTERNAL_CALL_IsLayerAdditiveInternal_m364677421
$O:__Z90Register_UnityEngine_Animations_AnimatorControllerPlayable_INTERNAL_CALL_CrossFadeInternalv
CTa:__ZN10Matrix3x3f15InvertTransposeEv
Lhe:_Array_InternalArray__ICollection_Remove_TisKeyValuePair_2_t1174980068_m2768765894_gshared
Pqi:_AnimatorControllerPlayable_GetFloat_m1229536053
t9e:_Collection_1_set_Item_m2199807215_gshared
qPb:__Z29Transfer_Blittable_ArrayFieldI14SafeBinaryRead8Vector3fEvRT_R9ArrayInfoRK23StaticTransferFieldInfo
oqg:_UInt32_System_IConvertible_ToBoolean_m91295134
Qkg:_Monitor_Monitor_test_synchronised_m1542589500
jUc:__ZN20TextRenderingPrivate8FontImpl18ResetCachedTextureEv
Rtf:_SymmetricTransform_TransformFinalBlock_m4192185386
dAe:_TextInfo__ctor_m1263401274
Y7i:_TouchScreenKeyboard_Open_m913506328
C9j:_GC_print_finalization_stats
J5h:_ValueCollection__ctor_m927733289_gshared
WIc:__ZNK12b2WheelJoint10GetAnchorBEv
hlc:__Z53Register_UnityEngine_Behaviour_get_isActiveAndEnabledv
vNf:_IPAddress_ToString_m267966740
Iq:__ZNSt3__26vectorIN4core12basic_stringIcNS1_20StringStorageDefaultIcEEEENS_9allocatorIS5_EEE8__appendEj
xHb:__ZN26PlayerSettingsSplashScreen8TransferI17RemapPPtrTransferEEvRT_
NKi:_InternalEnumerator_1_get_Current_m3922357178_gshared
xHj:__ZN6il2cpp6icalls8mscorlib6SystemL17CollectTypeFieldsINS_5utils10functional10TrueFilterEEEvP11Il2CppClassPKS7_iRNSt3__26vectorIP9FieldInfoNSB_9allocatorISE_EEEERKT_
VUh:__ZL72ColorBlock_t2652774230_CustomAttributesCacheGenerator_m_HighlightedColorP21CustomAttributesCache
aog:_Type_get_IsValueType_m1733572463
_4b:__Z13GetTagManagerv
pRc:__ZN14PhysicsQuery2D7RaycastERK8Vector2fS2_fRKN10Collider2D13ContactFilterEPKS3_bP12RaycastHit2Di
lie:_Array_InternalArray__ICollection_Remove_TisUInt16_t986882611_m65494986_gshared
Qhf:_ReadOnlyCollection_1_IndexOf_m3054637117_gshared
Hxj:__ZL10roundUp128PyS_
q0:__ZN11UnityEngine15CloudWebService17CloudJobSchedulerD0Ev
Ksd:_String_System_IConvertible_ToBoolean_m2696751322
yAa:__ZN18LoadSceneOperation7PerformEv
Hvg:_GUILayer_INTERNAL_CALL_HitTest_m693512502
S6c:__ZNK2UI11CanvasGroup22GetTypeVirtualInternalEv
Std:_String_LastIndexOfAny_m4281325295
KLc:__ZN10ClipperLib7Clipper14IntersectEdgesEPNS_5TEdgeES2_RNS_8IntPointE
h6g:__Z163RuntimeInvoker_Void_t1841601450_RuntimeObject_Int32_t2071877448_SByte_t454417549_SByte_t454417549_SingleU26_t4173844468_SingleU26_t4173844468_SingleU26_t4173844468PFvvEPK10MethodInfoPvPS4_
Suc:__Z21CleanupGlobalGUIStatev
Emg:_TimeSpan__ctor_m1888018443_AdjustorThunk
Lch:__Z74RuntimeInvoker_Int32_t2071877448_UIVertex_t1204258818_UIVertex_t1204258818PFvvEPK10MethodInfoPvPS4_
g0d:_SyncHashtable_get_Count_m3694444082
SLj:__ZNSt3__26vectorINS_12basic_stringIcNS_11char_traitsIcEENS_9allocatorIcEEEENS4_IS6_EEE8allocateEj
ZUa:__ZN22VertexDeclarationCache5ClearEv
$tk:_emscripten_glUniform2i__wrapper
bjb:__ZN17PersistentManager12SetPathRemapERKN4core12basic_stringIcNS0_20StringStorageDefaultIcEEEES6_
Tz:__Z27ProcessRootMotionEmptyMixerP35AnimationPlayableEvaluationConstantP32AnimationPlayableEvaluationInputP33AnimationPlayableEvaluationOutput
Kbb:__ZN6Camera24PrepareCullingParametersERK23CameraCullingParameters13RenderingPathR11CullResults
Fgc:__Z12SetIUISystemP9IUISystem
KAa:__ZN19RuntimeSceneManager22EndIntegrateMainThreadEP10UnitySceneNS_11LoadingModeE
KQb:__Z26Transfer_UnityEngineObjectI17RemapPPtrTransferLb0EEvRK29SerializationCommandArgumentsR31RuntimeSerializationCommandInfo
Ztd:_String_IsNullOrEmpty_m2802126737
lVd:_Byte_Parse_m1442736478
aEe:_Int64_Parse_m3258022240
Jtd:_String_IndexOfOrdinal_m3591623977
D7i:_Texture2D_get_whiteTexture_m1979591766
m2f:_CryptoConfig_EncodeLongNumber_m2352037787
Fog:_Type_GetMethod_m475234662
RUi:_ActivationServices_get_ConstructionActivator_m1726426854
TSb:__Z29Transfer_Blittable_ArrayFieldI24GenerateTypeTreeTransfer4AABBEvRT_R9ArrayInfoRK23StaticTransferFieldInfo
Uth:__ZL52Activator_t1850728717_CustomAttributesCacheGeneratorP21CustomAttributesCache
Eak:_GC_adj_bytes_allocd
$ne:_Array_InternalArray__ICollection_Add_TisKeyframe_t1449471340_m887263954_gshared
h9i:_UIVertex__cctor_m803910084
Fpe:_Array_InternalArray__Insert_TisDateTime_t693205669_m1484996356_gshared
cYe:_List_1_System_Collections_IList_Remove_m3933652540_gshared
NIe:_MonoIO_get_ConsoleInput_m2976499023
Yag:_OpCode_get_Size_m481593949_AdjustorThunk
CZd:_BitArrayEnumerator_checkVersion_m3839504595
MQd:_Array_GetUpperBound_m1352329707
qIc:__ZN13b2PulleyJoint24SolveVelocityConstraintsERK12b2SolverData
W7b:__ZNK17AnimationCurveTplIfE20FindIndexForSamplingERKNS0_5CacheEfRiS4_
Da:invoke_fiiifii
qDf:_RecordProtocol__ctor_m168945279
Q8d:_DateTimeOffset_Equals_m3728302791_AdjustorThunk
P9a:__ZN20SphericalHarmonicsL219AddDirectionalLightERKN4math7_float3ERKNS0_7_float4E
Bng:_TimeSpan_op_GreaterThanOrEqual_m3997050520
jia:__Z26ScheduleJobForEachInternalR8JobFencePFvPvjES1_iPFvS1_E11JobPriority
BPf:_OidEnumerator_MoveNext_m1889267785
G$a:__ZZ23InitPlayerLoopCallbacksvEN41PostLateUpdateProfilerEndFrameRegistrator7ForwardEv
jhc:__ZN9Scripting18RaiseMonoExceptionEPKcz
Cwb:__ZN9Texture2D8TransferI19StreamedBinaryWriteILb0EEEEvRT_
rxg:_GUISkin_set_box_m877476512
Wmj:_TweenRunner_1_StartTween_m3792842064_gshared
Fac:__ZN9ShaderLab16FastPropertyName15InitBy28BitHashEj
Srd:_Single_System_IConvertible_ToInt32_m3269519527_AdjustorThunk
$Rc:__ZN14PhysicsQuery2D8LinecastERK8Vector2fS2_RKN10Collider2D13ContactFilterEPKS3_bP12RaycastHit2Di
Jmd:_SHA1Internal_ProcessBlock_m4070037334
dDa:__ZN17PersistentManager17IsObjectAvailableEi
_bk:__ZN6il2cpp6icalls8mscorlib6System10Reflection14MonoMethodInfo15get_method_infoE12Il2CppIntPtrP16Il2CppMethodInfo
Lqe:_Array_InternalArray__set_Item_TisDouble_t4078015681_m24756265_gshared
PXf:_ObjRef_GetObjectData_m3081609242
z7b:__ZN13ProduceHelperIN2UI13RectTransformELb0EE7ProduceE18MemLabelIdentifier18ObjectCreationMode
xCb:__ZN17PackedFloatVector12UnpackFloatsEPfiiii
dff:_ReadOnlyCollection_1__ctor_m3671019970_gshared
YC:__ZN17AnimationPlayable28UpdateInternalStateRecursiveILi3ELb0EEEvPK35AnimationPlayableEvaluationConstant
cLa:__ZN13GfxDeviceGLES21DestroyComputeProgramER12ObjectHandleI18ComputeProgram_TagPvE
R3d:_Convert_ToDecimal_m2007036836
Rfa:__ZN17UniqueIDGenerator16DestroyPureIndexEj
$ba:__ZL21AppendNestedClassName17ScriptingClassPtrRN4core17string_with_labelILi1EEE
W_b:__ZN14SafeBinaryRead21TransferSTLStyleArrayINSt3__26vectorIN9ShaderLab20SerializedSubProgram12UAVParameterENS1_9allocatorIS5_EEEEEEvRT_17TransferMetaFlags
YWi:_Context_NotifyDynamicSinks_m1367144344
z1:__ZN24TextDOMTransferWriteBaseI9JSONWriteE12PushMetaFlagEi
ZL:__ZN8Animator8SetFloatEif
pFf:_Context_get_Current_m2717045324
wDf:_TlsClientCertificateVerify__ctor_m110646389
Mya:__ZN6prcoreL26RemapGenericIntegerToFloatI17TexFormatARGB888815TexFormatRFloatEEvPKNS_9InnerInfoE
fXi:_Context_GetServerContextSinkChain_m390126977
FLj:__ZN6il2cpp2vm17TypeNameParseInfoD2Ev
uKe:_StringReader_Read_m513112775
jyb:__ZNK8Renderer8GetLayerEv
bsb:__ZN12FlareManager11DeleteFlareEi
h6a:__ZNK6Camera20GetReplacementShaderEv
fqk:_glProgramBinary__wrapper
A9d:_Decimal__ctor_m569480123_AdjustorThunk
OMf:_HttpWebRequest__cctor_m3013631978
Adk:__ZNSt3__26__treeINS_12__value_typeINS_12basic_stringIcNS_11char_traitsIcEENS_9allocatorIcEEEEPFvvEEENS_19__map_value_compareIS7_SA_NS_4lessIS7_EELb1EEENS5_ISA_EEE4findIS7_EENS_15__tree_iteratorISA_PNS_11__tree_nodeISA_PvEEiEERKT_
h$b:__ZNSt3__26vectorIN9ShaderLab20SerializedSubProgram14ConstantBufferENS_9allocatorIS3_EEE7reserveEj
OCa:__ZL23stbir__calculate_memoryP11stbir__info
HTg:__Z83RuntimeInvoker_Void_t1841601450_Int64_t909078037_Int32_t2071877448_Int64_t909078037PFvvEPK10MethodInfoPvPS4_
cii:_Scrollbar_FindSelectableOnRight_m3219495255
gFc:__ZNK9rapidjson12GenericValueINS_4UTF8IcEE13JSONAllocatorE6AcceptINS_12PrettyWriterI16TempBufferWriterS2_S2_S3_EEEEbRT_
l2a:__ZNK6Camera18GetRenderRectangleEv
d0j:__ZN6il2cpp8metadata15GenericMetadata7InflateEPK19Il2CppGenericMethodPK20Il2CppGenericContext
ope:_Array_InternalArray__ICollection_CopyTo_TisVector3_t2243707580_m509487340_gshared
FO:__Z82AnimatorControllerPlayable_CUSTOM_INTERNAL_CALL_IsParameterControlledByCurveStringR9HPlayableP12Il2CppString
gDc:__ZL26Transfer_SimpleNativeClassI8JSONRead10RectOffsetLb1EEvRK29SerializationCommandArgumentsR31RuntimeSerializationCommandInfo
U9c:__Z44CanvasRenderer_CUSTOM_INTERNAL_CALL_SetColorP12Il2CppObjectRK10ColorRGBAf
mwe:_Component_GetComponentInChildren_TisRuntimeObject_m1823576579_gshared
d9j:_GC_should_collect
dVi:_UrlAttribute_Equals_m1587451932
kAc:__Z18Transfer_BlittableI9JSONWriteLb1EsEvRK29SerializationCommandArgumentsR31RuntimeSerializationCommandInfo
CLc:__ZN10ClipperLib8JoinHorzEPNS_5OutPtES1_S1_S1_NS_8IntPointEb
rCe:_Int16_ToString_m4099416068_AdjustorThunk
o3f:_DSAParameters_t1872138834_marshal_pinvoke_cleanup
Qjc:__ZN9Transform16SetLocalRotationERK11Quaternionf
zri:_AnimatorControllerPlayable_INTERNAL_CALL_GetIntegerID_m1635852922
oKi:_InternalEnumerator_1_get_Current_m3206960238_AdjustorThunk
is:__ZN13AnimationClip16DecompressCurvesERNSt3__26vectorI24CompressedAnimationCurve13stl_allocatorIS2_L18MemLabelIdentifier25ELi16EEEE
K0a:__ZN13RenderManager37RenderCamerasWithScriptableRenderLoopEi
sqf:_ASN1_Element_m2600236165
eha:__ZN23InstancedPropInfoStaticL16RegisterCallbackEPv
dF:__ZN7mecanim8skeleton25SkeletonPoseComputeLocalQEPKNS0_8SkeletonEPKNS0_13SkeletonPoseTIN4math4trsXEEEPS7_ii
m1j:__ZN6il2cpp2os19ReleaseSocketHandleEj
wRg:__Z92RuntimeInvoker_Void_t1841601450_DateTime_t693205669_DateTime_t693205669_TimeSpan_t3430258949PFvvEPK10MethodInfoPvPS4_
d_:__ZN11AudioModule16GetDSPSampleRateEv
R6f:_TypeBuilder_get_next_table_index_m1415870184
Pkk:___cxa_can_catch
Ayf:_SequentialSearchPrimeGeneratorBase_GenerateNewPrime_m296245934
qWd:_Char_GetUnicodeCategory_m4273361321
ZLe:_Math_Round_m565516458
PWi:_Identity_get_ClientDynamicProperties_m767245959
t2j:__ZN6il2cpp2os5posix15PosixWaitObjectC2ENS2_4TypeE
t4a:__ZN6Camera21PostMultiCustomRenderENS_10RenderFlagEb
gbg:_TypeBuilder_create_generic_class_m986834171
vqk:_emscripten_glVertexPointer__wrapper
gGa:__ZN23ShaderVariantCollection13WarmupShadersEv
IEf:_Context_set_ProtocolNegotiated_m1177527245
sqg:_UInt32_System_IConvertible_ToChar_m1056040486
Gba:__Z25GetCommonScriptingClassesv
pKf:_TlsStream_get_Length_m1562309511
$Aa:__Z27scripting_gc_collect_unsafei
i_:__ZN11AudioModule20SuspendVideoTexturesEv
aac:__ZN12CubemapArrayC2E18MemLabelIdentifier18ObjectCreationMode
q2d:_Convert_ToByte_m395020137
RGg:_Plane_ToString_m3541300360_AdjustorThunk
oSb:__Z26Transfer_UnityEngineObjectI24GenerateTypeTreeTransferLb0EEvRK29SerializationCommandArgumentsR31RuntimeSerializationCommandInfo
h2c:_UNITY_FT_GlyphLoader_CheckPoints
hLe:_TextWriter_WriteLine_m1754475888
UDa:__ZN15SharedLightData7PrecalcEv
MBa:__ZN10Matrix4x4fmLERKS_
Cjj:_InvokableCall_1_Invoke_m769918017_gshared
wve:_Array_InternalArray__get_Item_TisDouble_t4078015681_m2215331088_gshared
G6h:_Dictionary_2_Init_m3666073812_gshared
cFg:_UnityWebRequest_InternalSetUrl_m1669953255
k_a:__ZN15ArchiveReadFileD0Ev
Ktf:_SymmetricTransform_TransformBlock_m1524716432
ble:_Array_compare_TisColor32_t874517518_m3842009370_gshared
Wcd:__ZN11UnityEngine15PlatformWrapper18GetOperatingSystemEv
hkf:_ReadOnlyCollection_1_System_Collections_Generic_ICollectionU3CTU3E_Remove_m974176789_gshared
Zae:_Delegate_return_type_match_m4278947849
bOd:_InputField_GenerateHightlight_m1346735465
G2i:_Uri_ParseNoExceptions_m1151989845
src:__Z40SpriteRenderer_CUSTOM_GetSprite_INTERNALP12Il2CppObject
J1d:_GC_SuppressFinalize_m953228702
d2c:_FT_MSB
eAg:_GUIStyle_get_clipping_m2754700641
LUj:__ZN15dense_hashtableINSt3__24pairIK10KeyWrapperINS1_IP11Il2CppClassjEEES4_EES6_N6il2cpp8metadata14ArrayClassHashEN14dense_hash_mapIS6_S4_SB_NS6_14EqualsComparerINSA_17ArrayClassCompareEEENS0_9allocatorIS8_EEE9SelectKeyESF_SH_E3endEv
wZf:_SoapServices_PreLoad_m490411755
ZQg:__Z63RuntimeInvoker_RuntimeObject_Int32_t2071877448_SByte_t454417549PFvvEPK10MethodInfoPvPS4_
bek:__ZN6il2cpp6icalls8mscorlib4Mono8Security12Cryptography18KeyPairPersistence10_CanSecureEP12Il2CppString
OEi:_Action_1_Invoke_m4180501989_gshared
Wki:_Slider__ctor_m3124136916
KHa:__ZN13GfxDeviceGLES14SetRasterStateEPK17DeviceRasterState
TMd:_InputField_set_caretPositionInternal_m231166704
b4i:_Transform_InverseTransformPoint_m2648491174
cEf:_TlsServerHello__ctor_m3032108168
vqa:__ZN14SafeBinaryRead11EndTransferEv
Dlh:__ZL98ILGenerator_t99948092_CustomAttributesCacheGenerator_ILGenerator_Mono_GetCurrentOffset_m3553856682P21CustomAttributesCache
NNb:__ZN14SafeBinaryRead8TransferI8MonoPPtrEEvRT_PKc17TransferMetaFlags
_Oi:_InternalEnumerator_1_System_Collections_IEnumerator_get_Current_m1533037706_gshared
kTa:__ZN21UniformBufferTFMethod13MapBoneBufferEj
UHf:_RecordProtocol_SendChangeCipherSpec_m3542001341
wre:_Array_InternalArray__set_Item_TisVector3_t2243707580_m1390667454_gshared
euc:__ZN12GUIClipState10BeginOnGUIER10InputEvent
DWj:__ZNSt3__26vectorIcNS_9allocatorIcEEEC2Ej
joc:__Z40Register_UnityEngine_Input_GetKeyDownIntv
Hrf:_KeyPairPersistence_CanSecure_m2251009700
HA:__ZN7mecanim5human14HumanPoseClearERNS0_9HumanPoseERKNS_6bitsetILj70EEE
JWf:_ReturnMessage_get_Properties_m531965085
S8f:_GenericTypeParameterBuilder_IsSubclassOf_m563999142
xee:_Exception_ToString_m627574695
PUc:__ZNSt3__26vectorIN20TextRenderingPrivate8FontImpl7IntRectE13stl_allocatorIS3_L18MemLabelIdentifier34ELi16EEE21__push_back_slow_pathIKS3_EEvRT_
Mvc:__Z30Event_Get_Custom_PropModifiersP12Il2CppObject
Nx:__ZN7mecanim9animation16CreateClipOutputEPKNS0_4ClipERNS_6memory9AllocatorE
Gpe:_Array_InternalArray__Insert_TisDecimal_t724701077_m1429254816_gshared
Img:_TimeSpan_get_Days_m1002111510
JFa:__ZNSt3__218__stable_sort_moveIRN10vector_mapI17ScriptingClassPtrPKN5Unity4TypeENS_4lessIS2_EENS_9allocatorINS_4pairIS2_S6_EEEEE13value_compareENS_11__wrap_iterIPSB_EEEEvT0_SJ_T_NS_15iterator_traitsISJ_E15difference_typeEPNSM_10value_typeE
QZb:__ZN6Shader21AwakeFromLoadThreadedEv
Oxa:__ZN6prcoreL17RemapGenericFloatI17TexFormatRGBFloat17TexFormatRGBAHalfEEvPKNS_9InnerInfoE
tWh:__ZL70InputField_t1631627530_CustomAttributesCacheGenerator_m_CharacterLimitP21CustomAttributesCache
TEc:__ZN8JSONRead21TransferSTLStyleArrayI13dynamic_arrayI8Vector2fLj4EEEEvRT_18MemLabelIdentifier17TransferMetaFlags
nfk:__ZN6il2cpp2os9SemaphoreC2Eii
YGi:_InternalEnumerator_1_get_Current_m2960188445_AdjustorThunk
PNb:__ZNSt3__26vectorI8MonoPPtr13stl_allocatorIS1_L18MemLabelIdentifier1ELi16EEE8__appendEj
vmi:_Text_set_alignByGeometry_m1514652028
Y4a:__ZN14qsort_internal30FindAndMovePivotToLastPositionIP17RODataReplacementi19ROSorterReplacementEEvT_S4_T0_T1_
vTa:__ZN15UniformTFMethod20IsBoneCountSupportedEi
Mod:_X509Certificate_GetExpirationDateString_m2351894475
isb:__ZN15SerializeTraitsI13dynamic_arrayI21PlatformShaderDefinesLj4EEE19ResizeSTLStyleArrayERS2_i18MemLabelIdentifier
lHe:_FileStream_get_Position_m465478322
qCj:__ZN14dense_hash_setI10KeyWrapperIPK19Il2CppGenericMethodEN6il2cpp8metadata23Il2CppGenericMethodHashENS4_14EqualsComparerINS6_26Il2CppGenericMethodCompareEEENSt3__29allocatorIS4_EEEC2EjRKS7_RKSA_
_lk:dynCall_viidi
Kpe:_Array_InternalArray__Insert_TisInt64_t909078037_m3039874636_gshared
fni:_ToggleGroup_NotifyToggleOn_m997426227
cIf:_RSASslSignatureDeformatter_SetKey_m1150106904
y9:__ZN24ScriptingMethodFiltering17FilterOnSignatureENS_18MethodSearchFilterE
Ohi:_Scrollbar_ClickRepeat_m3403943364
yNc:__ZThn4_N16PhysicsManager2D12BeginContactEP9b2Contact
ela:__ZN18ScreenManagerWebGL13SetLockCursorE14CursorLockMode
B1c:_cf2_arrstack_finalize
DNe:_MonoType_GetMethodsByName_m1854415088
A0h:_Enumerator_get_CurrentValue_m3147984131_gshared
_6f:_DerivedType_GetMethods_m165266904
ptf:_RSAManaged_EncryptValue_m4089823119
i7b:__ZN13MonoBehaviour19HandleNotificationsEPviR11MessageData
Qfk:__ZN6il2cpp2os9EventImpl5ResetEv
Nyg:_GUIStyle_set_focused_m1547304893
$He:_ReadDelegate_Invoke_m2091885836
h8f:_TypeBuilder_GetField_m2112455315
zpk:b58
Cpk:b59
O0a:__ZN25CameraStackRenderingState18EndStereoRenderingEv
lpk:b52
mpk:b53
jpk:b50
kpk:b51
ppk:b56
qpk:b57
npk:b54
opk:b55
X6d:_DateTime__ctor_m3604679583_AdjustorThunk
Esf:_MACAlgorithm_Core_m2390605245
UNi:_InternalEnumerator_1_System_Collections_IEnumerator_get_Current_m30488070_gshared
c6b:__ZN10GameObject12CleanupClassEv
TTi:_DllImportAttribute__ctor_m1165454237
oIa:__ZN9GfxDevice25SetShaderPropertiesSharedERK19ShaderPropertySheet
omj:_IndexedSet_1_GetEnumerator_m3646001838_gshared
eLb:__ZN10MonoScript17MainThreadCleanupEv
DOa:__ZN18AsyncUploadManager19AsyncResourceUploadER9GfxDeviceii9TextureID
igi:_VertexHelper_AddUIVertexTriangleStream_m4009409241
nbc:__ZL25InitializeDefaultMaterialv
sad:__Z53Register_UnityEngine_CanvasRenderer_get_materialCountv
vmg:_WaitHandle_Dispose_m441403862
Jni:_VertexHelper_AddVert_m3290455716
WEa:__ZN17PersistentManager12UnloadStreamERKN4core12basic_stringIcNS0_20StringStorageDefaultIcEEEEb
dK:__ZN15SerializeTraitsI9OffsetPtrIN7mecanim9animation17BlendTreeConstantEEE8TransferI19StreamedBinaryWriteILb0EEEEvRS4_RT_
Xka:__ZN13ScreenManager17RequestResolutionEiibi
J2f:_DESTransform__ctor_m4096028381
iKj:_il2cpp_unity_liveness_calculation_from_statics
oB:__ZNK26AnimatorControllerPlayable11DerivesFromE17ScriptingClassPtr
Xlg:_Scheduler_get_Instance_m1989471839
yOf:_WebProxy_GetProxy_m1249556681
FOf:_WebRequest_System_Runtime_Serialization_ISerializable_GetObjectData_m3377822910
Kyb:__ZN8Renderer8TransferI17RemapPPtrTransferEEvRT_
zdh:__Z76RuntimeInvoker_Boolean_t3825574718_UIVertex_t1204258818_UIVertex_t1204258818PFvvEPK10MethodInfoPvPS4_
U9e:_Collection_1_Contains_m1299140035_gshared
Bpk:_glBlitFramebuffer__wrapper
foe:_Array_InternalArray__ICollection_Add_TisUICharInfo_t3056636800_m968274080_gshared
ynj:_ObjectPool_1__ctor_m1532275833_gshared
Nsj:__ZL24UnresolvedVirtualCall_71P12Il2CppObjectS0_S0_iS0_S0_S0_PK10MethodInfo
l0e:_List_1_GetIndex_m3262928832_gshared
BUi:_SafeHandle_DangerousRelease_m2167699172
efb:__Z24LookRotationToQuaternionRK8Vector3fS1_P11Quaternionf
cfb:__ZN16ReflectionProbes9GetCameraEv
gti:_AnimatorControllerPlayable_ResolveHash_m3629783965_AdjustorThunk
m2b:__ZL18IsGpuProgramUsable20ShaderGpuProgramTypePK6Shader
Twf:_ArgumentException__ctor_m2105824819
U8c:__ZN2UI6Canvas17SetSortingLayerIDEi
JCd:_BaseMeshEffect_get_graphic_m3358796463
q2j:__ZN6il2cpp2vm11MethodStack23CleanupForCurrentThreadEv
rxj:_Predicate_1_Invoke_m695569038_gshared
TQe:_Enumerator_VerifyState_m825848279_AdjustorThunk
zsb:__ZN20TierGraphicsSettings8TransferI24GenerateTypeTreeTransferEEvRT_
xDj:__ZN15dense_hashtableINSt3__24pairIK10KeyWrapperIN6il2cpp5utils13dynamic_arrayIPK10Il2CppTypeLj4EEEEPFvvEEESA_NS3_8metadata19Il2CppSignatureHashEN14dense_hash_mapISA_SD_SG_NSA_14EqualsComparerINSF_22Il2CppSignatureCompareEEENS0_9allocatorISE_EEE9SelectKeyESK_SM_E16reset_thresholdsEv
iPb:__ZN14SafeBinaryRead21TransferSTLStyleArrayI13dynamic_arrayI4AABBLj4EEEEvRT_17TransferMetaFlags
hva:__ZN18UnityPropertySheet8TransferI19StreamedBinaryWriteILb0EEEEvRT_
qGf:_TlsServerCertificate_checkServerIdentity_m3836435780
Zia:__ZNSt3__26__treeINS_12__value_typeIiN11TypeManager18TypeCallbackStructEEENS_19__map_value_compareIiS4_NS_4lessIiEELb1EEENS_9allocatorIS4_EEE7destroyEPNS_11__tree_nodeIS4_PvEE
ruf:_PKCS12_Decrypt_m2353135969
sEi:_PersistentCallGroup_Initialize_m3908067069
udg:_MonoEvent_ToString_m386956596
ZPh:__ZL70RuntimePlatform_t1869584967_CustomAttributesCacheGenerator_FlashPlayerP21CustomAttributesCache
Fse:_Array_Sort_TisRuntimeObject_m3309514378_gshared
Mra:__ZL19GetCameraTargetRectRK6Camerabb
T2h:_Transform_1_BeginInvoke_m1786442111_gshared
WBe:_Int32_GetFormatException_m1729046182
Xfb:__ZN13dynamic_arrayIN10GameObject13ComponentPairELj4EE6insertEPS1_RKS1_
onb:__ZN21UnityDefaultAllocatorI17LowLevelAllocatorE10DeallocateEPv
N4:__GLOBAL__sub_I_runtime_camera2_lump_cpp
Tt:__ZN15PackedIntVector8TransferI14SafeBinaryReadEEvRT_
Tbg:_FieldInfo_get_IsLiteral_m267898096
qJf:_SslStreamBase_EndNegotiateHandshake_m1732321201
p3h:_Transform_1_BeginInvoke_m1167293475_gshared
AR:__ZN13AudioListener8DoUpdateEv
l2d:__Z13bankers_roundd
oHb:__ZN14SafeBinaryRead8TransferI5RectTIfEEEvRT_PKc17TransferMetaFlags
xi:_emscripten_glGenFramebuffers
r$d:_Hashtable_CopyTo_m2778915805
Uia:__ZN17BaseObjectManager16StaticInitializeEPv
o6f:_ConstructorBuilder_get_IsCompilerContext_m2796899803
Qle:_Array_IndexOf_TisUIVertex_t1204258818_m613887160_gshared
sIb:__ZN18StreamedBinaryReadILb0EE19TransferSTLStyleMapINSt3__28multimapIN4core12basic_stringIcNS4_20StringStorageDefaultIcEEEE4PPtrI6ObjectENS2_4lessIS8_EE13stl_allocatorINS2_4pairIKS8_SB_EEL18MemLabelIdentifier51ELi16EEEEEEvRT_17TransferMetaFlags
M2d:_DateTime_CoreParse_m2014268103
PZe:_List_1__ctor_m3698273726_gshared
xvi:_Application_InvokeOnBeforeRender_m799598445
QAc:__Z18Transfer_BlittableI9JSONWriteLb0EyEvRK29SerializationCommandArgumentsR31RuntimeSerializationCommandInfo
Sra:__ZN13RenderTexture15ThreadedCleanupEv
Zgd:__ZNK20UnityWebRequestProtoI19TransportJavaScript16AtomicRefCounter14RedirectHelper14ResponseHelper15DownloadHandler13UploadHandler12HeaderHelper14AsyncOperationE19GetDownloadProgressEv
Qke:_Array_BinarySearch_TisRuntimeObject_m3361740551_gshared
fvb:__ZN12CubemapArray23VirtualRedirectTransferER14SafeBinaryRead
o2f:_CryptographicException__ctor_m1012314467
cid:__Z65Register_UnityEngine_Networking_UnityWebRequest_InternalSetMethodv
okf:_ReadOnlyCollection_1_System_Collections_IList_Add_m616574295_gshared
XBe:_Int32_ProcessTrailingWhitespace_m2812079777
Aqc:__Z43RectTransform_CUSTOM_INTERNAL_set_sizeDeltaP12Il2CppObjectRK13Vector2fIcall
tOf:_WebProxy__ctor_m3679722173
z_j:__ZN15dense_hashtableINSt3__24pairIK10KeyWrapperINS1_IPKcS4_EEEiEES6_24NamespaceAndNamePairHashN14dense_hash_mapIS6_iS9_NS6_14EqualsComparerI26NamespaceAndNamePairEqualsEENS0_9allocatorIS8_EEE9SelectKeyESD_SF_E6insertERKS8_
Zqa:__ZN24GenerateTypeTreeTransfer18BeginArrayTransferEPKcS1_Ri17TransferMetaFlags
JOa:__Z16DecompressCrunchPKhRjR13TextureFormatiiii18MemLabelIdentifier
nm:___syscall51
rm:___syscall54
Skj:_UnityAction_2_Invoke_m1994351568_gshared
mFg:_UnityWebRequest_GetDownloadHandler_m982989709
WG:__ZNK8Animator20IsAnyRendererVisibleEv
i2c:_cff_builder_add_point1
t$j:__ZN6il2cpp2vm5Image21GetCachedResourceDataEPK11Il2CppImageRKNSt3__212basic_stringIcNS5_11char_traitsIcEENS5_9allocatorIcEEEE
uKd:_HorizontalOrVerticalLayoutGroup_set_childControlWidth_m4209477792
Une:_Array_InternalArray__ICollection_Add_TisUInt32_t2149682021_m2629016323_gshared
GMb:__Z18Transfer_BlittableI14SafeBinaryReadLb0E10ColorRGBAfEvRK29SerializationCommandArgumentsR31RuntimeSerializationCommandInfo
Aa:invoke_iiiiiiiiii
ype:_Array_InternalArray__Insert_TisKeyValuePair_2_t888819835_m975554221_gshared
FTg:__Z59RuntimeInvoker_RuntimeObject_Int64_t909078037_RuntimeObjectPFvvEPK10MethodInfoPvPS4_
zAa:__ZN18LoadSceneOperation19IntegrateTimeSlicedEi
gmg:_Scheduler_SchedulerThread_m2209572785
wnf:_SortKeyBuffer_GetResultAndReset_m2516956577
_kb:__ZN10FileSystem19SetCurrentDirectoryERKN4core12basic_stringIcNS0_20StringStorageDefaultIcEEEE
aca:__ZN16ScriptingManager24NotifyScriptCacheReleaseEi
_kc:__Z47Register_UnityEngine_Coroutine_ReleaseCoroutinev
gS:__ZN15AudioReverbZone13SetFMODValuesEv
lBi:_Component_GetComponentInChildren_m3925629424
B8:__ZL19StaticDestroyShaderPv
ne:_glRenderbufferStorageMultisample
uC:__ZN23AnimationPlayableOutput17SetTargetAnimatorEP8Animator
eej:_X509Chain__ctor_m1113875360
vPb:__Z35Transfer_Blittable_SingleValueFieldI14SafeBinaryReadfEvRT_R17GeneralMonoObjectRK23StaticTransferFieldInfo
LGf:_TlsServerHello_processProtocol_m1241336522
Khe:_Array_InternalArray__ICollection_Remove_TisKeyValuePair_2_t888819835_m1287715465_gshared
DXi:_ContextAttribute_IsContextOK_m3281216012
lJe:_PathTooLongException__ctor_m3212099251
w$f:_ObjectManager_RaiseDeserializationEvent_m1611173032
Gqi:_AnimatorControllerPlayable_INTERNAL_CALL_CreateHandleInternal_m1836196929
qv:__ZN17PackedFloatVector8TransferI18StreamedBinaryReadILb0EEEEvRT_
Nvb:__ZN7Cubemap23VirtualRedirectTransferER17RemapPPtrTransfer
Qnc:__Z37Register_UnityEngine_Screen_get_widthv
Pec:__ZN22BlockMemoryCacheWriter11GetPathNameEv
PId:_Graphic_Rebuild_m2617722358
v8d:_DateTime_ToString_m3108726445_AdjustorThunk
D0:__ZN19CloudServiceHandlerD2Ev
fve:_Array_InternalArray__get_Item_TisTableRange_t2011406615_m602485977_gshared
WNd:_InputField_Append_m2623574152
Mwf:_ApplicationException__ctor_m1120437222
np:stackAlloc
slc:__Z44Camera_CUSTOM_INTERNAL_CALL_ScreenPointToRayP12Il2CppObjectRK8Vector3fR3Ray
vYa:__ZN25SingleBlockMemoryFileData4LockEPPv
oag:_MethodBuilder_GetHashCode_m1713271764
fBg:_Input_GetKeyDown_m1771960377
U5e:_Collection_1_IsSynchronized_m1319022347_gshared
Fmf:_MSCompatUnicodeTable_GetResource_m3816716847
Dmc:__Z32RectOffset_Get_Custom_PropBottomP12Il2CppObject
$Qd:_Array_CreateInstance_m15016505
IOb:__ZNSt3__26vectorI17AnimationCurveTplIfE13stl_allocatorIS2_L18MemLabelIdentifier1ELi16EEE6assignINS_11__wrap_iterIPS2_EEEENS_9enable_ifIXaasr21__is_forward_iteratorIT_EE5valuesr16is_constructibleIS2_NS_15iterator_traitsISC_E9referenceEEE5valueEvE4typeESC_SC_
Zhk:_stat
$kd:_RijndaelTransform_Decrypt128_m1282993908
Atk:_glUniform2fv__wrapper
Xoe:_Array_InternalArray__ICollection_CopyTo_TisUInt16_t986882611_m3228377237_gshared
cXh:__ZL68Navigation_t1571958496_CustomAttributesCacheGenerator_m_SelectOnDownP21CustomAttributesCache
yyi:_Bounds_op_Inequality_m2315096783
kHc:__ZN15b2DistanceJoint23InitVelocityConstraintsERK12b2SolverData
ANi:_InternalEnumerator_1_System_Collections_IEnumerator_get_Current_m3065287496_gshared
HNa:__ZN7ApiGLES16SetPatchVerticesEi
HBi:_Component_BroadcastMessage_m1308086896
tkd:_RC2_set_KeySize_m2015782960
ma:invoke_iiiiiiiiiiii
fuf:_StrongName_get_PublicKey_m3777577320
Pie:_PlayableHandle_IsPlayableOfType_TisAnimationLayerMixerPlayable_t3057952312_m964258557_gshared
Bnc:__Z43Register_UnityEngine_GameObject_SendMessagev
ifa:__ZNSt3__26__treeINS_12__value_typeIN4core12basic_stringIcNS2_20StringStorageDefaultIcEEEES6_EENS_19__map_value_compareIS6_S7_NS_4lessIS6_EELb1EEE13stl_allocatorIS7_L18MemLabelIdentifier12ELi16EEE7destroyEPNS_11__tree_nodeIS7_PvEE
$yj:__ZN6il2cpp2vm17SetupFieldsLockedEP11Il2CppClassRKNS_2os12FastAutoLockE
BV:__ZN11AudioSourceD0Ev
Uzi:_CanvasRenderer_set_hasPopInstruction_m1388844875
zlb:__ZN16MemoryFileSystem4NameEv
wxd:_BaseRaycaster_OnEnable_m3641767070
pMe:_MissingMemberException_get_Message_m2763732423
vyf:_PrimeGeneratorBase_get_PrimalityTest_m308005118
Pzg:_GUIStyle_Internal_CalcSize_m1309259680
nvc:__ZNK8GUIStyle8CalcSizeER10GUIContent
KVe:_List_1_CheckIndex_m2328469916_gshared
fXg:__Z75RuntimeInvoker_RuntimeObject_RuntimeObject_Decimal_t724701077_RuntimeObjectPFvvEPK10MethodInfoPvPS4_
IVc:_UNITY_FT_New_Size
aP:__Z96Register_UnityEngine_Animations_AnimatorControllerPlayable_INTERNAL_CALL_PlayInFixedTimeInternalv
u3e:_List_1_get_Item_m3157283227_gshared
nkj:_InvokableCall_4_Invoke_m1555001411_gshared
V5d:_Convert_ToString_m2915777777
Jva:__ZNSt3__27__sort4IRPFbRKNS_4pairIN9ShaderLab16FastPropertyNameEN18UnityPropertySheet11UnityTexEnvEEES8_EPS6_EEjT0_SD_SD_SD_T_
x1c:_cf2_hintmap_build
Aka:__ZN15dense_hashtableINSt3__24pairIKN4core12basic_stringIcNS2_20StringStorageDefaultIcEEEE10vector_setI4PPtrI11SpriteAtlasENS0_4lessISB_EE13stl_allocatorISB_L18MemLabelIdentifier79ELi16EEEEES6_20StringHash32FunctionIS6_EN14dense_hash_mapIS6_SH_SK_NS0_8equal_toIS6_EESE_ISI_LSF_79ELi16EEE9SelectKeyESN_SO_E5clearEv
l$c:_Line_Up
kOe:_MonoType_GetGenericTypeDefinition_m2363776160
SEf:_Context_set_SentConnectionEnd_m2641458842
ue:_emscripten_glBufferSubData
oUd:_Buffer_BlockCopyInternal_m2627156229
EKd:_Image_set_overrideSprite_m3362535904
fxd:_ExecuteEvents_get_pointerExitHandler_m3250605428
Qwa:__ZN6prcoreL12RemapGenericI15TexFormatRGB88817TexFormatARGB8888EEvPKNS_9InnerInfoE
Op:__Z17CalculateGlobalRS23TransformAccessReadOnly
Ryi:_Camera_ScreenPointToRay_m614889538
fpf:_Kernel_multiByteDivide_m735279869
t9h:_Dictionary_2_ToTValue_m542772656_gshared
Glg:_Thread_GetNewManagedId_internal_m3211695465
Nug:_SkinChangedDelegate_Invoke_m2801964040
Awe:_ScriptableObject_CreateInstance_TisRuntimeObject_m926060499_gshared
qOa:__ZN17GenericDynamicVBO17DrawChunkInternalERK21DynamicVBOChunkHandle17ShaderChannelMaskS3_P17VertexDeclarationP16DrawBuffersRangeij
DZb:__ZN22MemoryCacherReadBlocks14LockCacheBlockEjPPhS1_
pTd:_Boolean_System_IConvertible_ToChar_m2637404801_AdjustorThunk
Lqd:_SecurityContext_Capture_m2535194991
Kpg:_UInt16_System_IConvertible_ToSByte_m3044765342_AdjustorThunk
bWg:__Z66RuntimeInvoker_Void_t1841601450_Int64_t909078037_Int32_t2071877448PFvvEPK10MethodInfoPvPS4_
HUc:__ZN20TextRenderingPrivate8FontImpl16CacheFontForTextEPtiifjPK13dynamic_arrayINS_16TextFormatChangeELj4EE
Rre:_Array_qsort_TisUIVertex_t1204258818_TisUIVertex_t1204258818_m512606409_gshared
nkd:__Z21ArrayElementTypeCheckP11Il2CppArrayPv
Vsk:_emscripten_glTexSubImage2D__wrapper
_Lf:_NameValueCollection_AsSingleString_m10599052
Qjk:__ZNSt3__212basic_stringIcNS_11char_traitsIcEENS_9allocatorIcEEE6appendEjc
mPe:_Object_InternalGetHashCode_m1371384246
$fi:_Navigation_get_defaultNavigation_m2185194207
JRc:__ZN16PhysicsManager2D20WorldContactFilter2D13ShouldCollideEP9b2FixtureS2_
KCe:_Int32_System_IConvertible_ToSByte_m1449623243_AdjustorThunk
ewf:_AccessViolationException__ctor_m1270251537
ybd:__Z42Register_UnityEngine_Canvas_get_rootCanvasv
xej:_X509ExtensionCollection_IndexOf_m3972100651
MNb:__Z14resize_trimmedINSt3__26vectorI8MonoPPtr13stl_allocatorIS2_L18MemLabelIdentifier1ELi16EEEEEvRT_j
bf:_TTF_RenderText_Solid
Eqg:_UInt32_System_IConvertible_ToInt64_m3091851828
tMe:_MissingMethodException__ctor_m3898429715
SYf:_RemotingConfiguration_RegisterClientProviderTemplate_m514821425
n1h:_Enumerator_System_Collections_IEnumerator_Reset_m3085583937_gshared
qtf:_RSAManaged_ExportParameters_m2873993187
M1d:_Convert__cctor_m926133987
R4e:_Enumerator__ctor_m2816143215_AdjustorThunk
wfd:__ZN11UnityEngine7Connect16PersistentValuesC2Ev
lRf:_X509Chain_FindParent_m404663796
rMe:_MissingMemberException__ctor_m2164043278
Qxj:__ZL7log2_32j
STf:_Interpreter_GetGroupInfo_m312421921
sRa:__Z15IsIEEE754Format14GraphicsFormat
PQb:__Z19TransferField_ArrayI17RemapPPtrTransfer27Converter_UnityEngineObjectEvRK23StaticTransferFieldInfoR31RuntimeSerializationCommandInfoRT0_
bb:invoke_iifiii
D8a:__ZN19ShaderPropertySheet24SetTextureFromTextureRefERK23FastTexturePropertyNamePK10TextureRef
Stb:__ZN14RenderSettings8TransferI18StreamedBinaryReadILb0EEEEvRT_
BJa:__ZN13GfxDeviceGLES15UploadTexture2DE9TextureID16TextureDimensionPKhiii14GraphicsFormati18TextureUploadFlags16TextureUsageMode
EEe:_IntPtr_System_Runtime_Serialization_ISerializable_GetObjectData_m21554269_AdjustorThunk
ZT:__ZN4FMOD6System9createDSPEP20FMOD_DSP_DESCRIPTIONPPNS_3DSPE
YB:__ZN7mecanim9animation26DestroyControllerWorkspaceEPNS0_19ControllerWorkspaceERNS_6memory9AllocatorE
nQ:__ZN4FMOD8ChannelI11EndCallbackEv
kod:_ToBase64Transform_TransformBlock_m2201454137
bvc:__ZN8GUIStyle14SetDefaultFontEPN13TextRendering4FontE
Zag:_OpCode_get_StackBehaviourPop_m3787015663_AdjustorThunk
o_i:_PatternCompiler_EmitCount_m3609178511
pzb:__ZN15QualitySettings23VirtualRedirectTransferER24GenerateTypeTreeTransfer
Zwj:_U3CCreateWhereIteratorU3Ec__Iterator1D_1_System_Collections_Generic_IEnumerableU3CTSourceU3E_GetEnumerator_m2682676065_gshared
kwe:_Component_GetComponent_TisRuntimeObject_m4109961936_gshared
Kzg:_GUIStyle_Internal_GetCursorStringIndex_m1491806746
PKj:__ZN6il2cpp2os10FileHandleC2Ev
Bpc:__Z59Register_UnityEngine_MonoBehaviour_Internal_CancelInvokeAllv
OBj:__ZN30dense_hashtable_const_iteratorINSt3__24pairIK10KeyWrapperIPK19Il2CppGenericMethodEPK26Il2CppGenericMethodIndicesEES6_N6il2cpp8metadata23Il2CppGenericMethodHashEN14dense_hash_mapIS6_SA_SE_NS6_14EqualsComparerINSD_26Il2CppGenericMethodCompareEEENS0_9allocatorISB_EEE9SelectKeyESI_SK_EppEv
TKf:_HybridDictionary_Add_m1037587952
uCg:_Mathf_Cos_m238853451
kVc:_UNITY_FT_Request_Metrics
XYj:__ZN6il2cpp6icalls8mscorlib6System10Reflection10MonoMethod29get_IsGenericMethodDefinitionEP22Il2CppReflectionMethod
DVj:__ZN6il2cpp2vm6Thread21AllocThreadStaticDataEi
O2d:_DateTime_YearMonthDayFormats_m4204607055
oEd:_ColorBlock_set_disabledColor_m3502887543_AdjustorThunk
K5j:__ZN30dense_hashtable_const_iteratorINSt3__24pairIK10KeyWrapperIPK19Il2CppGenericMethodEP10MethodInfoEES6_N6il2cpp8metadata23Il2CppGenericMethodHashEN14dense_hash_mapIS6_S9_SD_NS6_14EqualsComparerINSC_26Il2CppGenericMethodCompareEEENS0_9allocatorISA_EEE9SelectKeyESH_SJ_EppEv
EZ:__Z13RegisterClassI13AudioListenerEvv
koj:_Aes__ctor_m4020215067
PM:__ZN23AnimationOffsetPlayable11GetPositionEv
$zc:__Z18Transfer_BlittableI9JSONWriteLb0E8Vector3fEvRK29SerializationCommandArgumentsR31RuntimeSerializationCommandInfo
$f:_emscripten_glUniform4i
NId:_Graphic_OnDisable_m2360886868
Enj:_ObjectPool_1_Release_m1615270002_gshared
nf:_emscripten_glUniform4f
zj:___unlock
TO:__Z105Register_UnityEngine_Animations_AnimatorControllerPlayable_INTERNAL_CALL_GetAnimatorClipInfoCountInternalv
vji:_ScrollRect_InternalCalculateOffset_m3083065267
JZd:_Comparer_Compare_m4132969818
mW:__ZN20SoundChannelInstance19setReverbPropertiesEP29FMOD_REVERB_CHANNELPROPERTIES
kM:__ZNK26AnimatorControllerPlayable14IsInTransitionEi
lbi:_DefaultComparer_Equals_m2171836276_gshared
uXj:__ZN6il2cpp2vm9Exception18GetFormatExceptionEPKc
Vsc:__Z40Register_UnityEngine_Transform_IsChildOfv
pzg:_GUIStyle_Draw_m1435796321
BXd:_ArrayList_Sort_m923359189
smc:__Z45Register_UnityEngine_Display_GetSystemExtImplv
Ny:__ZN7mecanim9animation23TransformValuesFromClipEiiiRKNS_10ValueArrayERKNS0_10ClipOutputERKNS0_12ClipBindingsERS1_RNS_14ValueArrayMaskEb
myi:_Bounds_set_center_m2069004927_AdjustorThunk
hxc:__Z46GUIStyle_CUSTOM_Internal_DrawWithTextSelectionP12Il2CppObjectR43MonoInternal_DrawWithTextSelectionArguments
Nxj:__ZL17log2withScale_128yyi
E7c:__ZNSt3__218__insertion_sort_3IRNS_6__lessIN2UI14DepthSortEntryES3_EEPS3_EEvT0_S7_T_
Sdg:_MonoField_CheckGeneric_m1527550038
nha:__ZN13RuntimeStaticI15DirectorManagerLb0EE16StaticInitializeEPv
CDc:__ZN8JSONRead8TransferI23ManagedObjectTransfererEEvRT_PKc17TransferMetaFlagsb
Qyf:_ASN1_get_Value_m2229768312
Qwd:_BaseInput_get_touchCount_m998724785
pGb:__ZN11TimeManager6UpdateEv
oOd:_InputField_get_preferredWidth_m3185355225
$ug:_GUIUtility_get_pixelsPerPoint_m2667928361
ylg:_Thread_SetState_m3198426726
VXd:_ArrayListWrapper_Contains_m1158465965
eik:_fflush
JBa:__ZN17LightProbeContext4InitERK16LightmapSettingsRK14RenderSettings
hgk:__GLOBAL__sub_I_Error_cpp
B0i:_Alternation_GetWidth_m4218808325
Wkf:_ReadOnlyCollection_1_System_Collections_IList_Insert_m2651065875_gshared
AXc:_ft_bitmap_glyph_bbox
fMf:_TypeConverterAttribute__ctor_m4061167050
N3e:_Enumerator_MoveNext_m3315718998_gshared
Qtg:_Font_add_textureRebuilt_m1282639736
nI:__ZN14SafeBinaryRead21TransferSTLStyleArrayI22OffsetPtrArrayTransferI9OffsetPtrIN7mecanim12statemachine21SelectorStateConstantEEEEEvRT_17TransferMetaFlags
nak:_GC_reclaim_uninit
Tcb:__Z34ProcessIndexListIsNodeVisibleStep2RK22SceneCullingParametersPK9SceneNodePK4AABBR9IndexList
cLb:__ZN10MonoScriptD2Ev
Cli:_Slider_OnRectTransformDimensionsChange_m4109401172
pOf:_WebHeaderCollection_Get_m3391944907
_nc:__Z39Input_CUSTOM_INTERNAL_get_mousePositionP8Vector3f
m_c:_tt_cmap13_char_next
c0a:__ZN9ShaderLab4Pass16SetupPassOptionsEv
dmj:_UnityEvent_4__ctor_m3102731553_gshared
kh:_JS_Sound_ReleaseInstance
OPh:__ZL72IL2CPPStructAlignmentAttribute_t130316838_CustomAttributesCacheGeneratorP21CustomAttributesCache
CIa:__ZN13GfxDeviceGLES19DrawBuffersIndirectEP9GfxBufferPK18VertexStreamSourceiP17VertexDeclaration17ShaderChannelMask16GfxPrimitiveType15ComputeBufferIDj
Boi:_AnimationClipPlayable__ctor_m1126286616
y4i:_Renderer_get_sortingLayerID_m2403577271
WFd:_DefaultControls_CreateScrollbar_m770089625
Erk:_emscripten_glPixelStorei__wrapper
gYg:__Z98RuntimeInvoker_Void_t1841601450_Int32_t2071877448_Int32_t2071877448_SByte_t454417549_RuntimeObjectPFvvEPK10MethodInfoPvPS4_
Oqc:__Z21Resources_CUSTOM_LoadP12Il2CppStringP12Il2CppObject
Fm:FUNCTION_TABLE_diddi
Vqc:__Z26Material_CUSTOM_SetIntImplP12Il2CppObjectii
FBe:_Int16_System_IConvertible_ToSingle_m3277935657_AdjustorThunk
zui:_AnimatorControllerPlayable_HasState_m3003093532_AdjustorThunk
k7c:__ZNK2UI14CanvasRenderer22GetTypeVirtualInternalEv
dYi:_InternalRemotingServices__cctor_m3821625125
Qmc:__Z42Register_UnityEngine_RectOffset_get_bottomv
Cig:_StringBuilder_Insert_m3322917127
rai:_DefaultComparer_Equals_m724229128_gshared
c2h:_Enumerator_VerifyCurrent_m1702320752_AdjustorThunk
q4d:_Convert_ToDouble_m3520060872
Zqk:_emscripten_glUniform1f__wrapper
Hlk:dynCall_di
iIf:_SslCipherSuite_ComputeServerRecordMAC_m1876572367
rUc:__ZN20TextRenderingPrivate19NativeTextGeneratorC2ERK11UTF16StringPNS_8FontImplE11ColorRGBA32ifRK8Vector2fbifiibffbbbP13dynamic_arrayIN2UI8UIVertexELj4EE
Izc:__Z28RegisterModule_JSONSerializev
Nkg:_Interlocked_CompareExchange_m3227034792
Rid:_HashAlgorithm_get_Hash_m931854461
sRi:_DefaultComparer_Compare_m3564013922_gshared
Q3b:__ZN2UI13RectTransform8TransferI14SafeBinaryReadEEvRT_
MAc:__Z35Transfer_Blittable_FixedBufferFieldI9JSONWriteaEvRK29SerializationCommandArgumentsR31RuntimeSerializationCommandInfo
xgc:__Z20IsHumanControllingUsv
o1a:__ZNK19RenderEventsContext21ExecuteCommandBuffersEijR17ShaderPassContextR15RenderNodeQueueP19ProfilerInformationi
O5:__ZNK20DynamicHeapAllocatorI17LowLevelAllocatorE10GetPtrSizeEPKv
Ys:__ZN7mecanim5human9HumanGoal8TransferI14SafeBinaryReadEEvRT_
_ob:__ZN10systeminfo21GetPersistentDataPathEv
HGd:_Dropdown_set_value_m2945561009
tIa:__ZN13GfxDeviceGLES17DestroyGpuProgramEPK10GpuProgram
mze:_GregorianCalendar_GetMonth_m523739832
iMb:__Z44InitializeTransferFunctionScriptingTraitsForI18StreamedBinaryReadILb0EEEvR31TransferFunctionScriptingTraits
R8a:__ZNSt3__218__insertion_sort_3IR23CompareReflectionProbesP31RuntimeReflectionProbeBlendInfoEEvT0_S5_T_
ZQb:__ZN12NativeBufferI27Converter_SimpleNativeClassI8GradientEE15SetupForWritingER9ArrayInfo
Wja:__ZNSt3__213__stable_sortIRNS_4lessIN4core12basic_stringIcNS2_20StringStorageDefaultIcEEEEEENS_11__wrap_iterIPS6_EEEEvT0_SC_T_NS_15iterator_traitsISC_E15difference_typeEPNSF_10value_typeEi
cug:_GameObject_AddComponent_m3757565614
Mka:__ZN12_GLOBAL__N_113StaticDestroyEPv
pBj:__ZN30dense_hashtable_const_iteratorINSt3__24pairIK10KeyWrapperIPKcEP11Il2CppClassEES5_N6il2cpp5utils11StringUtils12StringHasherIS4_EEN14dense_hash_mapIS5_S8_SE_NS5_14EqualsComparerINSB_13VmStringUtils21CaseSensitiveComparerEEENS0_9allocatorIS9_EEE9SelectKeyESJ_SL_EppEv
cBe:_Guid_ToString_m51661589
juc:__ZNK8GUIStyle4DrawER8GUIStateRK5RectTIfER10GUIContentbbbb
hmi:_Text_set_font_m1095513810
Ivk:_glUnmapBuffer__wrapper
E7d:_DateTime_System_IConvertible_ToUInt32_m1363211018_AdjustorThunk
HLd:_InputField_get_cachedInputTextGenerator_m881618486
vzi:_Canvas_get_rootCanvas_m1790974328
Uoc:__Z32Mesh_CUSTOM_ExtractArrayFromListP12Il2CppObject
U4f:_Binder_get_DefaultBinder_m965620943
fEc:__ZN8JSONRead21TransferSTLStyleArrayINSt3__26vectorI8Gradient13stl_allocatorIS3_L18MemLabelIdentifier1ELi16EEEEEEvRT_17TransferMetaFlags
MGb:__ZNSt3__218__insertion_sort_3IRNS_6__lessINS_4pairIPKN5Unity4TypeE7Hash128EES8_EEPS8_EEvT0_SC_T_
zSb:__ZN10RectOffset8TransferI24GenerateTypeTreeTransferEEvRT_
$Rd:_SimpleEnumerator_get_Current_m482975946
whc:__Z18GetResourceManagerv
Kik:_srand
r7c:__ZN2UI13CanvasManager19RemoveDirtyRendererEPNS_6CanvasEPNS_14CanvasRendererE
NCj:__ZN15dense_hashtableI10KeyWrapperIPK17Il2CppGenericInstES4_N6il2cpp8metadata21Il2CppGenericInstHashEN14dense_hash_setIS4_S7_NS4_14EqualsComparerINS6_24Il2CppGenericInstCompareEEENSt3__29allocatorIS4_EEE8IdentityESB_SE_E12resize_deltaEjj
Kxi:_AudioClip_InvokePCMSetPositionCallback_Internal_m2304858844
Icd:__ZN11UnityEngine15PlatformWrapper25GetGraphicsRendererStringEv
CNd:_InputField_KeyPressed_m3066588581
J7i:_Time_get_unscaledTime_m862335845
Hki:_Selectable_DoStateTransition_m539253088
tnd:_SHA512_Create_m439875055
h4:__ZN11UnityEngine15CloudWebService17WebFileDownloaderINS0_20WebRequestRestClientENS0_23WebRequestRestHeaderMapEED2Ev
$b:invoke_vi
lnd:_SHA384Managed_update_m2629600295
bMc:__ZNSt3__26vectorINS0_IN10ClipperLib8IntPointENS_9allocatorIS2_EEEENS3_IS5_EEE7reserveEj
jXa:__ZN15dense_hashtableINSt3__24pairIKN4core12basic_stringIcNS2_20StringStorageDefaultIcEEEEP20ArchiveStorageReaderEES6_20StringHash32FunctionIS6_EN14dense_hash_mapIS6_S9_SC_NS0_8equal_toIS6_EE13stl_allocatorISA_L18MemLabelIdentifier54ELi16EEE9SelectKeyESF_SI_ED2Ev
Zb:invoke_vd
xb:invoke_vf
Hda:__ZNK10GameObject8IsActiveEv
FOe:_NumberFormatter__cctor_m1641464619
s1f:_SByte_System_IConvertible_ToUInt32_m4256495110
szd:_PointerEventData_set_eligibleForClick_m2036057844
hRa:__ZN18GfxFramebufferGLES23SetupDefaultFramebufferEPP17RenderSurfaceBaseS2_N2gl6HandleILNS3_10ObjectTypeE9EEE
mik:_mbsinit
Zyg:_GUIStyle_get_Internal_clipOffset_m4237737448
sSh:__ZL70EventSystem_t3466835263_CustomAttributesCacheGenerator_m_FirstSelectedP21CustomAttributesCache
ula:__ZN13ScreenManager18RequestOrientationE17ScreenOrientation
yzj:__ZN6il2cpp2vm5Class12SetupMethodsEP11Il2CppClass
bkc:__Z39DeleteLastPathNameComponentWithAnySlashRKN4core12basic_stringIcNS_20StringStorageDefaultIcEEEE
luc:__ZN10GUIManager14InitGUIManagerEv
pWh:__ZL68InputField_t1631627530_CustomAttributesCacheGenerator_m_KeyboardTypeP21CustomAttributesCache
Nni:_VerticalLayoutGroup_CalculateLayoutInputHorizontal_m497637066
vti:_AnimatorControllerPlayable_CrossFadeInFixedTimeInternal_m1452579496
ZRi:_Comparer_1_System_Collections_IComparer_Compare_m1635186002_gshared
n4i:_RectTransformUtility_PixelAdjustPoint_m560908615
EYi:_MethodCall__ctor_m4106494862
xQg:__Z167RuntimeInvoker_Void_t1841601450_SByte_t454417549_SByte_t454417549_SByte_t454417549_SByte_t454417549_SByte_t454417549_SByte_t454417549_SByte_t454417549_SByte_t454417549PFvvEPK10MethodInfoPvPS4_
xxc:__Z37Register_UnityEngine_GUIStyle_Cleanupv
Pa:invoke_iiifii
hsc:__Z39Register_UnityEngine_Time_set_timeScalev
hIj:__ZN6il2cpp6icalls8mscorlib6System8MonoType13IsPointerImplEP20Il2CppReflectionType
a4d:_Convert_ToDecimal_m2284596541
psi:_AnimatorControllerPlayable_GetLayerIndex_m747049736
Ti:_emscripten_glFramebufferRenderbuffer
YDe:_Int64_GetHashCode_m4047499913
Yfb:__ZN9Transform30EnsureTransformHierarchyExistsEv
UJj:_il2cpp_field_get_flags
t_:__ZN11AudioModule26SetDefaultMicrophoneDriverEPv
Osg:_UnitySerializationHolder_GetRealObject_m286267090
xSd:_Attribute_IsDefined_m216577166
FWd:_Char_ToUpper_m109978609
kN:__Z94Register_UnityEngine_Animations_AnimationLayerMixerPlayable_INTERNAL_CALL_CreateHandleInternalv
tKi:_InternalEnumerator_1_get_Current_m1089848479_gshared
uce:_Double_System_IConvertible_ToInt64_m3798425616
bBd:_StandaloneInputModule_get_repeatDelay_m3025279
Zog:_Type_GetGenericTypeDefinition_m2658530753
Zhc:__ZN13MonoBehaviour13StopCoroutineEPKc
Vib:__ZNSt3__26vectorINS_4pairIN4core12basic_stringIcNS2_20StringStorageDefaultIcEEEEPK17MessageIdentifierEENS_9allocatorISA_EEE12__move_rangeEPSA_SE_SE_
Z4a:__ZN14qsort_internal17MedianOfThreeSwapIP17RODataReplacement19ROSorterReplacementEEvT_S4_S4_T0_
pyj:__ZNK15dense_hashtableINSt3__24pairIK10KeyWrapperIPK22Il2CppGenericParameterEP11Il2CppClassEES6_N6il2cpp5utils11PointerHashIS4_EEN14dense_hash_mapIS6_S9_SE_NS6_14EqualsComparerINS0_8equal_toIS5_EEEENS0_9allocatorISA_EEE9SelectKeyESJ_SL_E3endEv
Zjc:__ZN17TransformInternal36OnScaleChangedCalculateTransformTypeE15TransformAccess
ZYd:_SynchronizedArrayListWrapper_InsertRange_m709359548
HZa:__ZN17ArchiveFileSystem10ToAbsoluteEPKc
jyf:_BigInteger_op_Modulus_m13450242
S4d:_Convert_ToInt32_m2988544165
ise:_Array_Resize_TisColor32_t874517518_m2219502085_gshared
DD:__ZN7mecanim6CRCKeyENS_7eStringE
aKf:_SslStreamBase_get_CanWrite_m2069502593
J4b:__ZL12SetPrefValueRKN4core12basic_stringIcNS_20StringStorageDefaultIcEEEERK9PrefValue
A7:__ZN19ShaderPropertySheet20ReservePropertyCountEj
v6j:__ZN6il2cpp5utils11StringUtils6PrintfEPKcz
zUj:__ZNSt3__26vectorIN6il2cpp8metadata18GenericArrayMethodENS_9allocatorIS3_EEE7reserveEj
Wva:__ZN15NameToObjectMapI6ShaderNSt3__23mapI4PPtrIS0_EN4core12basic_stringIcNS5_20StringStorageDefaultIcEEEENS1_4lessIS4_EENS1_9allocatorINS1_4pairIKS4_S9_EEEEEENS1_8multimapIS9_S4_NSA_IS9_EENSC_INSD_IKS9_S4_EEEEEEE4FindERSK_
k2h:_ShimEnumerator_Reset_m98005789_gshared
oDa:__ZN24GenerateTypeTreeTransfer21TransferResourceImageE19ActiveResourceImagePKcR13StreamingInfoPvjiPKN5Unity4TypeE
KFg:_Object_INTERNAL_CALL_Internal_InstantiateSingle_m3932420250
OSi:_ResourceEnumerator__ctor_m1679839941
Sif:_ReadOnlyCollection_1_System_Collections_IList_set_Item_m1377990618_gshared
O9f:_ILGenerator_make_room_m373147874
T9h:_Dictionary_2_Init_m1045257495_gshared
cvk:_emscripten_glLinkProgram__wrapper
fIg:_PlayableHandle_SetDurationInternal_m3359857977
YTd:_Boolean_CompareTo_m3691698947_AdjustorThunk
ame:_Array_InternalArray__IndexOf_TisKeyValuePair_2_t888819835_m2660446234_gshared
Rsf:_PKCS1_Verify_v15_m2571212635
Atb:__ZNSt3__212__deque_baseI18ReflectionProbeJobNS_9allocatorIS1_EEED2Ev
$C:__ZN11UnityEngine9Animation27DestroyAnimationSetBindingsEPNS0_20AnimationSetBindingsERN7mecanim6memory9AllocatorE
N_b:__ZN15dense_hashtableINSt3__24pairIKiN4core17string_with_labelILi1EEEEEi18SInt32HashFunctionN14dense_hash_mapIiS5_S7_NS0_8equal_toIiEE13stl_allocatorIS6_L18MemLabelIdentifier1ELi16EEE9SelectKeyESA_SD_E13set_empty_keyERKS6_
aL:__ZN8Animator12CleanupClassEv
Qvd:_DecoderReplacementFallbackBuffer__ctor_m1305504326
dEc:__Z13TransferFieldI8JSONReadLb0E27Converter_SimpleNativeClassI10RectOffsetEEvRK23StaticTransferFieldInfoR31RuntimeSerializationCommandInfoRT1_
Htd:_String_IndexOf_m570401060
ede:_Enum_System_IConvertible_ToDateTime_m2924690746
hHd:_Dropdown_CreateBlocker_m4109366440
Gid:_HashAlgorithm_System_IDisposable_Dispose_m2106335965
u$j:__GLOBAL__sub_I_GenericMetadata_cpp
fJg:_RangeAttribute__ctor_m1657271662
Ktc:__ZNK8GUIStyle4DrawER8GUIStateRK5RectTIfER10GUIContentib
vHj:__ZN6il2cpp6icalls8mscorlib6System8MonoType18GetFields_internalEP20Il2CppReflectionTypeiS5_
scb:__Z24CalculateSpotLightBoundsffRK10Matrix4x4fR15SpotLightBounds
Imf:_TailoringInfo__ctor_m2248501932
y0:__ZN23CloudWebServicesManager23VirtualRedirectTransferER14SafeBinaryRead
cQg:__Z150RuntimeInvoker_Int32_t2071877448_RuntimeObject_Int32_t2071877448_Int32_t2071877448_RuntimeObject_Int32_t2071877448_Int32_t2071877448_Int32_t2071877448PFvvEPK10MethodInfoPvPS4_
vYd:_FixedSizeArrayListWrapper_InsertRange_m2690348965
sKb:__Z19ShouldTransferFieldR32SerializationCommandQueueBuilder17ScriptingClassPtriR18TransferField_InfoRK20CoreScriptingClasses
lbg:_FieldInfo_get_IsStatic_m1411173225
AIe:_MemoryStream_Read_m2289595005
cV:__ZN5audio5mixer22UpdateAudioMixerMemoryERKNS0_18AudioMixerConstantERNS0_16AudioMixerMemoryEfPN4FMOD6SystemEf
eTc:__ZL21InitializeCachedStripPv
iWj:__ZN6il2cpp6icalls8mscorlib6System9Threading6Thread23GetCachedCurrentCultureEP12Il2CppThread
aki:_Selectable_get_allSelectables_m3045831006
_4a:__ZNK6Camera22GetWorldToCameraMatrixEv
g2j:__ZN6il2cpp2vm12GenericClass11IsValueTypeEP18Il2CppGenericClass
HJb:__ZN13MonoBehaviour7SetNameEPKc
dBf:_ContentInfo__ctor_m3579805263
bBj:__ZN15dense_hashtableINSt3__24pairIK10KeyWrapperIPKcEP11Il2CppClassEES5_N6il2cpp5utils11StringUtils12StringHasherIS4_EEN14dense_hash_mapIS5_S8_SE_NS5_14EqualsComparerINSB_13VmStringUtils21CaseSensitiveComparerEEENS0_9allocatorIS9_EEE9SelectKeyESJ_SL_E15set_deleted_keyERKS9_
iji:_ScrollRect_get_verticalNormalizedPosition_m1701804869
thd:__ZN29UnityWebRequestAsyncOperationC2E18MemLabelIdentifierP15UnityWebRequest
OAa:__ZN18AwakeFromLoadQueue5ClearEv
y4h:_Enumerator_get_Current_m2986380627_AdjustorThunk
fbb:__ZNSt3__27__sort5IR15ReflProbeSorterPP15ReflectionProbeEEjT0_S6_S6_S6_S6_T_
Gha:__ZN8Playable10DisconnectEPS_i
KHi:_InternalEnumerator_1_get_Current_m1526874475_AdjustorThunk
uk:_glGenTransformFeedbacks
wFa:__ZN13LoadOperationD2Ev
xrf:_KeyPairPersistence__ctor_m1817312194
fhe:_Array_InternalArray__ICollection_Contains_TisMark_t2724874473_m1640201705_gshared
_ya:__Z21PlayerStartFirstSceneb
D7f:_TypeBuilder_get_AssemblyQualifiedName_m2097258567
Kva:__ZNSt3__27__sort5IRPFbRKNS_4pairIN9ShaderLab16FastPropertyNameEN18UnityPropertySheet11UnityTexEnvEEES8_EPS6_EEjT0_SD_SD_SD_SD_T_
oti:_AnimatorControllerPlayable_GetParameterCount_m1050153685_AdjustorThunk
RMa:__ZNK7ApiGLES18GetExtensionStringEv
yTa:__ZN31TransformFeedbackSkinPoseBufferD0Ev
_qk:_emscripten_glVertexAttrib1f__wrapper
QYa:__ZNK12HandlerChain4SizeERK13FileEntryData
Pai:_DefaultComparer_Equals_m1281232537_gshared
lp:FUNCTION_TABLE_iiiiiiiii
PMd:_InputField_set_asteriskChar_m619206227
E2f:_DES_IsSemiWeakKey_m3967392585
fMc:__Z22GetPhysicsGroundBody2Dv
LBe:_Int16_System_IConvertible_ToUInt32_m883204517_AdjustorThunk
u8i:_Transform_get_localRotation_m4001487205
Oeg:_MonoProperty_get_PropertyType_m1921201152
BFd:_FloatTween_TweenValue_m3881535116_AdjustorThunk
b9j:_GC_allochblk
Rbd:__ZN22BaseUnityConnectClient19SendAppRunningEventEv
TAa:__Z15UnloadGameScenev
Dvk:_glCheckFramebufferStatus__wrapper
oxf:_BigInteger_get_Rng_m2525288368
kxg:_GUIStyleState_GetBackgroundInternal_m439046630
KSf:_X509ExtensionEnumerator_Reset_m3200687545
KZd:_CaseInsensitiveHashCodeProvider__ctor_m3775398833
JRi:_Comparer_1_System_Collections_IComparer_Compare_m674728644_gshared
Knc:__Z36Renderer_Get_Custom_PropSortingOrderP12Il2CppObject
WNj:__ZNK15dense_hashtableINSt3__24pairIK10KeyWrapperIPK10Il2CppTypeEjEES6_N6il2cpp8metadata14Il2CppTypeHashEN14dense_hash_mapIS6_jSB_NS6_14EqualsComparerINSA_26Il2CppTypeEqualityComparerEEENS0_9allocatorIS8_EEE9SelectKeyESF_SH_E13find_positionERS7_
Qpa:__ZN7Texture5ResetEv
JFc:__ZNK14b2CapsuleShape7RayCastEP15b2RayCastOutputRK14b2RayCastInputRK11b2Transformi
iRb:__Z18Transfer_BlittableI24GenerateTypeTreeTransferLb1EhEvRK29SerializationCommandArgumentsR31RuntimeSerializationCommandInfo
lRc:__ZN10Collider2D16TransformChangedEi
ojc:__ZNK16TypeTreeIterator10ByteOffsetEv
sId:_Graphic_get_rectTransform_m2697395074
Gga:__ZnwjRKSt9nothrow_t
sG:__ZN8Animator11ClearObjectEv
VIb:__ZNSt3__26vectorIi13stl_allocatorIiL18MemLabelIdentifier12ELi16EEE8__appendEj
NPf:_X500DistinguishedName_Decode_m3070515374
bua:__ZN14SafeBinaryRead19TransferSTLStyleMapINSt3__23mapI39DeprecatedFastPropertyNameSerializationN18UnityPropertySheet11UnityTexEnvENS1_4lessIS3_EENS1_9allocatorINS1_4pairIKS3_S5_EEEEEEEEvRT_17TransferMetaFlags
Gpc:__Z45Register_UnityEngine_MonoBehaviour_IsInvokingv
wNf:_IPv6Address_set_ScopeId_m1442934355
x$f:_ObjectManager_RaiseOnDeserializedEvent_m512850179
eqc:__Z81Register_UnityEngine_Playables_PlayableHandle_INTERNAL_CALL_SetInputCountInternalv
hic:__Z35UnregisterSerializationCacheBuilderPFv17ScriptingClassPtrR23CachedSerializationDataRbE
Bsa:__Z30GetBuiltinVectorParamArraySize24BuiltinShaderVectorParam
tmf:_CodePointIndexer__ctor_m797342079
aeb:__ZN21RendererUpdateManager11AddRendererER8Renderer
u6b:__Z13RegisterClassI15ResourceManagerEvv
MMb:__Z35Transfer_Blittable_FixedBufferFieldI14SafeBinaryReadsEvRK29SerializationCommandArgumentsR31RuntimeSerializationCommandInfo
HCb:__ZN14SafeBinaryRead21TransferSTLStyleArrayI13dynamic_arrayIfLj4EEEEvRT_17TransferMetaFlags
w6j:__ZN6il2cpp5utils11StringUtils11Utf16ToUtf8EPKDs
aFg:_UnityWebRequest_InternalSetMethod_m969165462
Zcd:__ZN11UnityEngine15PlatformWrapper20IsRootedOrJailbrokenEv
O$a:__ZZ23InitPlayerLoopCallbacksvEN52PreLateUpdateScriptRunBehaviourLateUpdateRegistrator7ForwardEv
nQf:_X509Certificate2_GetNameInfo_m402390219
ncb:__Z33IntersectAABBPlaneBoundsOptimizedRK4AABBPKN4math7_float4Ei
eSd:_Swapper_BeginInvoke_m2652511022
GKg:_RectOffset_t3387826427_marshal_pinvoke_back
GIa:__ZN9GfxDevice19EndGeometryJobFrameEv
cRb:__ZN27Converter_SimpleNativeClassI17AnimationCurveTplIfEE17ScriptingToNativeER18ScriptingObjectPtrPS1_
Mek:__ZN6il2cpp8metadata24Il2CppGenericInstCompare7CompareERK10KeyWrapperIPK17Il2CppGenericInstES8_
LBj:__ZNK15dense_hashtableINSt3__24pairIK10KeyWrapperIPK19Il2CppGenericMethodEPK26Il2CppGenericMethodIndicesEES6_N6il2cpp8metadata23Il2CppGenericMethodHashEN14dense_hash_mapIS6_SA_SE_NS6_14EqualsComparerINSD_26Il2CppGenericMethodCompareEEENS0_9allocatorISB_EEE9SelectKeyESI_SK_E5beginEv
JId:_Graphic_get_materialForRendering_m2600868951
Pt:__ZNSt3__26vectorIN13AnimationClip15QuaternionCurveE13stl_allocatorIS2_L18MemLabelIdentifier25ELi16EEE8__appendEj
ax:__ZN27AnimationLayerMixerPlayable21UpdateLayerParametersEv
$ec:__ZN9Polygon2D7DefaultEv
F9e:_Collection_1_System_Collections_IList_Contains_m3210868188_gshared
V7b:__ZNK17AnimationCurveTplIfE8EvaluateEfPNS0_5CacheE
S_a:__Z31ManagerContextInitializeClassesv
Xxe:_NumberFormatter_AppendIntegerString_m868842252
akh:__ZL53SortedList_t3004938869_CustomAttributesCacheGeneratorP21CustomAttributesCache
OVc:_UNITY_FT_List_Finalize
b6a:__Z20LightAttenuateApproxRKfS0_
iba:__ZN9Scripting30SetCachedPtrOnScriptingWrapperE18ScriptingObjectPtrP6Object
eUb:__Z18Transfer_BlittableI19StreamedBinaryWriteILb0EELb0EdEvRK29SerializationCommandArgumentsR31RuntimeSerializationCommandInfo
gvd:_ASCIIEncoding_GetBytes_m3649277167
cvg:_GUILayoutUtility_Internal_GetWindowRect_m1287880151
pqi:_AnimationPlayableOutput_get_Null_m577023
bIc:__ZN16b2PrismaticJoint4DumpEv
aXi:_Context_GetProperty_m1664740450
eK:__ZN7mecanim9animation21BlendTreeNodeConstant8TransferI19StreamedBinaryWriteILb0EEEEvRT_
kEa:__ZN18BlockRangeInternal16PopLastNodeIndexEP10BlockRangeji
$sg:_Version__ctor_m2972638031
vRe:_Enumerator_System_Collections_IEnumerator_Reset_m886102771_AdjustorThunk
Mpf:_Kernel_MultiplyByDword_m155008287
XBb:__ZN4MeshD0Ev
zTg:__Z121RuntimeInvoker_Void_t1841601450_Int64_t909078037_RuntimeObject_RuntimeObject_Int64_t909078037_RuntimeObject_RuntimeObjectPFvvEPK10MethodInfoPvPS4_
Cid:__ZL42RequestRecreateEyeTexturesBeforeNextUpdatev
Rra:__ZNK6Camera20IsCurrentlyRenderingEv
My:__ZN21AnimationClipPlayable23ProcessRootMotionNoClipEPK35AnimationPlayableEvaluationConstantPK32AnimationPlayableEvaluationInputP33AnimationPlayableEvaluationOutput
bad:__Z36CanvasRenderer_CUSTOM_SetPopMaterialP12Il2CppObjectS0_i
TAc:__Z18Transfer_BlittableI9JSONWriteLb0EdEvRK29SerializationCommandArgumentsR31RuntimeSerializationCommandInfo
zHc:__ZNK11b2GearJoint16GetReactionForceEf
cJ:__ZN15SerializeTraitsI9OffsetPtrIN7mecanim9animation17BlendTreeConstantEEE8TransferI24GenerateTypeTreeTransferEEvRS4_RT_
oni:_Toggle_OnDidApplyAnimationProperties_m325835214
$gk:_wctomb
wlc:__Z27Camera_CUSTOM_GetAllCamerasP11Il2CppArray
N1d:_Convert_InternalFromBase64String_m3682756716
rCc:__Z18Transfer_BlittableI8JSONReadLb1EhEvRK29SerializationCommandArgumentsR31RuntimeSerializationCommandInfo
Hti:_AnimatorControllerPlayable_CrossFadeInFixedTimeInternal_m3383124488
sPc:__ZN18Overlap2DQueryBase13ReportFixtureEP9b2Fixture
i0i:_Regex_System_Runtime_Serialization_ISerializable_GetObjectData_m4035555909
Zmg:_TimeSpan_Add_m3228293154
Sai:_DefaultComparer_Equals_m4098991076_gshared
Sfb:__ZN13MonoBehaviour8SetClassE17ScriptingClassPtr18ScriptingObjectPtr
KAf:_RC4__cctor_m523650203
IXi:_CrossContextDelegate_Invoke_m2908136830
Cla:__ZN20LocalFileSystemPosix4ReadER13FileEntryDatayyPvPy
E9a:__ZNSt3__211__sift_downIRN23ForwardShaderRenderLoop18RenderObjectSorterILb0EEEP21ForwardRenderPassDataEEvT0_S7_T_NS_15iterator_traitsIS7_E15difference_typeES7_
DLe:_UnmanagedMemoryStream_get_Position_m4093669769
VSg:__Z90RuntimeInvoker_Void_t1841601450_IntPtr_t_RuntimeObject_Int32_t2071877448_Int32_t2071877448PFvvEPK10MethodInfoPvPS4_
XJb:__ZN13MonoBehaviour5DoGUIENS_13GUILayoutTypeEii
x7f:_DerivedType_IsDefined_m555719351
AZi:_Mark_get_IsDefined_m3332701456
Lmb:__ZNK12TLSAllocatorI14StackAllocatorE8ContainsEPKv
rGb:__ZN11TimeManager8TransferI18StreamedBinaryReadILb0EEEEvRT_
m3b:__ZN15SerializeTraitsINSt3__23mapI4PPtrI6ShaderEN4core12basic_stringIcNS5_20StringStorageDefaultIcEEEENS0_4lessIS4_EENS0_9allocatorINS0_4pairIKS4_S9_EEEEEEE8TransferI24GenerateTypeTreeTransferEEvRSH_RT_
P2f:_DESTransform__cctor_m1179482644
jCb:__ZN14BlendShapeData8TransferI14SafeBinaryReadEEvRT_
o7i:_TextGenerator_PopulateWithErrors_m467881283
pde:_Enum_Format_m2294492821
rvb:__ZN7Texture25ReloadFromStorageIfNeededEPvb
Vzc:__Z35Transfer_Blittable_FixedBufferFieldI9JSONWritehEvRK29SerializationCommandArgumentsR31RuntimeSerializationCommandInfo
C3f:_OverflowException__ctor_m2564269836
u2h:_ShimEnumerator_get_Entry_m2332479818_gshared
k8d:_DateTime_CheckDateTimeKind_m329345155_AdjustorThunk
t4c:_Update_Max
GCj:__ZNK15dense_hashtableI10KeyWrapperIPK19Il2CppGenericMethodES4_N6il2cpp8metadata23Il2CppGenericMethodHashEN14dense_hash_setIS4_S7_NS4_14EqualsComparerINS6_26Il2CppGenericMethodCompareEEENSt3__29allocatorIS4_EEE8IdentityESB_SE_E10test_emptyERK30dense_hashtable_const_iteratorIS4_S4_S7_SG_SB_SE_E
XVj:__ZN6il2cpp6icalls8mscorlib6SystemL15ThrowNoWideningEv
c8b:__ZNK23TransformChangeDispatch24GetChangeMaskForInterestENS_12InterestTypeE
xsc:__Z45Transform_CUSTOM_INTERNAL_CALL_TransformPointP12Il2CppObjectRK8Vector3fRS1_
n9e:__ZN23InterfaceActionInvoker2Ii18Color32_t874517518E6InvokeEjP11Il2CppClassP12Il2CppObjectiS0_
omb:__ZL10KeyHandleriPK23EmscriptenKeyboardEventPv
Aua:__ZNSt3__26__treeINS_12__value_typeI39DeprecatedFastPropertyNameSerializationfEENS_19__map_value_compareIS2_S3_NS_4lessIS2_EELb1EEENS_9allocatorIS3_EEE7destroyEPNS_11__tree_nodeIS3_PvEE
dqc:__Z81Register_UnityEngine_Playables_PlayableHandle_INTERNAL_CALL_GetInputCountInternalv
RZc:_tt_cmap4_char_index
awi:_AsyncOperation_get_allowSceneActivation_m2825451182
yng:_TimeSpan_op_Addition_m3421801803
_Ya:__ZNK12HandlerChain8IsHiddenERK13FileEntryData
KVh:__ZL50Graphic_t2426225576_CustomAttributesCacheGeneratorP21CustomAttributesCache
JEd:_ContentSizeFitter_set_verticalFit_m3978553199
sQb:__ZL26Transfer_SimpleNativeClassI17RemapPPtrTransfer10RectOffsetLb0EEvRK29SerializationCommandArgumentsR31RuntimeSerializationCommandInfo
pWc:__Z14ValidateFormatR13dynamic_arrayIN20TextRenderingPrivate16TextFormatChangeELj4EE
c4i:_Vector2_op_Implicit_m1064335535
pBa:__Z31GetLightProbeProxyVolumeManagerv
m7d:_DateTime_System_IConvertible_ToInt32_m2789391054_AdjustorThunk
u_g:__Z73RuntimeInvoker_Single_t2076509932_Vector3_t2243707580_Vector3_t2243707580PFvvEPK10MethodInfoPvPS4_
uqf:_ASN1Convert_FromInt32_m1541043489
vAd:_PointerInputModule_ProcessMove_m3200120346
u2d:_Convert_ToByte_m1008221737
Lzf:_MD2Managed_MD2Transform_m3825201358
qXh:__ZL69Scrollbar_t3248359358_CustomAttributesCacheGenerator_m_OnValueChangedP21CustomAttributesCache
zLc:__ZN10ClipperLib14PointInPolygonERKNS_8IntPointEPNS_5OutPtE
MGd:_Dropdown_AddOptions_m835420907
Dsa:__ZNK9ShaderLab20ShaderBlendStateDesc15ToGfxBlendStateEPK19ShaderPropertySheetS3_R13GfxBlendState
YDd:_CanvasUpdateRegistry_IsRebuildingLayout_m1677873278
PNc:__ZN15dense_hashtableINSt3__24pairIKNS1_IPK10Collider2DS4_EE11Collision2DEES5_NS2_23ColliderPairHashFunctorEN14dense_hash_mapIS5_S7_S9_NS0_8equal_toIS5_EE13stl_allocatorIS8_L18MemLabelIdentifier65ELi16EEE9SelectKeyESC_SF_E9copy_fromERKSI_j
EC:__ZN11UnityEngine9AnimationL22GenericBindingCallbackEPvS1_i
b4c:_Compute_Point_Displacement
Y2b:__ZN9ShaderLab9IntShaderC2Ev
oIj:__ZN6il2cpp6icalls8mscorlib6SystemL9IsPrivateEPK9EventInfo
gdk:__ZN6il2cpp6icalls8mscorlib6System10Reflection4Emit11TypeBuilder20setup_internal_classEP27Il2CppReflectionTypeBuilderS7_
nwg:_RectOffset_set_left_m620681523
zGg:_Physics2D_Raycast_m2560154475
YFi:_ArrayReadOnlyList_1_IndexOf_m1809425308_gshared
C$:__Z58AudioPlayableOutput_CUSTOM_INTERNAL_CALL_InternalSetTargetR15HPlayableOutputP12Il2CppObject
aKj:_il2cpp_gc_disable
XN:__Z69AnimatorControllerPlayable_CUSTOM_INTERNAL_CALL_GetLayerIndexInternalR9HPlayableP12Il2CppString
ezd:_ExecuteEvents_U3Cs_HandlerListPoolU3Em__0_m2903690915
A$d:_Hashtable_Clone_m165405752
eIc:__ZN16b2PrismaticJoint24SolveVelocityConstraintsERK12b2SolverData
JBi:_Component_BroadcastMessage_m444672650
scd:__ZN11UnityEngine15PlatformWrapper19GetPhysicalMemoryMBEv
Bma:__Z15CreateDirectoryRKN4core12basic_stringIcNS_20StringStorageDefaultIcEEEE
WBa:__Z21CalculateGlobalMatrix23TransformAccessReadOnly
Nih:__ZL70InternalsVisibleToAttribute_t1037732567_CustomAttributesCacheGeneratorP21CustomAttributesCache
wGb:__ZNK13BuildSettings22GetTypeVirtualInternalEv
hGe:_MonoIO_GetCurrentDirectory_m1509324201
jjg:_UTF32Encoding_GetHashCode_m4205784236
j3d:_DateTime_ToUniversalTime_m1815024752
s6b:__Z13RegisterClassI14RenderSettingsEvv
W6i:_TextGenerator_Finalize_m4242493229
Mbk:_GC_set_on_event
udh:__Z80RuntimeInvoker_Boolean_t3825574718_Navigation_t1571958496_Navigation_t1571958496PFvvEPK10MethodInfoPvPS4_
S5e:_Collection_1_ConvertItem_m3563206219_gshared
vng:_TimeSpan_Subtract_m3597791685_AdjustorThunk
YA:__ZN7mecanim12statemachine24CreateStateMachineOutputEPKNS0_20StateMachineConstantEjRNS_6memory9AllocatorE
TBg:_Logger__ctor_m3834134587
mJj:_il2cpp_assembly_get_image
dJa:__ZNK9GfxDevice27GetActiveRenderSurfaceWidthEv
Kcd:__ZN11UnityEngine15PlatformWrapper28GetCleanGraphicsFixedVersionEv
w:tempBigIntP
eMj:__ZN6il2cpp2vm4Type7GetTypeEPK10Il2CppType
rKg:_Rect_Contains_m1334685291_AdjustorThunk
O8b:__ZN16SpriteRenderData28PrepareRenderingDataIfNeededEv
jSd:_AssemblyLoadEventHandler_Invoke_m108373765
See:_CCGregorianCalendar_dmy_from_fixed_m2992247462
uAd:_PointerInputModule_ShouldStartDrag_m4163638715
Ssj:__ZL24UnresolvedVirtualCall_76P12Il2CppObjectPK10MethodInfo
Vxa:__ZN6prcoreL17RemapGenericFloatI18TexFormatRGBAFloat17TexFormatRGBAHalfEEvPKNS_9InnerInfoE
L0a:__Z16FindCameraStacksRKNSt3__24listI4PPtrI6CameraENS_9allocatorIS3_EEEERNS_6vectorI11CameraStackNS4_ISA_EEEE
rAj:_WebRequestUtils__cctor_m893658947
ixb:__ZN10GISettings8TransferI14SafeBinaryReadEEvRT_
zn:FUNCTION_TABLE_vifff
bjf:_ReadOnlyCollection_1_System_Collections_Generic_ICollectionU3CTU3E_Remove_m2957273994_gshared
$hb:__ZN19CustomRenderTexture12ClearGPUDataEv
mxd:_BaseInputModule_ShouldActivateModule_m2899747874
Dch:__Z86RuntimeInvoker_Int32_t2071877448_DateTimeOffset_t1362988906_DateTimeOffset_t1362988906PFvvEPK10MethodInfoPvPS4_
_pa:__ZN13RenderTexture13ApplySettingsEv
d3i:_Uri__ctor_m3550796566
ff:_JS_Sound_SetListenerPosition
rn:FUNCTION_TABLE_fiffi
hP:__Z86Register_UnityEngine_Animations_AnimatorControllerPlayable_INTERNAL_CALL_SetBoolStringv
Oag:_ModuleBuilderTokenGenerator_GetToken_m3427457873
pki:_Selectable_get_isPointerInside_m3162215687
zle:_Array_FindIndex_TisRuntimeObject_m4149904176_gshared
mUe:_List_1_System_Collections_IList_Contains_m149594880_gshared
vKg:_Rect_Overlaps_m4145874649
Asg:_UnauthorizedAccessException__ctor_m3480402128
Jpf:_BigInteger_op_Modulus_m3788401748
Sha:__ZZN15DirectorManager15InitializeClassEvEN45FixedUpdateDirectorFixedSampleTimeRegistrator7ForwardEv
iYi:_ArgInfo_GetInOutArgs_m3184132151
$za:__ZNK8Material16MarkDependenciesER27GarbageCollectorThreadState
WAc:__ZL17Transfer_GUIStyleI9JSONWriteLb0EEvRK29SerializationCommandArgumentsR31RuntimeSerializationCommandInfo
q4a:__Z28GetHaloVertexPositionsStereoP8Vector3fRKS_S2_f
Kya:__ZN6prcoreL27StretchGenericFloatBilinearI15TexFormatRGHalfEEvPKNS_9InnerInfoE
fRe:_Enumerator_MoveNext_m598197344_AdjustorThunk
$Ci:_DisplaysUpdatedDelegate_Invoke_m3646339243
Sr:__ZN13AnimationClip23VirtualRedirectTransferER18StreamedBinaryReadILb0EE
zud:_String_JoinUnchecked_m1880555587
Usa:__ZNK9ShaderLab7Program21GetMatchingSubProgramEPK6ShaderPKNS_4PassERK16ShaderKeywordSetjPS7_R19ShaderSnippetResult
zpe:_Array_InternalArray__Insert_TisKeyValuePair_2_t1174980068_m2464431954_gshared
Rqc:__Z49Register_UnityEngine_Resources_GetBuiltinResourcev
b_c:_tt_cmap10_char_index
IGd:_Dropdown_Awake_m335654827
w9h:_Dictionary_2_U3CCopyToU3Em__0_m1479035402_gshared
rZd:_BitArray_set_Item_m3801461194
Dyj:__ZN15dense_hashtableINSt3__24pairIK10KeyWrapperIPK22Il2CppGenericParameterEP11Il2CppClassEES6_N6il2cpp5utils11PointerHashIS4_EEN14dense_hash_mapIS6_S9_SE_NS6_14EqualsComparerINS0_8equal_toIS5_EEEENS0_9allocatorISA_EEE9SelectKeyESJ_SL_E3endEv
gud:_String_Remove_m3580114465
C1b:__ZN9ShaderLab22SerializedBindChannels8TransferI19StreamedBinaryWriteILb0EEEEvRT_
BWg:__Z82RuntimeInvoker_Int32_t2071877448_RuntimeObject_Int32_t2071877448_Int16_t4041245914PFvvEPK10MethodInfoPvPS4_
svc:__ZN5IMGUI20MoveWindowFromLayoutER8GUIStateiRK5RectTIfE
bsg:_UIntPtr__ctor_m2737768530
UVc:_UNITY_FT_Stream_ReadUShort
aNd:_InputField_OnEnable_m3797157569
Umc:__Z51Register_UnityEngine_GUILayer_INTERNAL_CALL_HitTestv
Dtc:__Z50Register_UnityEngine_Object_FindSceneObjectsOfTypev
aua:__ZNSt3__26__treeINS_12__value_typeIN4core12basic_stringIcNS2_20StringStorageDefaultIcEEEES6_EENS_19__map_value_compareIS6_S7_NS_4lessIS6_EELb1EEE13stl_allocatorIS7_L18MemLabelIdentifier1ELi16EEE7destroyEPNS_11__tree_nodeIS7_PvEE
bxj:_Nullable_1__ctor_m796575255_gshared
B7j:__ZN6il2cpp2vm8Profiler7GCEventE13Il2CppGCEvent
w7d:_DateTimeUtils_ToString_m3878360633
WVj:__ZN6il2cpp6icalls8mscorlib6SystemL16ThrowInvalidCastEPK11Il2CppClassS5_
VNa:__Z13IsDepthFormat14GraphicsFormat
tHb:__ZN12AspectRatios8TransferI24GenerateTypeTreeTransferEEvRT_
ISc:__Z12FormatBufferPciPKcz
ifj:_GhostMove_set_direction_m752010372
MBd:_TouchInputModule_Process_m1373751353
Wf:_emscripten_glUniform1fv
fag:_MethodBuilder_Invoke_m1874904900
Dyd:_ExecuteEvents_Execute_m898902863
QS:__ZN4FMOD7Channel7setModeEj
i7f:_DerivedType_InvokeMember_m4149586013
Fsi:_AnimatorControllerPlayable_GetNextAnimatorStateInfo_m1690618991
rKf:_TlsStream_SetLength_m1460039587
zvc:__ZN11IMGUIModule12AddGUIScriptER8ListNodeI13MonoBehaviourE
ub:invoke_difi
hga:__ZL50StaticRegisterSceneLoadedCallback_LightmapSettingsPv
BSg:__Z119RuntimeInvoker_Void_t1841601450_RuntimeObject_RuntimeObject_RuntimeObject_RuntimeObject_Int32_t2071877448_RuntimeObjectPFvvEPK10MethodInfoPvPS4_
Pm:FUNCTION_TABLE_iiffi
LJd:_GridLayoutGroup_get_cellSize_m1061731753
CNa:__ZN21GLESGpuProgramApplier11ApplyVectorERKN20GpuProgramParameters14ValueParameterEPK8Vector4ft
Rbb:__Z17PrepareSceneNodesP11CullResults
$aj:_Vector4_ToString_m2340321043_AdjustorThunk
e2i:_Parser_IsIgnoreCase_m4155598997
q0c:_cff_size_done
O1a:__ZN22RenderingCommandBuffer13GetAndCheckRTE24BuiltinRenderTextureTypeRKN9ShaderLab16FastPropertyNameEPKcPP13RenderTexture
sib:__ZN6Camera34UpdatePreviousViewProjectionMatrixEv
Xsa:__ZN9ShaderLab11ShaderState25RemoveUnsupportedProgramsEPK6Shader
p2b:__ZL23AddGpuProgramParametersR20GpuProgramParametersRKNSt3__26vectorIN9ShaderLab20SerializedSubProgram15MatrixParameterENS1_9allocatorIS5_EEEERKNS2_INS4_15VectorParameterENS6_ISB_EEEEiP16PropertyNamesSet
vtc:__Z44Register_UnityEngine_Object_DestroyImmediatev
cmc:__Z47Register_UnityEngine_Component_BroadcastMessagev
doh:__ZL62_ConstructorBuilder_t1236878896_CustomAttributesCacheGeneratorP21CustomAttributesCache
Aic:__Z26scripting_class_has_parent17ScriptingClassPtrS_
DDe:_Int64_System_IConvertible_ToInt16_m2022633688_AdjustorThunk
zPe:_OrdinalComparer__ctor_m2952942058
Yfk:__ZN6il2cpp8metadata25Il2CppGenericClassCompare7CompareEPK18Il2CppGenericClassS4_
eG:__ZNK8Animator20IsInMatchTargetStateEv
Em:FUNCTION_TABLE_viiifiii
ewc:__Z36Register_UnityEngine_GUI_set_changedv
jhg:_Encoding_get_Unicode_m1382741113
uWi:_LifetimeServices_set_SponsorshipTimeout_m1403222216
KWd:_Char_ToString_m1401375624_AdjustorThunk
ine:_Array_InternalArray__ICollection_Add_TisTableRange_t2011406615_m147373358_gshared
A3d:_Convert_ToDateTime_m1251728572
Gpi:_AnimationMixerPlayable_op_Explicit_m2834005805
kne:_Array_InternalArray__ICollection_Add_TisBoolean_t3825574718_m1009318882_gshared
Yjf:_ReadOnlyCollection_1_System_Collections_IList_set_Item_m1149349508_gshared
oA:__ZN27AnimationLayerMixerPlayable18SetInputConnectionEP8Playablei
Ixc:__Z42Register_UnityEngine_GUIStyle_get_wordWrapv
$z:__ZN7mecanim28TransformValueArrayBlendNodeEiiiRKNS_10ValueArrayERKNS_14ValueArrayMaskERS0_RS3_RNS_16ValueArrayWeightEf
Z_f:_ObjectReader_ReadObjectContent_m3949770110
dvk:_emscripten_glUseProgram__wrapper
FBi:_Component_SendMessage_m4199581575
oAj:__ZN6il2cpp2vm5Class40GetInterfaceInvokeDataFromVTableSlowPathEPK12Il2CppObjectPK11Il2CppClassj
Hsb:__ZN20TierGraphicsSettings8TransferI18StreamedBinaryReadILb0EEEEvRT_
fmi:_Text_get_font_m3115501113
eVj:__GLOBAL__sub_I_Thread_cpp
kua:__ZN14SafeBinaryRead8TransferINSt3__24pairIN9ShaderLab16FastPropertyNameE10ColorRGBAfEEEEvRT_PKc17TransferMetaFlags
Dxj:__ZL9rshift128PyS_
T_f:_ObjectReader_RecordFixup_m1893348030
Xue:_LayoutGroup_SetProperty_TisRuntimeObject_m1703476175_gshared
c8f:_EnumBuilder_GetElementType_m1228393631
USj:__ZN14dense_hash_mapI10KeyWrapperINSt3__24pairIPK12PropertyInfoP11Il2CppClassEEEj17ReflectionMapHashIS8_ENS9_14EqualsComparerINS1_8equal_toIS8_EEEENS1_9allocatorINS2_IKS9_jEEEEE13set_empty_keyERSH_
fk:_glRenderbufferStorage
v_j:__ZNK15dense_hashtableINSt3__24pairIK10KeyWrapperINS1_IPKcS4_EEEiEES6_24NamespaceAndNamePairHashN14dense_hash_mapIS6_iS9_NS6_14EqualsComparerI26NamespaceAndNamePairEqualsEENS0_9allocatorIS8_EEE9SelectKeyESD_SF_E13find_positionERS7_
voc:__Z45Register_UnityEngine_Input_get_touchSupportedv
Ocd:__ZN11UnityEngine15PlatformWrapper28GetTextureFormatSupportFlagsEv
TXc:_UNITY_FT_Create_Class_pshinter_module_class
Dtd:_String_CompareOrdinalCaseInsensitiveUnchecked_m2002640463
cUd:_Boolean_GetHashCode_m1894638460
V0c:_cf2_setError
lCb:__ZN14SafeBinaryRead21TransferSTLStyleArrayI13dynamic_arrayI12BoneWeights4Lj16EEEEvRT_17TransferMetaFlags
zjg:_UTF7Encoding_InternalGetChars_m4157428055
PBa:__Z33InterpolateLightProbeCoefficientsRK17LightProbeContextRK29LightProbeSamplingCoordinatesR20SphericalHarmonicsL2
o$a:__ZZ23InitPlayerLoopCallbacksvEN35PreUpdateSendMouseEventsRegistrator7ForwardEv
Vrf:_SmallXmlParser_HandleBufferedContent_m3397096753
fh:_glDisable
iOd:_InputField_OnDeselect_m3963675647
pbd:__Z44Register_UnityEngine_Canvas_get_pixelPerfectv
R6j:__ZN6il2cpp5utils11StringUtils15StringDuplicateEPKDsj
$Sf:_BaseMachine_Scan_m122450399
TA:__ZN17AnimationPlayable17ProcessRootMotionEP35AnimationPlayableEvaluationConstantP32AnimationPlayableEvaluationInputP33AnimationPlayableEvaluationOutput
vXd:_ArrayList_CopyTo_m2353632788
aga:__ZNSt3__26vectorINS_4pairIyP17VertexDeclarationEENS_9allocatorIS4_EEE6assignIPS4_EENS_9enable_ifIXaasr21__is_forward_iteratorIT_EE5valuesr16is_constructibleIS4_NS_15iterator_traitsISB_E9referenceEEE5valueEvE4typeESB_SB_
Tti:_AnimatorControllerPlayable_CrossFade_m3391147919_AdjustorThunk
B0a:__ZNK8Material12GetPassCountEv
$0d:_Enumerator__cctor_m3784927209
Bvk:b110
Cvk:b111
Tvk:b112
Vkk:_bitshift64Ashr
Vvk:b114
Wvk:b115
Xvk:b116
Yvk:b117
vQc:__ZN11Rigidbody2D23VirtualRedirectTransferER14SafeBinaryRead
ePa:__ZN4crnd12crn_unpacker22decode_alpha_endpointsEv
Rcb:__Z23CullDynamicObjectsUmbraPK4AABBPKN5Umbra15OcclusionBufferER9IndexList
RB:__ZThn148_NK26AnimatorControllerPlayable41GetStateMachineBehaviourVectorDescriptionEv
SZc:_tt_cmap4_char_next
f2g:__Z444RuntimeInvoker_Boolean_t3825574718_RuntimeObject_RuntimeObject_RuntimeObject_ColorU26_t3402129837_Int32_t2071877448_Single_t2076509932_Single_t2076509932_Int32_t2071877448_SByte_t454417549_SByte_t454417549_Int32_t2071877448_Int32_t2071877448_Int32_t2071877448_Int32_t2071877448_SByte_t454417549_Int32_t2071877448_Single_t2076509932_Single_t2076509932_Single_t2076509932_Single_t2076509932_SByte_t454417549_SByte_t454417549_UInt32U26_t2197289955PFvvEPK10MethodInfoPvPS4_
Ybj:_GeneralNames_ToString_m800435094
MCd:_BaseMeshEffect_OnDidApplyAnimationProperties_m2484799839
nvd:_ASCIIEncoding_GetString_m3931709239
$pg:_UInt16_Parse_m3560204090
GEc:__ZN8JSONRead21TransferSTLStyleArrayI13dynamic_arrayIsLj2EEEEvRT_18MemLabelIdentifier17TransferMetaFlags
CS:__ZN4FMOD7Channel11setPositionEjj
Yh:_glBindSampler
llf:_ReadOnlyCollection_1_System_Collections_Generic_ICollectionU3CTU3E_Clear_m964488020_gshared
ai:_glGetVertexAttribiv
mne:_Array_InternalArray__ICollection_Add_TisChar_t3454481338_m422084244_gshared
U6c:__ZN2UI11CanvasGroup23VirtualRedirectTransferER18StreamedBinaryReadILb0EE
ODc:__ZN8JSONRead8TransferIbEEvRT_PKc17TransferMetaFlagsb
CBg:_DefaultValueAttribute_Equals_m3216982933
gPf:_X509KeyUsageExtension_Decode_m3292847033
x4g:__Z52RuntimeInvoker_RaycastResult_t21186376_RuntimeObjectPFvvEPK10MethodInfoPvPS4_
Rcg:_Module_filter_by_type_name_ignore_case_m3574895736
Uwb:__ZN26CustomRenderTextureManager19PreAllocateMaterialEP19CustomRenderTexture
z_f:_ObjectReader_ReadObject_m397855326
L8j:_GC_promote_black_lists
MKd:_Image_get_fillAmount_m3354146540
zEc:__Z29Transfer_Blittable_ArrayFieldI8JSONRead8Vector4fEvRT_R9ArrayInfoRK23StaticTransferFieldInfo
ao:FUNCTION_TABLE_vf
Do:FUNCTION_TABLE_vd
Iog:_Type_GetMethod_m1930231379
Fo:FUNCTION_TABLE_vi
Fea:__ZN13RuntimeStaticI37UnityShaderCompilerExtPluginConfigureLb0EE16StaticInitializeEPv
jnf:_SimpleCollator_GetContraction_m1391584430
fUd:_CultureInfo_get_InvariantCulture_m398972276
HTd:_Boolean_System_IConvertible_ToInt64_m4142756949_AdjustorThunk
YL:__ZNK8Animator17HasBoundPlayablesEv
dNc:__ZN17Physics2DSettings8TransferI24GenerateTypeTreeTransferEEvRT_
zzf:_HMAC_initializePad_m3828610671
hmd:_RSAParameters_t1462703416_marshal_pinvoke_cleanup
GIj:__ZN6il2cpp2vm7Runtime9SetConfigEPKc
_vi:_AsyncOperation_get_priority_m966065939
ua:invoke_iiifiii
aXj:__ZN6il2cpp2vm9Exception11FromNameMsgEPK11Il2CppImagePKcS6_S6_
tog:_Type_internal_from_name_m1506974323
fn:FUNCTION_TABLE_fiiifii
M7:__Z14GetTimeManagerv
w5b:__ZneRK20SpriteTilingPropertyS1_
hpb:__Z12GUIDToStringRK9UnityGUIDPc
R9i:_Vector2_Distance_m280750759
rxi:_AudioMixerPlayable_GetAutoNormalizeVolumes_m2199898677_AdjustorThunk
WV:__ZN11AudioSource22UnmuteActiveVideoSinksEv
O6j:__ZN4utf88internal20is_overlong_sequenceIiEEbjT_
exi:_AudioMixerPlayable__ctor_m2704850458
Ui:_glReadBuffer
LYd:_SynchronizedArrayListWrapper_get_Count_m4104930530
G8a:__Z30SetupBakedOcclusionForGeometrybRK26SharedLightmapSettingsDataRK15LightmapIndicesR17ShaderPassContext
ppd:_SecurityPermission_IsSubsetOf_m1087302418
uvi:_Application_OpenURL_m3882634228
imc:__Z41Register_UnityEngine_Cursor_get_lockStatev
d8a:__Z14SetupLightmapsRK8Vector4fS1_R17ShaderPassContext
sRj:__ZN14dense_hash_mapI10KeyWrapperIPK14Il2CppAssemblyEPK22Il2CppMonoAssemblyNameN6il2cpp5utils11PointerHashIS2_EENS4_14EqualsComparerINSt3__28equal_toIS3_EEEENSD_9allocatorINSD_4pairIKS4_S7_EEEEE13set_empty_keyERSJ_
NUf:_Interval_get_Empty_m3170923997
v0a:__ZL20InitializeGUIShadersv
U7b:__Z20DestroyObjectDelayedP6Objectf
I5:__ZN20DynamicHeapAllocatorI17LowLevelAllocatorED0Ev
xNd:_InputField_OnDrag_m726194348
gLc:__ZN10ClipperLib11ClipperBase5ResetEv
rof:_PreviousInfo__ctor_m1442166472_AdjustorThunk
B5a:__ZN9DepthPassD2Ev
CR:__ZN11AudioFilter6GetDSPEv
mVc:__ZN20TextRenderingPrivate15DynamicFontData36GetFaceForCharacterIfAvailableInFontERKNS_7FontRefERKNSt3__26vectorI4PPtrIN13TextRendering4FontEE13stl_allocatorIS9_L18MemLabelIdentifier34ELi16EEEEj
P9:__ZN19RuntimeSceneManager14CanUnloadSceneEP10UnityScene
HVg:__Z50RuntimeInvoker_Single_t2076509932_Int64_t909078037PFvvEPK10MethodInfoPvPS4_
E5a:__Z22ExtractRenderNodeQueueRK11CullResults15ExtractionFlagsR15RenderNodeQueue
qre:_Array_InternalArray__set_Item_TisContentType_t1028629049_m703420360_gshared
v3e:_List_1_set_Item_m1431784996_gshared
QQ:__ZN24AudioScriptBufferManagerC2Ev
OUc:__ZNSt3__26vectorIh13stl_allocatorIhL18MemLabelIdentifier1ELi16EEE8__appendEj
qPg:__Z95RuntimeInvoker_Void_t1841601450_RuntimeObject_Int32_t2071877448_Int32_t2071877448_RuntimeObjectPFvvEPK10MethodInfoPvPS4_
RUc:__ZN20TextRenderingPrivate8FontImpl16ResetPackingDataEv
Lmg:_TimeSpan_get_Hours_m3804628138_AdjustorThunk
_le:_Array_InternalArray__IndexOf_TisLink_t865133271_m3612939760_gshared
Wzc:__Z18Transfer_BlittableI9JSONWriteLb0EfEvRK29SerializationCommandArgumentsR31RuntimeSerializationCommandInfo
mqa:__Z21GetAsyncUploadManagerv
Kj:_emscripten_glDetachShader
qmf:_SafeHandleZeroOrMinusOneIsInvalid_get_IsInvalid_m2033528032
wWd:_Char_IsUpper_m4083577610
rOa:__ZN17GenericDynamicVBO20ReleaseChunkInternalERK21DynamicVBOChunkHandlejj
B5c:__ZL27CleanupModule_TextRenderingv
pmf:_SafeHandleZeroOrMinusOneIsInvalid__ctor_m3340306667
Bhk:_fmodl
TXf:_SerializationInfo_AddValue_m902275108
Phk:_fmodf
lVb:__Z18Transfer_BlittableI18StreamedBinaryReadILb1EELb1E4AABBEvRK29SerializationCommandArgumentsR31RuntimeSerializationCommandInfo
sra:__ZN12CachedWriter11Align4WriteEv
H6a:__Z20DoDeferredRenderLoopR17RenderLoopContextR13dynamic_arrayI16RenderObjectDataLj4EES4_RK11CullResultsRP13RenderTextureSA_Pb
CFa:__ZN19RuntimeSceneManager11CreateSceneEv
g0c:_ps_get_standard_strings
K8e:_Collection_1_IsValidItem_m1908012838_gshared
F8a:__Z27SetupBakedOcclusionForLightbRK15SharedLightDataR17ShaderPassContext
Gu:__ZN24GenerateTypeTreeTransfer8TransferIN13AnimationClip9PPtrCurveEEEvRT_PKc17TransferMetaFlags
tsi:_AnimatorControllerPlayable_GetLayerWeight_m1435294989
tji:_ScrollRect_OnScroll_m3346515304
bSe:_Enumerator_System_Collections_IEnumerator_get_Current_m3461301268_gshared
o8h:_Dictionary_2_CopyToCheck_m1638253305_gshared
m1a:__Z18RenderImageFiltersR10RenderLoopb
q6:__Z19free_alloc_internalPv18MemLabelIdentifier
Z9c:__Z43CanvasRenderer_Get_Custom_PropMaterialCountP12Il2CppObject
vgb:__ZN10GameObjectD2Ev
qgf:_ReadOnlyCollection_1_System_Collections_Generic_IListU3CTU3E_set_Item_m25653560_gshared
zJ:__ZN18StreamedBinaryReadILb0EE21TransferSTLStyleArrayI22OffsetPtrArrayTransferI9OffsetPtrIN7mecanim12statemachine18TransitionConstantEEEEEvRT_17TransferMetaFlags
VXh:__ZL68Selectable_t1490392188_CustomAttributesCacheGenerator_m_InteractableP21CustomAttributesCache
fBi:_Color32_op_Implicit_m889975790
mic:__ZN19RuntimeSceneManager32LoadSceneAsyncByNameOrBuildIndexERKN4core12basic_stringIcNS0_20StringStorageDefaultIcEEEEiNS_11LoadingModeEb
GEi:_UnityEventBase_RebuildPersistentCallsIfNeeded_m1583202007
zBf:_CertificateSelectionCallback_Invoke_m2902629105
Efa:__ZN10InputEventD2Ev
Zye:_DateTimeFormatInfo_GetAllDateTimePatternsInternal_m1587126173
I9i:_Vector2_ToString_m775491729_AdjustorThunk
$fc:__ZN24CompressedAnimationCurve18DecompressTimeKeysI11QuaternionfEEvR17AnimationCurveTplIT_E
nye:_NumberFormatter_Append_m3268121457
ghd:__ZN22UnityWebRequestManagerD2Ev
Sld:_RSA_ToXmlString_m4145056574
Fce:_Double_System_IConvertible_ToUInt64_m1318285078_AdjustorThunk
ghk:_isalpha
Rwi:_AudioClipPlayable_SetStartDelayInternal_m1268437955
vKj:_il2cpp_object_unbox
$hi:_Selectable_FindSelectable_m2739582497
JHc:__ZNK12b2MotorJoint17GetReactionTorqueEf
y7d:_DateTimeUtils_ZeroPad_m86470512
Tpi:_AnimationOffsetPlayable_Equals_m3411254421
CGj:__ZN6il2cpp2vmL17IsSocketAsyncCallEP14Il2CppDelegate
NRc:__Z13RegisterClassI11Rigidbody2DEvv
_Bg:_Logger_IsLogTypeAllowed_m1750132386
k6j:__ZN6il2cpp2vm6String6NewLenEPKcj
Uqb:__ZN6Camera23VirtualRedirectTransferER19StreamedBinaryWriteILb0EE
Zk:_time
dhd:__ZN29UnityWebRequestAsyncOperationD0Ev
lJd:_Graphic_UnregisterDirtyLayoutCallback_m1724443555
iEa:__ZN14BatchAllocator6CommitE18MemLabelIdentifier
C1c:_cf2_stack_free
Syd:_ExecuteEvents_get_pointerClickHandler_m713983310
kri:_AnimatorControllerPlayable_GetBool_m217461036_AdjustorThunk
Ty:__ZN7mecanim9animation19EvaluateFloatValuesEPKNS0_18ClipMuscleConstantEPKNS_18ValueArrayConstantEPKNS0_12ClipBindingsEPKNS0_10ClipOutputEPNS0_18AnimationNodeStateEfbb
naa:__ZN15dense_hashtableINSt3__24pairIKiP6ObjectEEi21InstanceIDHashFunctorN14dense_hash_mapIiS4_S6_NS0_8equal_toIiEE13stl_allocatorIS5_L18MemLabelIdentifier65ELi16EEE9SelectKeyES9_SC_E12resize_deltaEjj
JG:__ZN8Animator31ClearInternalControllerPlayableEv
Mri:_AnimatorControllerPlayable_SetTrigger_m4033120343_AdjustorThunk
ztg:_WeakReference_Finalize_m3318354542
Qgb:__ZN10GameObject8TransferI24GenerateTypeTreeTransferEEvRT_
GSe:_Enumerator_VerifyState_m3913376581_gshared
kNj:__ZN15dense_hashtableINSt3__24pairIK10KeyWrapperINS1_IPK9FieldInfoP11Il2CppClassEEEjEES9_17ReflectionMapHashIS8_EN14dense_hash_mapIS9_jSD_NS9_14EqualsComparerINS0_8equal_toIS8_EEEENS0_9allocatorISB_EEE9SelectKeyESI_SK_E4findERSA_
_uk:_glDeleteSync__wrapper
Z3d:_Decimal_op_Implicit_m623319612
Z4h:_ValueCollection_System_Collections_Generic_ICollectionU3CTValueU3E_Remove_m98888100_gshared
eyd:_EventTrigger_OnPointerExit_m2119176877
Jlg:_ThreadAbortException__ctor_m1623816114
d9b:__ZN13ProduceHelperI30RuntimeInitializeOnLoadManagerLb0EE7ProduceE18MemLabelIdentifier18ObjectCreationMode
Ueb:__ZN13RenderTexture19SetAutoGenerateMipsEb
owa:__Z20GetTextureFormatInfo13TextureFormat
Gxc:__Z43Register_UnityEngine_GUIStyle_get_alignmentv
PRg:__Z119RuntimeInvoker_RuntimeObject_RuntimeObject_RuntimeObject_Int32_t2071877448_Int32_t2071877448_MonoIOErrorU26_t1029615899PFvvEPK10MethodInfoPvPS4_
CB:__ZN26AnimatorControllerPlayable8GetFloatEiRf
Lie:_PlayableHandle_IsPlayableOfType_TisRuntimeObject_m4111068959_gshared
Xsi:_AnimatorControllerPlayable_GetCurrentAnimatorClipInfoCount_m3938711391
gzj:__ZN6il2cpp2vm5Class4InitEP11Il2CppClass
Szd:_PointerEventData_set_worldPosition_m192283671
Smk:dynCall_iiifiiii
Aaj:_Vector3_get_right_m1884123822
Cck:__ZN6il2cpp5utils10MemoryPool6MallocEj
jQ:__ZN11SoundHandle8InstanceD2Ev
Ria:__ZN31CanvasBatchIntermediateRenderer13StaticDestroyEPv
$ej:_X509Store_BuildCrlsCollection_m52567568
UEg:_UnityWebRequest_t254341728_marshal_pinvoke_back
Xoc:__Z29Mesh_CUSTOM_RecalculateBoundsP12Il2CppObject
ode:_Enum_ToString_m662345249
N_g:__Z150RuntimeInvoker_Single_t2076509932_Single_t2076509932_Single_t2076509932_SingleU26_t4173844468_Single_t2076509932_Single_t2076509932_Single_t2076509932PFvvEPK10MethodInfoPvPS4_
fmc:__Z41Register_UnityEngine_CullingGroup_Disposev
Lvb:__ZN7Cubemap23VirtualRedirectTransferER19StreamedBinaryWriteILb0EE
bYa:__ZN25MultiBlocksMemoryFileData5WriteEyyPKv
kIc:__ZNK13b2PulleyJoint16GetReactionForceEf
R_e:_List_1_System_Collections_IList_Add_m4271264217_gshared
oSj:__ZN14dense_hash_mapI10KeyWrapperIPK10Il2CppTypeEjN6il2cpp8metadata14Il2CppTypeHashENS4_14EqualsComparerINS6_26Il2CppTypeEqualityComparerEEENSt3__29allocatorINSB_4pairIKS4_jEEEEE13set_empty_keyERSE_
Ulc:__Z35Component_CUSTOM_SendMessageUpwardsP12Il2CppObjectP12Il2CppStringS0_i
lQa:__ZL17ProgramUniform2fvPK7ApiGLESjiihPKv
wsk:b83
JUc:__ZN20TextRenderingPrivate8FontImpl21HasCharacterInTextureEjijfPj
Eik:_htonl
PLa:__Z20GetBufferManagerGLESv
EYb:__ZN18StreamedBinaryReadILb0EE21TransferSTLStyleArrayI31ArrayOfManagedObjectsTransfererEEvRT_17TransferMetaFlags
Kjg:_UTF7Decoder_GetChars_m2790530452
OCc:__Z18Transfer_BlittableI8JSONReadLb0EtEvRK29SerializationCommandArgumentsR31RuntimeSerializationCommandInfo
_Wc:_pshinter_module_class_pic_free
dXh:__ZL68Navigation_t1571958496_CustomAttributesCacheGenerator_m_SelectOnLeftP21CustomAttributesCache
jC:__ZN34AnimationStateMachineMixerPlayable13EndTransitionEv
fS:__ZN12AudioManager21FixMasterGroupRoutingEv
Xnd:_SymmetricAlgorithm_set_Key_m2973350820
HQc:__ZN6b2Body9SetActiveEb
wVh:__ZL58FontData_t2614388407_CustomAttributesCacheGenerator_m_FontP21CustomAttributesCache
jOf:_WebHeaderCollection_IsHeaderValue_m1723393133
VTc:__ZN20TextRenderingPrivate8FontImpl13CharacterInfo8TransferI24GenerateTypeTreeTransferEEvRT_
u3j:__ZN6il2cpp2os10ThreadImpl33UnregisterCurrentThreadForCleanupEv
rA:__ZN27AnimationLayerMixerPlayable22PrepareAnimationEventsEfR13dynamic_arrayI22AnimationClipEventInfoLj4EE
JMb:__Z18Transfer_BlittableI14SafeBinaryReadLb1E4AABBEvRK29SerializationCommandArgumentsR31RuntimeSerializationCommandInfo
D2j:__ZN6il2cpp6icalls8mscorlib6System4Enum12get_hashcodeEP12Il2CppObject
mBg:_Input_INTERNAL_get_mouseScrollDelta_m1140491498
agk:__ZN6il2cpp8metadata26Il2CppGenericMethodCompare6EqualsEPK19Il2CppGenericMethodS4_
dha:__Z22CreateMutexLockedQueue18MemLabelIdentifier
WQ:__ZN9AudioClip7WWWOpenEPKciPjPPvS4_
CMb:__Z18Transfer_BlittableI14SafeBinaryReadLb0E8Vector2fEvRK29SerializationCommandArgumentsR31RuntimeSerializationCommandInfo
mre:_Array_InternalArray__set_Item_TisPlayableBinding_t2498078091_m2071396616_gshared
$c:_emscripten_glVertexAttrib2f
x$b:__ZN15SerializeTraitsIN9ShaderLab20SerializedSubProgram16TextureParameterEE8TransferI14SafeBinaryReadEEvRS2_RT_
IUd:_Byte_System_IConvertible_ToInt16_m1575115635_AdjustorThunk
XWi:_Context_get_HasGlobalDynamicSinks_m3205328884
Inf:_SimpleCollator_CompareQuick_m619038530
OJf:_SslStreamBase_EndRead_m1072850679
sd:_SDL_GetTicks
s8c:__ZN2UI14CanvasRenderer11SyncCullingENS0_8SyncFlagE
dPj:__ZN15dense_hashtableINSt3__24pairIK10KeyWrapperINS1_IPK11Il2CppImageP11Il2CppClassEEEjEES9_17ReflectionMapHashIS8_EN14dense_hash_mapIS9_jSD_NS9_14EqualsComparerINS0_8equal_toIS8_EEEENS0_9allocatorISB_EEE9SelectKeyESI_SK_E6insertERKSB_
ucb:__Z21CreateShadowCullerJobP30CreateUmbraShadowCullerJobData
iCg:_Material_get_mainTexture_m432794412
dQa:__ZL18ProgramUniform2uivPK7ApiGLESjiihPKv
Htk:_glUniform4iv__wrapper
u9a:__Z33GenerateShadowCasterPartsSortDataRK16ShadowCasterDatajRK15RenderNodeQueueRKNSt3__26vectorI20ShadowCasterPartData13stl_allocatorIS7_L18MemLabelIdentifier2ELi16EEEERK10Matrix4x4fRjP20ShadowCasterSortData
hai:_Dictionary_2_ToTKey_m4209561517_gshared
P0c:_cf2_computeDarkening
U4:__GLOBAL__sub_I_runtime_gfxdevice_lump_cpp
$vi:_AsyncOperation_set_priority_m3581020444
f9j:_GC_expand_hp_inner
tc:invoke_viiiififfi
Nnc:__Z25Screen_Get_Custom_PropDpiv
NJd:_GridLayoutGroup_get_spacing_m1909275195
D6j:__ZN4utf812find_invalidIPKcEET_S3_S3_
as:__ZNK13AnimationClip8IsLegacyEv
FSf:_X509ExtensionCollection_System_Collections_ICollection_CopyTo_m3421329346
z8j:_GC_err_printf
P8f:_FieldBuilder_SetValue_m3109503557
wId:_Graphic_OnBeforeTransformParentChanged_m1866292273
wQf:_X509Certificate2_Verify_m1574874641
w2:__ZN11UnityEngine15CloudWebService20WebRequestRestClient7PrepareEv
vUh:__ZL58PhysicsRaycaster_t249603239_CustomAttributesCacheGeneratorP21CustomAttributesCache
xUc:__ZN20TextRenderingPrivate19NativeTextGenerator23FixLineHorizontalOffsetEiii
T0d:_SortedList_GetEnumerator_m1318483481
_Qd:_Array_CreateInstance_m3327690220
uD:__ZN7mecanim9animation19DestroyAnimationSetEPNS0_12AnimationSetERNS_6memory9AllocatorE
Fok:_emscripten_glDepthRange__wrapper
klb:__ZN16MemoryFileSystem4OpenER13FileEntryData14FilePermission16FileAutoBehavior
Eia:__ZN13RuntimeStaticI13RendererSceneLb0EE13StaticDestroyEPv
TRb:__Z18Transfer_BlittableI24GenerateTypeTreeTransferLb1E12PropertyNameEvRK29SerializationCommandArgumentsR31RuntimeSerializationCommandInfo
EGb:__ZN14SafeBinaryRead21TransferSTLStyleArrayI10vector_mapIPKN5Unity4TypeE7Hash128NSt3__24lessIS5_EENS7_9allocatorINS7_4pairIS5_S6_EEEEEEEvRT_17TransferMetaFlags
VQ:__ZN9AudioClip18GetQueuedAudioDataEPPvj
p5c:__ZN20TextRenderingPrivate21TextMeshGeneratorImpl14GarbageCollectEv
Ufc:__ZNK9Texture2D17CheckHasPixelDataEv
bQc:__ZN15b2ContactSolver13StoreImpulsesEv
k5a:__Z18SetShadowsKeywordsR17ShaderPassContext9LightType10ShadowType16ShadowProjectionbb
TSj:__ZN14dense_hash_mapI10KeyWrapperINSt3__24pairIPK12PropertyInfoP11Il2CppClassEEEj17ReflectionMapHashIS8_ENS9_14EqualsComparerINS1_8equal_toIS8_EEEENS1_9allocatorINS2_IKS9_jEEEEEC2EjRKSB_RKSF_
jbc:__ZN17CollisionMeshDataC2Ev
k4f:_Assembly_GetModule_m2064378601
PZi:_Regex_get_RightToLeft_m529734879
Wii:_ScrollRect_SetDirty_m93243192
$wb:__ZN16LightmapSettings23VirtualRedirectTransferER19StreamedBinaryWriteILb0EE
F$a:__ZZ23InitPlayerLoopCallbacksvEN47PostLateUpdateMemoryFrameMaintenanceRegistrator7ForwardEv
Io:FUNCTION_TABLE_viiififii
S9j:_GC_push_next_marked
SEg:_MessageTypeSubscribers__ctor_m743474932
yEa:__ZN18IDCollectorFunctor18GenerateInstanceIDEi17TransferMetaFlags
JIe:_MonoIO__cctor_m2398680849
uqe:_Array_InternalArray__set_Item_TisTableRange_t2011406615_m2386708730_gshared
aQc:__ZN15b2ContactSolver9WarmStartEv
yye:_NumberFormatter_ToDecHex_m1474793296
zwi:_AudioClipPlayable_SetClipInternal_m3129974269
I4g:__Z74RuntimeInvoker_Int32_t2071877448_RaycastHit_t87180320_RaycastHit_t87180320PFvvEPK10MethodInfoPvPS4_
zmb:__ZN14StackAllocatorD0Ev
CVj:__ZN6il2cpp2vm6Thread8SetStateEP12Il2CppThreadNS0_11ThreadStateE
wPe:_OperatingSystem_Clone_m1943707477
XHd:_FontData_set_richText_m29558601
_lg:_Scheduler_Change_m4063588742
sse:_Array_Resize_TisVector2_t2243707579_m1117258774_gshared
y5i:_HitInfo_SendMessage_m3368777144_AdjustorThunk
Qpc:__Z22PlayableValidityChecksRK9HPlayableb
KHb:__ZN15ResourceManagerD2Ev
zZe:_List_1_Insert_m2532850849_gshared
Mlc:__Z41Register_UnityEngine_Camera_GetAllCamerasv
wDg:_Mesh_get_vertices_m626989480
Bfi:_MaskableGraphic_OnCanvasHierarchyChanged_m2012659245
_Oa:__ZN4crnd12crn_unpacker10unpack_dxnEPPhjjjjjj
yed:__ZN28PerformanceReportingSettings8TransferI14SafeBinaryReadEEvRT_
s4d:_Double_Parse_m2344589511
OUg:__Z78RuntimeInvoker_Boolean_t3825574718_IntPtr_t_Int32_t2071877448_SByte_t454417549PFvvEPK10MethodInfoPvPS4_
SWj:__ZN6il2cpp2vm22EmbeddedResourceRecordC2ERKS1_
Xri:_AnimatorControllerPlayable_INTERNAL_CALL_ResetTriggerID_m1182483253
Gvb:__ZN9Texture2D13AwakeFromLoadE17AwakeFromLoadMode
$mf:_MSCompatUnicodeTableUtil__cctor_m1479836795
c2i:_PositionAssertion__ctor_m3703837499
kPd:_LayoutGroup_get_minWidth_m4111745491
aKe:_StreamWriter_Initialize_m1707678624
X1j:__ZN6il2cpp2vm3RCW14QueryInterfaceILb0EEEP14Il2CppIUnknownP15Il2CppComObjectRK10Il2CppGuid
Pii:_ScrollRect_set_verticalScrollbar_m2903688658
xxa:__ZN6prcoreL17RemapGenericFloatI15TexFormatRFloat18TexFormatARGBFloatEEvPKNS_9InnerInfoE
soh:__ZL50_Thread_t1894135853_CustomAttributesCacheGeneratorP21CustomAttributesCache
DKi:_InternalEnumerator_1_get_Current_m1047712960_gshared
Q4:__GLOBAL__sub_I_runtime_camera_renderlayers_lump_cpp
jed:__ZN11UnityEngine15PlatformWrapper20GetPlayerPrefsUInt64ERKN4core12basic_stringIcNS1_20StringStorageDefaultIcEEEEy
U8a:__ZN20ReflectionProbeCacheC2ER13BatchRendererR15RenderLoopStats
qja:__ZN18AssetBundleManagerC2Ev
qZa:__ZNK12HandlerChain6ExistsERK13FileEntryData
Hzh:__ZL61ExtensionAttribute_t1840441203_CustomAttributesCacheGeneratorP21CustomAttributesCache
Q4d:_Convert_ToInt32_m2734833291
L9a:__Z30FindDirectAttenuationFromProbeP18ForwardLightsBlockbiRK10RenderNodeRK23FindForwardLightsParamsf
KFb:__ZN12InputManager23VirtualRedirectTransferER24GenerateTypeTreeTransfer
q4b:__ZN9Transform23VirtualRedirectTransferER24GenerateTypeTreeTransfer
F2b:__ZNSt3__26vectorIN9ShaderLab20SerializedSubProgram12UAVParameterENS_9allocatorIS3_EEE21__push_back_slow_pathIKS3_EEvRT_
BVi:_CrossAppDomainChannel_RegisterCrossAppDomainChannel_m43456045
oSf:_X509ChainElement_Count_m228862214
Jng:_TimeZone_IsDaylightSavingTime_m1840774423
v3c:_UNITY_tt_size_ready_bytecode
gTc:__ZN13TextRendering4FontD2Ev
JLg:__Z47RuntimeInvoker_Single_t2076509932_RuntimeObjectPFvvEPK10MethodInfoPvPS4_
bWc:_UNITY_FT_Stream_Open
o3g:__Z97RuntimeInvoker_Int32_t2071877448_IntPtr_t_RectU26_t844847526_RuntimeObject_Vector2U26_t3911752445PFvvEPK10MethodInfoPvPS4_
u7c:__GLOBAL__sub_I_runtime_ui_lump_cpp
kYa:__ZN10MemoryFile4ReadEyyPvPy
YHa:__ZN13GfxDeviceGLES26UpdateViewProjectionMatrixEv
P7h:_Dictionary_2_ContainsKeyValuePair_m1750905675_gshared
zP:__ZN4FMOD3DSP12setParameterEif
fna:__ZN13MemoryManager16StaticInitializeEv
lkh:__ZL53StackFrame_t2050294881_CustomAttributesCacheGeneratorP21CustomAttributesCache
Qx:__ZN21AnimationClipPlayable16ProcessHumanPassEPK35AnimationPlayableEvaluationConstantPK32AnimationPlayableEvaluationInputP33AnimationPlayableEvaluationOutput
mkf:_ReadOnlyCollection_1_System_Collections_ICollection_CopyTo_m4126742951_gshared
lT:__ZN4FMOD22FakeModChannelCallbackEPv
Df:_emscripten_glValidateProgram
D1a:__ZN4Mesh10CreateMeshEv
lQj:__ZN6il2cpp2gc19AppendOnlyGCHashMapINSt3__24pairIPK9EventInfoP11Il2CppClassEEP21Il2CppReflectionEvent17ReflectionMapHashIS9_ENS2_8equal_toIS9_EEE3AddERKS9_SB_
pQ:__ZN4FMOD7SystemI11createSoundEPKcjP22FMOD_CREATESOUNDEXINFOPPNS_5SoundE
U5i:_Sprite_get_associatedAlphaSplitTexture_m3617241169
OZf:_ArrayFixupRecord_FixupImpl_m2377725358
Kcj:_PKCS12_get_Certificates_m2320062949
l1c:_cf2_stack_clear
fce:_Double_System_IConvertible_ToBoolean_m4251806534_AdjustorThunk
y2h:_ShimEnumerator_Reset_m2247049027_gshared
fLc:__ZN10ClipperLib11ClipperBase5ClearEv
Veb:__ZN7Texture13SetAnisoLevelEi
HQf:_X509Chain_Process_m2508784250
o2e:_List_1_RemoveAt_m2929488689_gshared
qXc:_raccess_guess_vfat
ebd:__Z44Canvas_CUSTOM_GetETC1SupportedCanvasMaterialv
fsb:__ZN11HaloManager10UpdateHaloEiR9Transform11ColorRGBA32fjP6Object
hha:__ZN33InstancedMeshIntermediateRenderer13StaticDestroyEPv
ZBe:_Int16_Parse_m3012618547
bZj:__ZN14dense_hash_mapI10KeyWrapperIP14Il2CppIUnknownEjN6il2cpp5utils11PointerHashIS1_EENS3_14EqualsComparerINSt3__28equal_toIS2_EEEENS9_9allocatorINS9_4pairIKS3_jEEEEE13set_empty_keyERSF_
jSg:__Z50RuntimeInvoker_Void_t1841601450_OpCode_t2247480392PFvvEPK10MethodInfoPvPS4_
urb:__Z21DestroyShadowMapCacheP14ShadowMapCache
XA:__ZN7mecanim9animation25CreateControllerWorkspaceEPKNS0_18ControllerConstantERNS_6memory9AllocatorE
_Qe:_Enumerator_VerifyState_m739025304_gshared
cGd:_Graphic_RegisterDirtyVerticesCallback_m4169445219
rSj:__ZN15dense_hashtableINSt3__24pairIK10KeyWrapperIPK10Il2CppTypeEjEES6_N6il2cpp8metadata14Il2CppTypeHashEN14dense_hash_mapIS6_jSB_NS6_14EqualsComparerINSA_26Il2CppTypeEqualityComparerEEENS0_9allocatorIS8_EEE9SelectKeyESF_SH_E14squash_deletedEv
aYj:__ZN6il2cpp2vm13LivenessState5ResetEv
C8i:_Transform_get_parent_m147407266
y6g:__Z138RuntimeInvoker_Void_t1841601450_RuntimeObject_Color32_t874517518_Int32_t2071877448_Int32_t2071877448_Single_t2076509932_Single_t2076509932PFvvEPK10MethodInfoPvPS4_
Vyc:__ZN9JSONWrite8TransferI11KeyframeTplIfEEEvRT_PKc17TransferMetaFlags
cmi:_Text_get_cachedTextGenerator_m224335893
dug:_GameObject_GetComponent_m306258075
IZj:__ZN6il2cpp2vm3RCW23GetOrCreateFromIUnknownEP14Il2CppIUnknownP11Il2CppClass
EWa:__ZN24BuiltinShaderParamValuesC2Ev
Mzc:__ZL41CreateJSONTransferFunctionScriptingTraitsv
dHe:_FileStream_get_CanWrite_m775322953
P$a:__Z23GetLateBehaviourManagerv
Oyd:_ExecuteEvents_Execute_m2863348178
Sda:__ZN10MemoryPool10DeallocateEPv
qze:_NumberFormatInfo__ctor_m2752806684
BCd:_CanvasUpdateRegistry_get_instance_m862315367
M_i:_PatternCompiler_EmitFastRepeat_m1175707353
pve:_Array_InternalArray__get_Item_TisKeyValuePair_2_t3716250094_m3120861630_gshared
bXc:_cff_driver_class_pic_free
fqg:_UInt32_TryParse_m3987111861
fFc:__ZNK9rapidjson12GenericValueINS_4UTF8IcEE13JSONAllocatorE6AcceptINS_6WriterI16TempBufferWriterS2_S2_S3_EEEEbRT_
Fmk:dynCall_vif
Gmk:dynCall_vid
eCi:_Native_CSSNodeGetMeasureFunc_m3825031950
iYe:_List_1_System_Collections_IList_get_Item_m3989815218_gshared
Hmk:dynCall_vii
h3d:_DateTime__ctor_m3604679583
tYb:__Z18Transfer_BlittableI18StreamedBinaryReadILb0EELb0EdEvRK29SerializationCommandArgumentsR31RuntimeSerializationCommandInfo
b_i:_Enumerator_System_Collections_IEnumerator_MoveNext_m3313126804
o5a:__ZNK17InstancedPropInfo14IsInstanceableERK19ShaderPropertySheet
Gnb:__ZN5Unity9Component16CheckConsistencyEv
yCd:_LayoutRebuilder_ValidController_m2595049322
WQa:__ZN7ApiGLES11CheckShaderERjb
Soa:__ZN19ShaderPropertySheet37CreateTextureAuxPropertyUninitializedEN9ShaderLab16FastPropertyNameES1_PKc
XKg:_RectTransform_set_anchoredPosition_m2077229449
WTb:__ZL26Transfer_SimpleNativeClassI19StreamedBinaryWriteILb0EE10RectOffsetLb1EEvRK29SerializationCommandArgumentsR31RuntimeSerializationCommandInfo
ove:_Array_InternalArray__get_Item_TisKeyValuePair_2_t1174980068_m964958642_gshared
RNj:__ZN15dense_hashtableINSt3__24pairIK10KeyWrapperIPK10Il2CppTypeEjEES6_N6il2cpp8metadata14Il2CppTypeHashEN14dense_hash_mapIS6_jSB_NS6_14EqualsComparerINSA_26Il2CppTypeEqualityComparerEEENS0_9allocatorIS8_EEE9SelectKeyESF_SH_E3endEv
N9a:__Z28GetNonInterpolatedLightProbeRK17LightProbeContextjR20SphericalHarmonicsL2
xne:_Array_InternalArray__ICollection_Add_TisDateTime_t693205669_m3559987213_gshared
DKa:__ZN13GfxDeviceGLES17SetGpuProgramNameEP10GpuProgramPKc
J2:__ZNK11UnityEngine15CloudWebService25WebRequestDownloadHandler11GetProgressEv
rzf:_ARC4Managed_CheckInput_m3033530539
LFj:__ZN6il2cpp2vm13MetadataCache28GetMethodDefinitionFromIndexEi
jyc:__Z68Register_UnityEngine_GUIStyle_INTERNAL_CALL_Internal_DrawPrefixLabelv
K4j:__ZN6il2cpp2os20FileErrnoToErrorCodeEi
dua:__ZN14SafeBinaryRead19TransferSTLStyleMapINSt3__23mapI39DeprecatedFastPropertyNameSerialization10ColorRGBAfNS1_4lessIS3_EENS1_9allocatorINS1_4pairIKS3_S4_EEEEEEEEvRT_17TransferMetaFlags
ayi:_Behaviour_get_enabled_m4079055610
pdg:_MonoEventInfo_GetEventInfo_m2331957186
baj:_Vector3_Lerp_m2935648359
Hbj:_NetFxCoreExtensions_GetMethodInfo_m2715372889
hh:_atexit
DZd:_BitArrayEnumerator_Reset_m3218489242
VUd:_Byte_System_IConvertible_ToUInt16_m2275325191
UQj:__ZN6il2cpp2vmL31GetObjectForMissingDefaultValueEj
qDj:__ZNK15dense_hashtableINSt3__24pairIK10KeyWrapperIN6il2cpp5utils13dynamic_arrayIPK10Il2CppTypeLj4EEEEPFvvEEESA_NS3_8metadata19Il2CppSignatureHashEN14dense_hash_mapISA_SD_SG_NSA_14EqualsComparerINSF_22Il2CppSignatureCompareEEENS0_9allocatorISE_EEE9SelectKeyESK_SM_E10test_emptyEj
f0b:__ZN9ShaderLab14SerializedPassC2ERKS0_
sIi:_InternalEnumerator_1_System_Collections_IEnumerator_get_Current_m3088751576_AdjustorThunk
eJa:__ZNK9GfxDevice28GetActiveRenderSurfaceHeightEv
l:STACKTOP
V2c:_cff_get_name_index
aMe:_Math_Cos_m43596019
qxb:__ZN21EnlightenSceneMapping16BuildRemapTablesEv
$Lb:__ZNSt3__26vectorI4PPtrI10MonoScriptE13stl_allocatorIS3_L18MemLabelIdentifier76ELi16EEE8__appendEj
vec:__ZN17TransformInternal27UpdateDeepChildCountUpwardsER18TransformHierarchyii
aPi:_InternalEnumerator_1_System_Collections_IEnumerator_get_Current_m1533037706_AdjustorThunk
kkk:__ZNK10__cxxabiv117__class_type_info16search_above_dstEPNS_19__dynamic_cast_infoEPKvS4_ib
iui:_AnimatorControllerPlayable_Play_m656940433
A:tempBigIntD
psd:_Single_Equals_m3359827399_AdjustorThunk
jyd:_EventTrigger_OnPointerClick_m413999043
z:tempBigIntI
sjj:_CachedInvokableCall_1__ctor_m127496184_gshared
Gyf:_PrimalityTests_RabinMillerTest_m2029846965
y:tempBigIntR
x:tempBigIntS
wn:FUNCTION_TABLE_viffi
AVc:_open_face_PS_from_sfnt_stream
oZf:_ServerIdentity_CreateObjRef_m1056204803
Eda:__ZN6Object18RegisterInstanceIDEPS_
ARb:__Z18Transfer_BlittableI24GenerateTypeTreeTransferLb1EsEvRK29SerializationCommandArgumentsR31RuntimeSerializationCommandInfo
i1j:__ZN15dense_hashtableINSt3__24pairIK10KeyWrapperIP12Il2CppObjectEN6il2cpp2gc9CachedCCWEEES5_NS7_5utils11PointerHashIS3_EEN14dense_hash_mapIS5_S9_SD_NS5_14EqualsComparerINS0_8equal_toIS4_EEEENS0_9allocatorISA_EEE9SelectKeyESI_SK_E11set_deletedER30dense_hashtable_const_iteratorISA_S5_SD_SM_SI_SK_E
ZHa:__ZNK9GfxDevice18GetWorldViewMatrixEv
tYe:_List_1_Contains_m3819542652_gshared
HDf:_TlsServerKeyExchange__ctor_m247733406
vwe:_Object_Instantiate_TisRuntimeObject_m1767088036_gshared
Ahf:_ReadOnlyCollection_1_System_Collections_IList_Add_m3065652010_gshared
z7j:__ZN6il2cpp6icalls8mscorlib6System7Convert17Base64ToByteArrayEPDsib
qmj:_IndexedSet_1_Clear_m2776064367_gshared
TAg:_GUIUtility_set_systemCopyBuffer_m2040945785
rdh:__Z82RuntimeInvoker_Boolean_t3825574718_RaycastResult_t21186376_RaycastResult_t21186376PFvvEPK10MethodInfoPvPS4_
FDg:_Mesh_SetNormals_m3341225499
XCj:__ZNSt3__218__insertion_sort_3IRN6il2cpp5utils11collections13ArrayValueMapIPK10Il2CppType17Il2CppInteropData26InteropDataToTypeConverterNS1_8metadata14Il2CppTypeLessENSA_26Il2CppTypeEqualityComparerEE12SortComparerEPS8_EEvT0_SH_T_
N7c:__ZN2UI39SendIgnoreNextTransformChangedRecursiveEPK9TransformPKNS_6CanvasE
Lgj:_MenuNavigation_Quit_m2748206135
bIa:__ZNK9GfxDevice25GetDeviceProjectionMatrixEv
NMf:_HttpWebRequest__ctor_m1248252412
na:invoke_iidiii
GRb:__Z18Transfer_BlittableI24GenerateTypeTreeTransferLb1EtEvRK29SerializationCommandArgumentsR31RuntimeSerializationCommandInfo
I3f:_RankException__ctor_m2119191472
mFc:__ZN9rapidjson12PrettyWriterI16TempBufferWriterNS_4UTF8IcEES3_13JSONAllocatorE11WriteIndentEv
zhc:__ZN10systeminfo24GetRuntimePlatformStringEv
aCc:__ZN9JSONWrite8TransferI13dynamic_arrayI4AABBLj4EEEEvRT_PKc17TransferMetaFlags
kSg:__Z64RuntimeInvoker_Void_t1841601450_OpCode_t2247480392_RuntimeObjectPFvvEPK10MethodInfoPvPS4_
O$:__ZN5physx14PxLightCpuTask15removeReferenceEv
q0g:__Z88RuntimeInvoker_Void_t1841601450_Double_t4078015681_Double_t4078015681_Double_t4078015681PFvvEPK10MethodInfoPvPS4_
bOf:_SPKey_Equals_m1112627532
$ea:__ZN13RuntimeStaticI13ModuleManagerLb0EE13StaticDestroyEPv
rJe:_Stream_Close_m1499612649
hYi:_ArgInfo__ctor_m3787931268
qej:_X509Chain_Build_m175470596
Zoa:__ZN9ShaderLab6TexEnvC2ERKNS_25SerializedTexturePropertyE
s5b:__Z28IntersectLineSegmentWithLineRK8Vector2fS1_S1_S1_RS_
wsa:__ZN19ShaderPropertySheet38CopyTextureWithAuxiliaryPropertiesFromERKN9ShaderLab16FastPropertyNameERKS_
vUc:__ZN20TextRenderingPrivate19NativeTextGeneratorD2Ev
mGj:__ZN6il2cpp2vm19SocketPollingThread14DequeueRequestEv
A4j:__ZL10RevealLinkPv
Fdb:__ZNK6Camera26CalculateCullingParametersER17CullingParameters
dgi:_Shadow__ctor_m924057531
qag:_MethodBuilder_MakeGenericMethod_m303913412
D4f:_AssemblyName_InternalGetPublicKeyToken_m3706025887
guj:__ZL25UnresolvedVirtualCall_146P12Il2CppObjectffPK10MethodInfo
Qmk:dynCall_viffffii
wyd:_ExecuteEvents_Execute_m4235029535
_Mf:_HttpWebRequest_GetObjectData_m1200570677
mbd:__Z43Register_UnityEngine_Canvas_set_scaleFactorv
Jyg:_GUIStyle_set_onHover_m3908151335
rXc:_raccess_guess_linux_cap
PHf:_ReceiveRecordAsyncResult_get_AsyncWaitHandle_m1602093076
n6g:__Z113RuntimeInvoker_Boolean_t3825574718_Ray_t2469606224_RaycastHitU26_t1969197280_Single_t2076509932_Int32_t2071877448PFvvEPK10MethodInfoPvPS4_
FYb:__Z19TransferField_ArrayI18StreamedBinaryReadILb0EE27Converter_UnityEngineObjectEvRK23StaticTransferFieldInfoR31RuntimeSerializationCommandInfoRT0_
MWg:__Z221RuntimeInvoker_Void_t1841601450_Int32_t2071877448_Int16_t4041245914_Int16_t4041245914_SByte_t454417549_SByte_t454417549_SByte_t454417549_SByte_t454417549_SByte_t454417549_SByte_t454417549_SByte_t454417549_SByte_t454417549PFvvEPK10MethodInfoPvPS4_
r8:__Z33InitializeBuiltinShaderParamNamesv
gwf:_ActivationContext_System_Runtime_Serialization_ISerializable_GetObjectData_m775951299
_Kg:_RectTransform_INTERNAL_get_sizeDelta_m3975625099
Mqa:__ZNK16TypeTreeIterator4TypeEv
fYi:_LeaseManager__ctor_m2166901364
OWa:__ZN10FileSystem25MountDataFolderFileSystemERKN4core12basic_stringIcNS0_20StringStorageDefaultIcEEEES6_
OK:__ZN6MotionC2E18MemLabelIdentifier18ObjectCreationMode
TXh:__ZL67Selectable_t1490392188_CustomAttributesCacheGenerator_m_SpriteStateP21CustomAttributesCache
qj:_glGetUniformLocation
mJa:__ZN13GfxDeviceGLES32CreateColorRenderSurfacePlatformEP17RenderSurfaceBase19RenderTextureFormat
FQ:__ZN12AudioManager24CreateFMODSoundFromMovieEP9AudioClip
oFc:__ZN9rapidjson6WriterI16TempBufferWriterNS_4UTF8IcEES3_13JSONAllocatorE8WriteIntEi
KEj:__ZN6il2cpp2vm13MetadataCache24GetGenericInstanceMethodEPK10MethodInfoPK20Il2CppGenericContext
Ymf:_MSCompatUnicodeTable_get_IsReady_m562849792
bnf:_SimpleCollator_SetCJKTable_m1356471502
eVb:__Z18Transfer_BlittableI18StreamedBinaryReadILb1EELb0E8Vector2fEvRK29SerializationCommandArgumentsR31RuntimeSerializationCommandInfo
UCe:_Int32_System_IConvertible_ToUInt64_m2888588559_AdjustorThunk
Zca:__Z24ConvertSeparatorsToUnityPc
XFb:__ZNSt3__213__vector_baseI9InputAxisNS_9allocatorIS1_EEED2Ev
kVj:__ZN6il2cpp2vm6Thread20FreeThreadStaticDataEP12Il2CppThread
tLg:__Z28RuntimeInvoker_RuntimeObjectPFvvEPK10MethodInfoPvPS4_
qee:_Exception_get_ClassName_m2189012117
OFe:_IOException__ctor_m613517077
sUi:_MarshalDirectiveException__ctor_m3894820706
A1c:_cf2_glyphpath_finalize
j1d:_Stack__ctor_m521896492
e4a:__Z20LookRotationToMatrixRK8Vector3fS1_P10Matrix3x3f
fnk:dynCall_viififi
iIb:__ZNSt3__26vectorIN15ResourceManager10DependencyE13stl_allocatorIS2_L18MemLabelIdentifier51ELi16EEE6assignINS_11__wrap_iterIPS2_EEEENS_9enable_ifIXaasr21__is_forward_iteratorIT_EE5valuesr16is_constructibleIS2_NS_15iterator_traitsISC_E9referenceEEE5valueEvE4typeESC_SC_
wXc:_UNITY_FT_Stream_Free
dog:_Type_GetTypeFromHandle_m432505302
ZUj:__ZN15dense_hashtableINSt3__24pairIK10KeyWrapperINS1_IP11Il2CppClassjEEES4_EES6_N6il2cpp8metadata14ArrayClassHashEN14dense_hash_mapIS6_S4_SB_NS6_14EqualsComparerINSA_17ArrayClassCompareEEENS0_9allocatorIS8_EEE9SelectKeyESF_SH_E12maybe_shrinkEv
Nie:_PlayableHandle_IsPlayableOfType_TisAnimationClipPlayable_t4099382200_m682525715_gshared
dUi:_GCHandle_FreeHandle_m2466807271
zId:_GraphicRegistry_get_instance_m2112667631
S0:__ZN11UnityEngine15CloudWebService14DataDispatcher25OnDataBlockConsumedStaticEPv
Byd:_ExecuteEvents_Execute_m2476343313
moh:__ZL54_MethodInfo_t3642518830_CustomAttributesCacheGeneratorP21CustomAttributesCache
IDd:_CanvasUpdateRegistry_CleanInvalidItems_m1402635291
pEj:__ZNK6il2cpp5utils11collections13ArrayValueMapIPK10Il2CppType17Il2CppInteropData26InteropDataToTypeConverterNS_8metadata14Il2CppTypeLessENS8_26Il2CppTypeEqualityComparerEE10find_firstERKS5_
tDe:_Int64_System_IConvertible_ToByte_m3027162116_AdjustorThunk
Wyd:_ExecuteEvents_get_endDragHandler_m56074740
WGg:_Playable_get_Null_m3678950051
tac:__ZZN8Renderer15InitializeClassEvEN28FunctorImpl_136kLayerChanged4CallEPviR11MessageData
LNd:_InputField_IsValidChar_m3929866302
Y_b:__Z14resize_trimmedINSt3__26vectorIN9ShaderLab20SerializedSubProgram16SamplerParameterENS0_9allocatorIS4_EEEEEvRT_j
ZWd:_ArrayList__cctor_m2090802806
Vjk:__ZNSt3__212basic_stringIcNS_11char_traitsIcEENS_9allocatorIcEEE6insertEjPKcj
Ozc:__Z44InitializeTransferFunctionScriptingTraitsForI8JSONReadEvR31TransferFunctionScriptingTraits
ejb:__ZNSt3__26vectorINS_4pairIN4core12basic_stringIcNS2_20StringStorageDefaultIcEEEES6_EE13stl_allocatorIS7_L18MemLabelIdentifier37ELi16EEE6insertENS_11__wrap_iterIPKS7_EERSD_
uGa:__ZNSt3__27__sort4IRNS_4lessIN22BuiltinResourceManager8ResourceEEEPS3_EEjT0_S7_S7_S7_T_
Fyd:_ExecuteEvents_Execute_m171612015
qpa:__ZN15dense_hashtableINSt3__24pairIKPK17RenderSurfaceBaseP13RenderTextureEES4_19PointerHashFunctionIS4_EN14dense_hash_mapIS4_S7_SA_NS0_8equal_toIS4_EE13stl_allocatorIS8_L18MemLabelIdentifier65ELi16EEE9SelectKeyESD_SG_E12resize_deltaEjj
YOa:__ZN4crnd12crn_unpacker11unpack_dxt5EPPhjjjjjj
Qqg:_UInt32_System_IConvertible_ToUInt64_m4083788326_AdjustorThunk
FOh:__ZL99GUIStyle_t1799908754_CustomAttributesCacheGenerator_GUIStyle_t1799908754____clipOffset_PropertyInfoP21CustomAttributesCache
p4c:_UNITY_tt_face_get_location
R2f:_DESTransform_Permutation_m4174035780
WFe:_Path_IsDsc_m1314465747
_Ge:_MonoIO_Seek_m3461199288
jZb:__Z29Transfer_Blittable_ArrayFieldI18StreamedBinaryReadILb0EE4AABBEvRT_R9ArrayInfoRK23StaticTransferFieldInfo
Ofb:__ZN10GameObject34AddFirstTransformComponentInternalEP9Transform
hmc:__Z31Cursor_Get_Custom_PropLockStatev
I8:__ZNSt3__26__treeINS_12__value_typeINS_4pairIPcS3_EENS_3setIS3_15compare_tstringIPKcENS_9allocatorIS3_EEEEEENS_19__map_value_compareIS4_SD_20smaller_tstring_pairIS8_ELb1EEENSA_ISD_EEE7destroyEPNS_11__tree_nodeISD_PvEE
JW:__ZN12AudioManager29GetCurrentAmbisonicDefinitionE31UnityAudioEffectDefinitionFlags
Hyj:__ZN15dense_hashtableINSt3__24pairIK10KeyWrapperIPK22Il2CppGenericParameterEP11Il2CppClassEES6_N6il2cpp5utils11PointerHashIS4_EEN14dense_hash_mapIS6_S9_SE_NS6_14EqualsComparerINS0_8equal_toIS5_EEEENS0_9allocatorISA_EEE9SelectKeyESJ_SL_E15insert_noresizeERKSA_
onc:__Z52Register_UnityEngine_GameObject_GetComponentInParentv
PGb:__ZN15SerializeTraitsINSt3__24pairIPKN5Unity4TypeE7Hash128EEE8TransferI14SafeBinaryReadEEvRS7_RT_
tcb:__Z37GenerateCombinedDynamicVisibleListJobP11CullResults
Z4:__GLOBAL__sub_I_runtime_graphics_billboard_lump_cpp
lla:__ZNK13ScreenManager21GetCursorInsideWindowEv
pI:__ZN14SafeBinaryRead21TransferSTLStyleArrayI22OffsetPtrArrayTransferI9OffsetPtrIN7mecanim12statemachine26SelectorTransitionConstantEEEEEvRT_17TransferMetaFlags
X3j:__ZN6il2cpp2vmL22RaiseOverflowExceptionEv
One:_Array_InternalArray__ICollection_Add_TisSByte_t454417549_m46595441_gshared
LZi:_Match_get_Empty_m3581361913
t9a:__Z20IntersectAABBFrustumRK4AABBPK5Planej
wud:_String_Concat_m626692867
Pbc:__ZN13RenderManager15InitializeClassEv
OOb:__ZN15SerializeTraitsI12PropertyNameE8TransferI14SafeBinaryReadEEvRS0_RT_
N6i:_TextGenerationSettings_CompareVector2_m592645251_AdjustorThunk
PBc:__ZN9JSONWrite8TransferI11ColorRGBA32EEvRT_PKc17TransferMetaFlags
gEc:__Z22TransferField_NonArrayI8JSONRead27Converter_SimpleNativeClassI8GradientEEvRK23StaticTransferFieldInfoR31RuntimeSerializationCommandInfoRT0_
ojf:_ReadOnlyCollection_1_System_Collections_IList_RemoveAt_m2372993063_gshared
CQa:__ZNSt3__26vectorI15ComputeShaderCBNS_9allocatorIS1_EEE21__push_back_slow_pathIKS1_EEvRT_
fLb:__ZN10MonoScript13AwakeFromLoadE17AwakeFromLoadMode
c7b:__ZN13ProduceHelperI11MonoManagerLb0EE7ProduceE18MemLabelIdentifier18ObjectCreationMode
NSa:__ZNK18GfxFramebufferGLES15DiscardContentsER12ObjectHandleI17RenderSurface_TagP17RenderSurfaceBaseE
Grf:_KeyPairPersistence_IsUserProtected_m37342608
UAc:__Z18Transfer_BlittableI9JSONWriteLb1EdEvRK29SerializationCommandArgumentsR31RuntimeSerializationCommandInfo
prk:_glGetIntegerv__wrapper
xxe:_NumberFormatter_ResetCharBuf_m3823516989
H:Math_pow
Mja:__ZN14dense_hash_mapIN4core12basic_stringIcNS0_20StringStorageDefaultIcEEEE10vector_setI4PPtrI11SpriteAtlasENSt3__24lessIS8_EE13stl_allocatorIS8_L18MemLabelIdentifier79ELi16EEE20StringHash32FunctionIS4_ENS9_8equal_toIS4_EESC_INS9_4pairIKS4_SF_EELSD_79ELi16EEE15set_deleted_keyERSL_
Wfb:__ZN10GameObject28FinalizeAddComponentInternalEPN5Unity9ComponentE
BO:__Z64AnimatorControllerPlayable_CUSTOM_INTERNAL_CALL_SetTriggerStringR9HPlayableP12Il2CppString
izg:_GUIStyle_Internal_Draw_m3610093213
l6i:_StackTraceUtility_IsSystemStacktraceType_m506502194
Dwb:__ZN9Texture2DD2Ev
T4:__GLOBAL__sub_I_runtime_geometry_lump_cpp
sXd:_ArrayList_Remove_m3941780739
aWg:__Z69RuntimeInvoker_Void_t1841601450_SByte_t454417549_TimeSpan_t3430258949PFvvEPK10MethodInfoPvPS4_
p6f:_ConstructorBuilder_not_created_m2150488017
XMg:__Z63RuntimeInvoker_Char_t3454481338_Int16_t4041245914_RuntimeObjectPFvvEPK10MethodInfoPvPS4_
GN:__ZNSt3__26vectorIiNS_9allocatorIiEEE6insertENS_11__wrap_iterIPKiEERS5_
u3i:_Uri_AppendQueryAndFragment_m2358658590
lDg:_Mesh_GetIndicesImpl_m2398977086
Sq:__ZN13dynamic_arrayIhLj1EE18resize_initializedEjRKh12ResizePolicy
cEi:_InvokableCallList_AddListener_m786891050
LEa:__ZN17PersistentManager27GetLoadErrorMessageFromPathERKN4core12basic_stringIcNS0_20StringStorageDefaultIcEEEE
Uvd:_DecoderReplacementFallbackBuffer_Fallback_m1790184670
bm:_glGenRenderbuffers
AYj:__ZN6il2cpp6icalls8mscorlib6System2IO6MonoIO19GetCurrentDirectoryEPi
Dud:_String_GetHashCode_m931956593
cHb:__ZN14PlayerSettings23VirtualRedirectTransferER17RemapPPtrTransfer
Frk:_emscripten_glGetIntegerv__wrapper
AW:__ZN12AudioManager31GetCurrentSpatializerDefinitionEv
TDb:__ZN12MeshRenderer16UpdateCachedMeshEv
vOb:__Z19TransferField_ArrayI14SafeBinaryRead27Converter_SimpleNativeClassI8GradientEEvRK23StaticTransferFieldInfoR31RuntimeSerializationCommandInfoRT0_
j_j:__ZN6il2cpp2vm5Image9GetCorlibEv
pC:__ZNK27StateMachineBehaviourPlayer25FireStateMachineBehaviourEiiN7mecanim12statemachine19StateMachineMessageE
rii:_ScrollRectEvent__ctor_m2283981448
FVg:__Z52RuntimeInvoker_Single_t2076509932_Single_t2076509932PFvvEPK10MethodInfoPvPS4_
m6g:__Z109RuntimeInvoker_Single_t2076509932_RuntimeObject_RuntimeObject_Single_t2076509932_ILayoutElementU26_t440254879PFvvEPK10MethodInfoPvPS4_
LSe:_Enumerator_VerifyState_m3913376581_AdjustorThunk
yLf:_NameObjectCollectionBase_System_Collections_ICollection_CopyTo_m810189168
nfb:__ZN6Camera15SetOrthographicEb
FKc:__ZN6b2Body13ResetMassDataEv
eZc:_UNITY_FT_Stream_GetUShort
hIa:__ZN13GfxDeviceGLES14DisableScissorEv
vnh:__ZL71ReliabilityContractAttribute_t1625655220_CustomAttributesCacheGeneratorP21CustomAttributesCache
Ahd:__Z38DownloadHandler_CUSTOM_InternalDestroyP12Il2CppObject
Y5d:_Decimal_op_Explicit_m1986696267
M9h:_Dictionary_2_System_Collections_ICollection_CopyTo_m3578539931_gshared
l4f:_Assembly_GetModules_m2242070953
Yxe:_NumberFormatter_AppendDecimalString_m3532330813
Qc:_glVertexAttrib4f
I6f:_ILGenerator__ctor_m3365621387
aee:_Environment_GetFolderPath_m1849163024
iqf:_ASN1_Add_m2540239672
hQc:__ZN12b2BroadPhase13QueryCallbackEi
Uhe:_Array_InternalArray__ICollection_Remove_TisInt16_t4041245914_m3380378727_gshared
OHg:_PlayableHandle_GetInputCount_m3249715311_AdjustorThunk
WVf:_MethodDictionary_CopyTo_m1721788774
LTc:__ZNSt3__26vectorINS_4pairINS1_IttEEfEENS_9allocatorIS3_EEE8__appendEj
OVi:_SinkProviderData__ctor_m1828480392
UAd:_RaycastResult_ToString_m2233441736_AdjustorThunk
tCg:_Mathf_Sin_m831310046
oak:_GC_set_hdr_marks
B1a:__Z17SetupObjectMatrixRK10Matrix4x4fi
urd:_SecurityFrame_ToString_m1282306399
Znf:_SimpleCollator_MatchesBackwardCore_m1884994267
lng:_TimeSpan_From_m1249538749
tnf:_SimpleCollator_GetSortKey_m1317491197
ntc:__Z43Object_CUSTOM_DoesObjectWithInstanceIDExisti
F8:__ZN13RuntimeStaticINSt3__23mapINS0_4pairIPcS3_EEPFbPvR14SafeBinaryReadE20smaller_tstring_pairIPKcENS0_9allocatorINS2_IKS4_S9_EEEEEELb0EE13StaticDestroyES5_
xdg:_MonoEvent_GetCustomAttributes_m3899596098
r5d:_Convert_ToSByte_m3295168715
Mx:__ZN7mecanim9animation16CreateClipMemoryEPKNS0_4ClipEiRNS_6memory9AllocatorE
xVc:_open_face
yac:__ZZL31RegisterOtherRendererPropertiesR22GenericPropertyBindingEN30Wrapper_RendererReceiveShadows13SetFloatValueEPvf
G9c:__Z17RegisterModule_UIv
JLe:_UnmanagedMemoryStream_Flush_m3305300000
Yyi:_Camera_FireOnPreRender_m24116662
qpg:_TypeLoadException_GetObjectData_m2885802706
UIa:__ZN9GfxDevice24CreateRenderDepthSurfaceE9TextureIDiiii16TextureDimension17DepthBufferFormat18SurfaceCreateFlags
p$f:_ObjectManager_DoFixups_m835924385
MYf:_RemotingServices_CreateWellKnownServerIdentity_m3390048085
xQ:__ZN4FMOD5Sound11setUserDataEPv
gv:__ZN7mecanim9animation9DenseClip8TransferI18StreamedBinaryReadILb0EEEEvRT_
g_b:__ZN14SafeBinaryRead21TransferSTLStyleArrayINSt3__26vectorIN9ShaderLab19SerializedSubShaderENS1_9allocatorIS4_EEEEEEvRT_17TransferMetaFlags
BYj:__ZN6il2cpp6icalls8mscorlib6System2IO6MonoIO17GetFileAttributesEP12Il2CppStringPi
jzf:_ARC4Managed_KeySetup_m73384687
AYa:__ZNK25SingleBlockMemoryFileData4SizeEv
i8d:_DateTime_Equals_m2562884703
PE:__ZN9BlobWrite8TransferIN7mecanim12statemachine18StateMachineMemoryEEEvRT_PKc17TransferMetaFlags
eU:__ZL50UnityAudioEffect_InternalSetFloatParameterCallbackP14FMOD_DSP_STATEif
hfj:_AI_GetTargetTilePerGhost_m1666483835
snb:__ZN17LowLevelAllocator4FreeEPvj
$$d:_KeyMarker__cctor_m2057880225
kyj:__ZN15dense_hashtableINSt3__24pairIK10KeyWrapperIPK22Il2CppGenericParameterEP11Il2CppClassEES6_N6il2cpp5utils11PointerHashIS4_EEN14dense_hash_mapIS6_S9_SE_NS6_14EqualsComparerINS0_8equal_toIS5_EEEENS0_9allocatorISA_EEE9SelectKeyESJ_SL_E9copy_fromERKSO_j
gAe:_TextInfo_get_ListSeparator_m3426465394
HHe:_FileStream_BeginWrite_m3895959548
kFf:_Context_set_RecordProtocol_m1968834768
bfa:__ZL19StaticCleanupPlayerPv
xRf:_X509Certificate2Enumerator_MoveNext_m1861665712
sdc:__ZN13PlayableGraph4StopEv
POg:__Z87RuntimeInvoker_RuntimeObject_RuntimeObject_RuntimeObject_RuntimeObject_SByte_t454417549PFvvEPK10MethodInfoPvPS4_
oja:__ZN15dense_hashtableINSt3__24pairIKN4core12basic_stringIcNS2_20StringStorageDefaultIcEEEEP11AssetBundleEES6_20StringHash32FunctionIS6_EN14dense_hash_mapIS6_S9_SC_NS0_8equal_toIS6_EENS0_9allocatorISA_EEE9SelectKeyESF_SH_ED2Ev
Tkg:_Monitor_Monitor_wait_m3813798368
Evd:_DecoderExceptionFallbackBuffer_Fallback_m3457210607
Ah:_emscripten_set_touchmove_callback
Jnb:__ZN9Behaviour10DeactivateE19DeactivateOperation
RCi:_Display_get_renderingWidth_m2127568366
Vbf:_Collection_1_System_Collections_IList_get_Item_m2836259259_gshared
Qwi:_Debug_LogWarning_m2503577968
jDa:__ZN13StreamingInfo8TransferI14SafeBinaryReadEEvRT_
eri:_AnimatorControllerPlayable_GetBoolString_m2522782124
F_b:__ZN15dense_hashtableINSt3__24pairIKiN4core17string_with_labelILi1EEEEEi18SInt32HashFunctionN14dense_hash_mapIiS5_S7_NS0_8equal_toIiEE13stl_allocatorIS6_L18MemLabelIdentifier1ELi16EEE9SelectKeyESA_SD_E15insert_noresizeERKS6_
PIb:__ZN14SafeBinaryRead21TransferSTLStyleArrayINSt3__26vectorIN4core12basic_stringIcNS3_20StringStorageDefaultIcEEEE13stl_allocatorIS7_L18MemLabelIdentifier12ELi16EEEEEEvRT_17TransferMetaFlags
uSc:__GLOBAL__sub_I_runtime_dynamics_lump_cpp
Mp:__Z23CalculateGlobalRotation23TransformAccessReadOnly
BRf:_X509Store_Close_m2412711366
AM:__Z25HumanPoseMaskFromBodyMaskRK13dynamic_arrayIjLj4EE
Eri:_AnimatorControllerPlayable_SetInteger_m881630854_AdjustorThunk
vac:__Z43InitializeRendererAnimationBindingInterfacev
Pda:__ZL26DestroyGameObjectRecursiveR10GameObjectR11BatchDelete
ffi:_CullStateChangedEvent__ctor_m4025397477
Fak:_GC_allochblk_nth
Ykg:_Mutex_ReleaseMutex_m2143813124
Hqg:_UInt32_System_IConvertible_ToSByte_m604037412_AdjustorThunk
I9b:__Z7HaloTexP9Texture2DPhiiii
Ghd:__Z69Register_UnityEngine_Networking_DownloadHandlerBuffer_InternalGetDatav
Unk:dynCall_i
toe:_Array_InternalArray__ICollection_CopyTo_TisKeyValuePair_2_t3749587448_m2750720485_gshared
Zyi:_Camera_FireOnPostRender_m94860165
xZ:__ZN17AudioCustomFilter4InitEv
qdj:_X509Certificate__cctor_m2984068893
wue:_Component_GetComponents_TisRuntimeObject_m1186222966_gshared
cnk:dynCall_f
dSb:__Z35Transfer_Blittable_FixedBufferFieldI24GenerateTypeTreeTransferjEvRK29SerializationCommandArgumentsR31RuntimeSerializationCommandInfo
mdc:__ZN8Playable13SetInputCountEi
smk:dynCall_v
jJe:_Path__cctor_m3685888661
P9d:_Decimal_System_IConvertible_ToDateTime_m4247760250_AdjustorThunk
Eqf:_BitConverterLE_ULongFromBytes_m2583105400
TRa:__ZN7ApiGLES14TextureSamplerEjjRK24GfxTextureSamplingParams17TextureColorSpace
D8h:_Dictionary_2_ToTKey_m965425080_gshared
Yqb:__ZN6Camera23VirtualRedirectTransferER14SafeBinaryRead
bYe:_List_1_System_Collections_IList_Insert_m2838947798_gshared
Uek:__ZNSt3__26vectorINS_12basic_stringIDsNS_11char_traitsIDsEENS_9allocatorIDsEEEENS4_IS6_EEE8__appendEj
kng:_TimeSpan_FromDays_m2859053398
tMj:__ZN6il2cpp2vm4Type11IsEmptyTypeEPK10Il2CppType
tdd:__ZN11UnityEngine7Connect13ConnectConfig11ConfigValueD2Ev
fMa:__ZNSt3__26__treeINS_12__value_typeIjP14DataBufferGLESEENS_19__map_value_compareIjS4_NS_4lessIjEELb1EEENS_9allocatorIS4_EEE7destroyEPNS_11__tree_nodeIS4_PvEE
ydc:__ZN13PlayableGraph15SetPrepareStageE13DirectorStage
Gb:invoke_viiiiiiii
nMe:_MissingMemberException__ctor_m2869542203
wjj:_CachedInvokableCall_1__ctor_m3238306320_gshared
Ucb:__ZNK6Camera16GetCullingMatrixEv
GH:__ZNK18AnimatorController17GetAnimationClipsEv
d2e:_List_1_Find_m160737912_gshared
S2i:_Uri_EnsureAbsoluteUri_m1892758054
Zwb:__ZN16LightmapSettings5ResetEv
xXa:__ZN12FileAccessor4ReadEyPvPy
_vc:__Z42Register_UnityEngine_Event_get_commandNamev
XWd:_ArrayList_ThrowNewArgumentOutOfRangeException_m3795973535
k$i:_Regex_Init_m1873144192
Iqf:_BitConverterLE_ToDouble_m516016818
Dda:__ZNK15FileSystemEntry6ExistsEv
qEb:__ZNK9Transform21GetLocalToWorldMatrixER10Matrix4x4f
O8i:_Transform_TransformDirection_m1639585047
wAf:_EncryptedPrivateKeyInfo__ctor_m3398795484
qR:__ZN13AudioListener23VirtualRedirectTransferER19StreamedBinaryWriteILb0EE
JJa:__ZN13GfxDeviceGLES11CopyTextureE9TextureIDS0_
Dkc:__Z72Register_UnityEngine_AssetBundleCreateRequest_DisableCompatibilityChecksv
Aqk:_emscripten_glViewport__wrapper
Wv:__ZN6Motion17MainThreadCleanupEv
D2g:__Z47RuntimeInvoker_RuntimeObject_Single_t2076509932PFvvEPK10MethodInfoPvPS4_
DWi:_Context__cctor_m3895126354
p3c:_tt_size_select
i1:__ZN11UnityEngine15CloudWebService17SessionEventQueue15RestoreFromFileER12FileAccessorPvy
VGb:__ZN14PlayerSettingsD2Ev
fHe:_FileStream_get_Length_m2265080501
zog:_Type_type_is_assignable_from_m1620694099
t9j:_GC_reclaim_all
DLc:__ZN10ClipperLib15FirstIsBottomPtEPKNS_5OutPtES2_
Aha:__ZN13PlayableGraph14DestroyOutputsEv
CXi:_ContextAttribute_GetPropertiesForNewContext_m4007241045
xf:___syscall122
_xf:_Kernel_Subtract_m2224959291
$Si:_ResourceSet__ctor_m2566914412
CKc:__ZN19CompositeCollider2D22AddColliderToCompositeEP10Collider2DRK13dynamic_arrayIP7b2ShapeLj4EE
Fri:_AnimatorControllerPlayable_SetInteger_m3338355659
czf:_ASN1Convert_ToDateTime_m2305963290
Pnd:_SymmetricAlgorithm_Finalize_m1665128997
lZ:__ZN9AudioClip16EnableLegacyModeEv
Oui:_AnimatorStateInfo_IsName_m4069203550
Nlc:__Z52Register_UnityEngine_Camera_INTERNAL_CALL_RaycastTryv
cjb:__ZN13sorted_vectorINSt3__24pairIN4core12basic_stringIcNS2_20StringStorageDefaultIcEEEES6_EEN10vector_mapIS6_S6_27compare_tstring_insensitiveIS6_E13stl_allocatorIS7_L18MemLabelIdentifier37ELi16EEE13value_compareESD_E10insert_oneERKS7_
x2d:_Convert_ToByte_m791636053
uQi:_InternalEnumerator_1_get_Current_m2986222582_AdjustorThunk
Xkb:__ZNSt3__26__treeIN4core12basic_stringIcNS1_20StringStorageDefaultIcEEEENS_4lessIS5_EE13stl_allocatorIS5_L18MemLabelIdentifier37ELi16EEE7destroyEPNS_11__tree_nodeIS5_PvEE
xnk:dynCall_iifi
djc:__ZN18ScriptingArguments13CopyFromOtherERKS_
ACg:_Mathf_Ceil_m3621406599
x$c:_ps_hints_close
Zbc:__Z16CreateRenderLoopR6Camera
s6:_tlsf_create
yRi:_DefaultComparer_Compare_m4039941311_gshared
H4h:_Enumerator_MoveNext_m2534596951_AdjustorThunk
WKc:__ZN10ClipperLib7ClipperC1Ei
KJb:__ZN13MonoBehaviour23VirtualRedirectTransferER18StreamedBinaryReadILb0EE
P$b:__ZN9ShaderLab20SerializedSubProgramC2ERKS0_
avk:_emscripten_glCompileShader__wrapper
$md:_SHA256Managed_ProcessBlock_m1064908669
Hkk:__ZNK10__cxxabiv121__vmi_class_type_info27has_unambiguous_public_baseEPNS_19__dynamic_cast_infoEPvi
w6d:_Convert_ToUInt64_m2215781574
Ldj:_X509Certificate_VerifySignature_m4020723406
mpg:_TypeInitializationException_GetObjectData_m2244451030
Cfe:_CompareInfo_LastIndexOf_m2978196696
crf:_DSAManaged_Generate_m3166917081
g1h:_Enumerator_VerifyCurrent_m3330382363_AdjustorThunk
sji:_ScrollRect_StopMovement_m1824352159
tl:_emscripten_glGetActiveUniform
Z6a:__Z20RenderFullScreenQuadR9GfxDeviceRK6Camera17ShaderChannelMaskRK5RectTIfEf21MonoOrStereoscopicEye
Oef:_ReadOnlyCollection_1_System_Collections_IList_Contains_m2320811592_gshared
Nra:__ZN16RenderTextureMap5QueryEPK17RenderSurfaceBase
vLe:_UnexceptionalStreamWriter_Write_m186237617
fji:_ScrollRect_UpdateScrollbars_m3921404746
duk:_emscripten_glUniform4iv__wrapper
$Td:_Boolean_CompareTo_m1086129598_AdjustorThunk
Jac:__ZN8Material8GetFloatEN9ShaderLab16FastPropertyNameE
vxi:_AudioPlayableOutput__ctor_m2971183853
$Wc:_psnames_module_class_pic_free
duc:__Z11GetGUIStatev
vg:_pthread_key_create
v3g:__Z61RuntimeInvoker_Boolean_t3825574718_Int32_t2071877448_IntPtr_tPFvvEPK10MethodInfoPvPS4_
kXd:_ArrayList_Clear_m3834604134
Cg:_emscripten_glGetObjectParameterivARB
mua:__ZN15SerializeTraitsI10ColorRGBAfE8TransferI14SafeBinaryReadEEvRS0_RT_
FFj:__ZN6il2cpp2vm13MetadataCache27GetEventDefinitionFromIndexEi
hfa:__ZN22BuiltinResourceManager13StaticDestroyEPv
kTd:_Boolean_System_IConvertible_ToBoolean_m1810519221_AdjustorThunk
ese:_Array_Resize_TisCustomAttributeTypedArgument_t1498197914_m3055365808_gshared
RFc:__ZNK14b2CapsuleShape11ComputeMassEP10b2MassDataf
Ida:__ZN10GameObject17GetComponentIndexEPN5Unity9ComponentE
fAb:__ZN14SafeBinaryRead21TransferSTLStyleArrayI13dynamic_arrayI7SubMeshLj4EEEEvRT_17TransferMetaFlags
hsd:_Single_IsNegativeInfinity_m2615809279
pDe:_Int32_GetTypeCode_m3811463295_AdjustorThunk
eDf:_CipherSuiteFactory_GetSsl3SupportedCiphers_m2476597368
iNf:_IPv6Address_Fill_m1824197512
d5c:__ZNK13TextRendering4Font11GetMaterialEv
UT:__ZN29AudioEffectInternalDefinition9CreateDSPEPN4FMOD6SystemEPvPfP23UnityAudioAmbisonicDataPP25UnityAudioSpatializerData
U4c:_UNITY_tt_face_vary_cvt
sHj:__ZNK6il2cpp5utils10functional6FilterINSt3__212basic_stringIcNS3_11char_traitsIcEENS3_9allocatorIcEEEENS0_13VmStringUtils21CaseSensitiveComparerEEclIPKcEEbRKT_
quc:__Z28DidLoadAllAssembliesCallbackv
Iib:__ZN35RegisterRuntimeInitializeAndCleanup22ExecuteInitializationsEv
_Nc:__Z14b2TimeOfImpactP11b2TOIOutputPK10b2TOIInput
Lwe:_GameObject_GetComponents_TisRuntimeObject_m3618562997_gshared
tza:__ZN23PreloadManagerOperation14SetFinalTimingEffff
i:DYNAMICTOP_PTR
SGd:_Dropdown_SetupTemplate_m1416189897
X1a:__Z11CopyTextureP7TextureiiS0_ii
RGb:__ZN13BuildSettings8TransferI18StreamedBinaryReadILb0EEEEvRT_
lgi:_PositionAsUV1__ctor_m412270210
b6b:__ZN10GameObject15InitializeClassEv
f0f:_SerializationInfo_GetInt16_m3549836657
Jnc:__Z38Renderer_Get_Custom_PropSortingLayerIDP12Il2CppObject
rYh:__ZL90StencilMaterial_t1630303189_CustomAttributesCacheGenerator_StencilMaterial_Add_m1745413071P21CustomAttributesCache
yhe:_Array_InternalArray__ICollection_Contains_TisWorkRequest_t1154022482_m865286315_gshared
Mce:_Double_Equals_m920556135_AdjustorThunk
x1d:_Stack_Push_m284336154
gMd:_InputField_set_caretBlinkRate_m3521089516
V7d:_DateTime_Add_m4237489122
kid:__Z64Register_UnityEngine_Networking_UnityWebRequest_GetUploadHandlerv
cIb:__ZN15ResourceManager10Dependency8TransferI14SafeBinaryReadEEvRT_
X8j:_GC_extend_size_map
DSi:_Comparer_1_System_Collections_IComparer_Compare_m637596782_gshared
uU:__ZN4FMOD6System9setDriverEi
e0j:__ZN6il2cpp8metadataL24RecursiveGenericDepthForEPK17Il2CppGenericInst
dcc:__ZNK9Transform11GetRotationEv
oQf:_X509Certificate2_Find_m833446211
Enc:__Z36Register_UnityEngine_GameObject_Findv
W$c:_pshinter_get_globals_funcs
eSb:__Z18Transfer_BlittableI24GenerateTypeTreeTransferLb0EyEvRK29SerializationCommandArgumentsR31RuntimeSerializationCommandInfo
xoa:__ZN8Material14CreateMaterialER6ShaderN6Object9HideFlagsEb
Prf:_KeyPairPersistence_FromXml_m2310151202
Skc:__Z60Register_UnityEngine_AsyncOperation_get_allowSceneActivationv
s9d:_DBNull_System_IConvertible_ToUInt64_m2919804476
Wik:_fread
_sb:__ZNK17InstancedPropInfo15RenderInstancesERK15RenderNodeQueuePK17BatchInstanceDataj17ShaderChannelMaskPFbPvS6_iR11MeshBuffersR16DrawBuffersRangeRiSC_E
Wwc:__Z31GUIStyle_CUSTOM_GetFontInternalP12Il2CppObject
H_c:_tt_cmap12_char_map_binary
mVg:__Z51RuntimeInvoker_Double_t4078015681_Int16_t4041245914PFvvEPK10MethodInfoPvPS4_
IXc:_ft_outline_glyph_transform
Aoa:__Z25GetBuiltinResourceManagerv
QMi:_InternalEnumerator_1_System_Collections_IEnumerator_get_Current_m439366097_AdjustorThunk
bs:__ZN6Motion21AddSelfToDependenciesER8UserList
p0j:__ZN6il2cpp2gc8GCHandle15GetTargetHandleEP12Il2CppObjectii
Ph:_llvm_trap
Bhj:_ScoreManager_ReadScoresFromDB_m4130810527
w8:__ZNSt3__27__sort5IRNS_6__lessIN12_GLOBAL__N_114ParamNameIndexES3_EEPS3_EEjT0_S7_S7_S7_S7_T_
GFe:_Directory_CreateDirectory_m3561886598
s9j:_get_index
Bs:__ZN11UnityEngine9Animation14GenericBinding8TransferI14SafeBinaryReadEEvRT_
O3a:__Z26scripting_method_get_class18ScriptingMethodPtr
qEf:_ClientSessionInfo_get_Valid_m3589823308
Osf:_PKCS1_Sign_v15_m2137018891
hje:_SetPropertyUtility_SetClass_TisRuntimeObject_m3524554928_gshared
ufc:__ZN17CollisionMeshData20VertexDataHasChangedEv
yGj:__ZN6il2cpp2vm21ThreadPoolCompartment12DetachThreadEP12Il2CppThread
iJa:__ZN13GfxDeviceGLES30SetBackBufferColorDepthSurfaceEP17RenderSurfaceBaseS1_
Nhg:_Latin1Encoding_GetBytes_m1067304501
Gyc:__Z52Register_UnityEngine_GUIUtility_get_systemCopyBufferv
_dc:__ZN16StreamedResource8TransferI18StreamedBinaryReadILb0EEEEvRT_
woc:__Z49Register_UnityEngine_Input_get_imeCompositionModev
E_b:__ZN15dense_hashtableINSt3__24pairIKiN4core17string_with_labelILi1EEEEEi18SInt32HashFunctionN14dense_hash_mapIiS5_S7_NS0_8equal_toIiEE13stl_allocatorIS6_L18MemLabelIdentifier1ELi16EEE9SelectKeyESA_SD_E12resize_deltaEjj
Pdb:__ZNK20OcclusionCullingData22GetStaticRendererCountEv
TYc:_UNITY_tt_face_free_ps_names
s7a:__ZNK6Camera17GetSkyboxMaterialEv
mvk:_emscripten_glDisableVertexAttribArray__wrapper
CJi:_InternalEnumerator_1_get_Current_m3259181373_AdjustorThunk
Cgk:_strtox_545
zLi:_InternalEnumerator_1_get_Current_m789289033_gshared
yWc:__ZNSt3__26vectorIN20TextRenderingPrivate8FontImpl13CharacterInfoE13stl_allocatorIS3_L18MemLabelIdentifier34ELi16EEE6insertENS_11__wrap_iterIPKS3_EERS9_
dwe:_Array_InternalArray__get_Item_TisUILineInfo_t3621277874_m1432166059_gshared
VDb:__ZN12MeshRenderer18CalculateLocalAABBER4AABBRKS_RK4Mesh
rWg:__Z242RuntimeInvoker_Boolean_t3825574718_RuntimeObject_RuntimeObject_RuntimeObject_SByte_t454417549_DateTimeU26_t3448131235_DateTimeOffsetU26_t3212986406_RuntimeObject_Int32_t2071877448_SByte_t454417549_BooleanU26_t3168250738_BooleanU26_t3168250738PFvvEPK10MethodInfoPvPS4_
aBe:_Guid_ToString_m3927110175
mnb:__ZN21UnityDefaultAllocatorI17LowLevelAllocatorE8AllocateEji
DPi:_InternalEnumerator_1_get_Current_m889125315_gshared
vLd:_Image_get_preferredHeight_m1045199335
M8c:__ZL28InitializeUIScriptingClassesv
Bkc:__Z43AssetBundleRequest_Get_Custom_PropAllAssetsP12Il2CppObject
$ya:__ZN10UnityScene10ClearRootsEv
lZa:__ZN12HandlerChain10AtomicMoveER13FileEntryDataS1_
ije:_SetPropertyUtility_SetStruct_TisBoolean_t3825574718_m752301298_gshared
Wha:__ZZN15DirectorManager15InitializeClassEvEN48PreLateUpdateDirectorDeferredEvaluateRegistrator7ForwardEv
N7:__ZN20SpeedTreeWindManager6UpdateEf
VAi:_Color_op_Multiply_m325555950
U1i:_Literal_GetWidth_m1285678191
O3d:_Decimal_ThrowAtPos_m3318712794
otf:_RSAManaged_GetPaddedValue_m4394397
wG:__ZN7mecanim9animation20CreateAvatarConstantEPNS_8skeleton8SkeletonEPNS1_13SkeletonPoseTIN4math4trsXEEES8_PNS_5human5HumanES3_iRKS6_RNS_6memory9AllocatorE
tLe:_UnexceptionalStreamWriter__ctor_m2209699189
sxi:_AudioMixerPlayable_INTERNAL_CALL_SetAutoNormalizeInternal_m2425179629
p_e:_List_1_Find_m970100220_gshared
Y3i:_Transform_INTERNAL_get_rotation_m2427701365
Die:_Array_InternalArray__ICollection_Remove_TisVector2_t2243707579_m3881494282_gshared
oDb:__ZN14CompressedMesh8TransferI19StreamedBinaryWriteILb0EEEEvRT_
w4f:_AssemblyFileVersionAttribute__ctor_m2026149866
zkc:__Z58AssetBundleCreateRequest_CUSTOM_DisableCompatibilityChecksP12Il2CppObject
kpe:_Array_InternalArray__ICollection_CopyTo_TisUILineInfo_t3621277874_m2142954044_gshared
Eag:_TypeBuilder_SetParent_m387557893
p7j:__ZNK6il2cpp5utils13VmStringUtils21CaseSensitiveComparerclERKNSt3__212basic_stringIcNS3_11char_traitsIcEENS3_9allocatorIcEEEEPKc
RCf:_CipherSuiteCollection_cultureAwareCompare_m1825407448
pxe:_DateTimeFormatInfo_GetEraName_m1437894363
Qpe:_Array_InternalArray__Insert_TisLabelFixup_t4090909514_m3927736182_gshared
NSf:_X509KeyUsageExtension_Encode_m3100824560
bid:__Z61Register_UnityEngine_Networking_UnityWebRequest_InternalBeginv
MHb:__ZNK15ResourceManager22GetTypeVirtualInternalEv
Lai:_DefaultComparer_GetHashCode_m1728348656_gshared
yNd:_InputField_MouseDragOutsideRect_m3758282095
egi:_Outline_ModifyMesh_m3796381413
oTc:__ZN13TextRendering4Font23VirtualRedirectTransferER24GenerateTypeTreeTransfer
TTf:_Interpreter_PopulateGroup_m4098755954
IAf:_PrivateKeyInfo_DecodeRSA_m919734506
Eoc:__ZNSt3__27__sort4IRNS_6__lessI11KeyframeTplIfES3_EEPS3_EEjT0_S7_S7_S7_T_
dmb:__ZL16MouseMoveHandleriPK20EmscriptenMouseEventPv
vAe:_GuidParser_Reset_m3389485794
C_:__ZN11AudioSource15InitializeClassEv
U4e:_Enumerator_System_Collections_IEnumerator_get_Current_m1270503615_gshared
Hwg:_GUILayoutGroup_CalcHeight_m1454440153
UIi:_InternalEnumerator_1_System_Collections_IEnumerator_get_Current_m3315293493_gshared
Wri:_AnimatorControllerPlayable_ResetTriggerID_m1114520954
o4a:__ZN11HaloManager17RenderGeometryJobEP25DynamicVBOGeometryJobDataj
ILi:_InternalEnumerator_1_System_Collections_IEnumerator_get_Current_m4023948615_gshared
GL:__ZNSt3__227__insertion_sort_incompleteIRPFbN7mecanim9animation13MuscleIndexIdES3_EPS3_EEbT0_S8_T_
Jwd:_BaseInput_get_mousePresent_m3571192771
yvk:_emscripten_glBlendEquation__wrapper
sUj:__ZN15dense_hashtableINSt3__24pairIK10KeyWrapperIP11Il2CppClassES4_EES5_N6il2cpp8metadata16SZArrayClassHashEN14dense_hash_mapIS5_S4_SA_NS5_14EqualsComparerINS9_19SZArrayClassCompareEEENS0_9allocatorIS7_EEE9SelectKeyESE_SG_E13set_empty_keyERKS7_
Gjk:__ZNSt3__212basic_stringIcNS_11char_traitsIcEENS_9allocatorIcEEE6__initEPKcj
Rj:_emscripten_set_fullscreenchange_callback
zsf:_KeyPairPersistence__IsUserProtected_m3417764903
oTf:_CategoryUtils_CategoryFromName_m226887453
Sae:_Decimal_op_Division_m1099836590
V3:__ZN11UnityEngine15CloudWebService14DataDispatcher22ResetNetworkRetryIndexEv
Wj:_emscripten_glDrawArrays
b$a:__ZZ23InitPlayerLoopCallbacksvEN43EarlyUpdateExecuteMainThreadJobsRegistrator7ForwardEv
w3:__ZN11UnityEngine15CloudWebService19SessionEventManagerC2Ev
zGe:_File_Open_m1543461971
fZi:_LogicalCallContext_GetObjectData_m104142736
H$d:_Hashtable_KeyEquals_m1433874944
f$i:_QuickSearch_GetShiftDistance_m2364008966
Z7i:_TouchScreenKeyboard_get_text_m538529702
vid:__ZN13RuntimeStaticI14dynamic_bitsetLb0EE16StaticInitializeEPv
nt:__ZN13AnimationClip10FloatCurve8TransferI14SafeBinaryReadEEvRT_
gka:__ZNSt3__222__merge_move_constructIRNS_4lessIN4core12basic_stringIcNS2_20StringStorageDefaultIcEEEEEENS_11__wrap_iterIPS6_EESB_EEvT0_SC_T1_SD_PNS_15iterator_traitsISC_E10value_typeET_
Dlc:__Z41Register_UnityEngine_Camera_get_eventMaskv
CGg:_Physics2D_Internal_RaycastNonAlloc_m1874107548
K_:__ZL19CleanupModule_Audiov
Tpj:_GenericComparer_1_Compare_m2516380588_gshared
XKj:__ZN6il2cpp2os4File10DeleteFileERKNSt3__212basic_stringIcNS2_11char_traitsIcEENS2_9allocatorIcEEEEPi
HFe:_File_Exists_m1685968367
yPb:__Z29Transfer_Blittable_ArrayFieldI14SafeBinaryReadiEvRT_R9ArrayInfoRK23StaticTransferFieldInfo
JN:__Z30Animator_CUSTOM_SetFloatStringP12Il2CppObjectP12Il2CppStringf
zDj:__ZN15dense_hashtableINSt3__24pairIK10KeyWrapperIN6il2cpp5utils13dynamic_arrayIPK10Il2CppTypeLj4EEEEPFvvEEESA_NS3_8metadata19Il2CppSignatureHashEN14dense_hash_mapISA_SD_SG_NSA_14EqualsComparerINSF_22Il2CppSignatureCompareEEENS0_9allocatorISE_EEE9SelectKeyESK_SM_E5clearEv
jwi:_AudioClipPlayable__ctor_m1273139759_AdjustorThunk
Urk:_emscripten_glVertexAttrib3fv__wrapper
$lf:_Comparison_1_BeginInvoke_m1549337842_gshared
Lej:_X509Crl_VerifySignature_m25189948
gje:_PlayableOutputHandle_IsPlayableOutputOfType_TisScriptPlayableOutput_t1666207618_m804587587_AdjustorThunk
Ejc:__ZN8Material10GetTextureEN9ShaderLab16FastPropertyNameE
m7b:__ZNK28MonoBehaviourPropertyBinding13GetFloatValueERKN11UnityEngine9Animation10BoundCurveE
z0f:_RuntimeFieldHandle_Equals_m1202966418_AdjustorThunk
dIb:__ZN14SafeBinaryRead21TransferSTLStyleArrayINSt3__26vectorI4PPtrI6ObjectE13stl_allocatorIS5_L18MemLabelIdentifier51ELi16EEEEEEvRT_17TransferMetaFlags
Vqi:_AnimatorControllerPlayable_INTERNAL_CALL_GetFloatID_m1278007428
ibk:_GC_generic_malloc
yKg:_Rect_op_Equality_m2793663577
u7b:__ZNSt3__26vectorI16MessageForwarder13stl_allocatorIS1_L18MemLabelIdentifier6ELi8EEE6resizeEj
g4h:_Enumerator_System_Collections_IEnumerator_get_Current_m2160496972_AdjustorThunk
ATa:__Z19GetVertexFormatSize12VertexFormat
xAb:__ZN24GenerateTypeTreeTransfer8TransferINSt3__26vectorI13dynamic_arrayI8Vector2fLj4EENS1_9allocatorIS5_EEEEEEvRT_PKc17TransferMetaFlags
z0h:_Enumerator_System_Collections_IDictionaryEnumerator_get_Value_m120250090_gshared
oka:__ZN15dense_hashtableINSt3__24pairIKN4core12basic_stringIcNS2_20StringStorageDefaultIcEEEE13dynamic_arrayI4PPtrI6SpriteELj4EEEES6_20StringHash32FunctionIS6_EN14dense_hash_mapIS6_SC_SF_NS0_8equal_toIS6_EE13stl_allocatorISD_L18MemLabelIdentifier79ELi16EEE9SelectKeyESI_SL_E9set_valueEPSD_RKSD_
UZi:_MatchCollection_TryToGet_m2938913145
Kvk:_emscripten_glIsTexture__wrapper
rJg:_Ray_ToString_m2019179238_AdjustorThunk
bjd:_KeyedHashAlgorithm_get_Key_m3672929432
OIa:__ZN9GfxDevice25ReleaseAsyncCommandHeaderEPN21GfxDeviceAsyncCommand3ArgE
kui:_AnimatorControllerPlayable_INTERNAL_CALL_PlayInternal_m1154456170
Kzf:_MD2Managed_HashCore_m248147901
sRc:__ZN17Physics2DSettings15InitializeClassEv
oTa:__ZN21UniformBufferTFMethod20IsBoneCountSupportedEi
oGj:__ZN6il2cpp2vm21ThreadPoolCompartment13QueueWorkItemEP17Il2CppAsyncResult
nui:_AnimatorControllerPlayable_Play_m3939684325_AdjustorThunk
Moi:_AnimationClipPlayable_INTERNAL_CALL_GetAnimationClipInternal_m4096750434
E1g:__Z101RuntimeInvoker_Void_t1841601450_RuntimeObject_Single_t2076509932_Int32_t2071877448_Single_t2076509932PFvvEPK10MethodInfoPvPS4_
oIe:_MemoryStream__ctor_m4073175573
uEg:_DownloadHandler_GetTextEncoder_m1770717594
_sa:__ZN6Shader27MarkShaderStateNotSupportedEPKS_
ote:_Array_Sort_TisVector4_t2243707581_TisVector4_t2243707581_m917148421_gshared
spg:_UInt16_System_IConvertible_ToBoolean_m887616848_AdjustorThunk
HUh:__ZL81AnimationTriggers_t3244928895_CustomAttributesCacheGenerator_m_HighlightedTriggerP21CustomAttributesCache
_gb:__ZN10GameObject21EnsureUniqueTransformEbb
QSa:__ZN25TransformFeedbackSkinning8SkinMeshERK18VertexStreamSourceP9GfxBufferP17GPUSkinPoseBufferS4_ii17ShaderChannelMaskb
zZj:__ZN15dense_hashtableINSt3__24pairIK10KeyWrapperIP14Il2CppIUnknownEjEES5_N6il2cpp5utils11PointerHashIS3_EEN14dense_hash_mapIS5_jSB_NS5_14EqualsComparerINS0_8equal_toIS4_EEEENS0_9allocatorIS7_EEE9SelectKeyESG_SI_E12resize_deltaEjj
Oig:_UnicodeEncoding_GetCharCount_m3719064538
XTd:_Boolean_CompareTo_m3691698947
Mai:_DefaultComparer_Equals_m3262686272_gshared
vUb:__Z22TransferField_NonArrayI19StreamedBinaryWriteILb0EE27Converter_SimpleNativeClassI8GUIStyleEEvRK23StaticTransferFieldInfoR31RuntimeSerializationCommandInfoRT0_
TJe:_StreamReader_ReadToEnd_m3871366821
oki:_Selectable_set_interactable_m63718297
dRc:__ZZN10Collider2D15InitializeClassEvEN28FunctorImpl_100kLayerChanged4CallEPviR11MessageData
Kue:_GameObject_GetComponentsInParent_TisRuntimeObject_m3757051886_gshared
jpe:_Array_InternalArray__ICollection_CopyTo_TisUICharInfo_t3056636800_m2132994790_gshared
Np:__Z17CalculateGlobalSM23TransformAccessReadOnlyRKN4math7_float4E
Ul:_emscripten_glLoadIdentity
Wib:__ZNSt3__26vectorINS_4pairIN4core12basic_stringIcNS2_20StringStorageDefaultIcEEEEPK17MessageIdentifierEENS_9allocatorISA_EEE26__swap_out_circular_bufferERNS_14__split_bufferISA_RSC_EEPSA_
g2d:_Decimal_op_GreaterThan_m1625379433
gcb:__Z29CullShadowCastersWithoutUmbraR9IndexListRK17CullingParametersPK4AABBjj
y6a:__ZN6Camera28DefaultPerformRenderFunctionclEPS_13RenderingPathP11CullResults
yaj:_Vector3_get_down_m2372302126
hq:__ZN4AABB8TransferI14SafeBinaryReadEEvRT_
KFh:__ZL86Object_t1021602117_CustomAttributesCacheGenerator_Object_FindObjectsOfType_m2121813744P21CustomAttributesCache
QWg:__Z79RuntimeInvoker_RuntimeObject_SByte_t454417549_SByte_t454417549_SByte_t454417549PFvvEPK10MethodInfoPvPS4_
mNc:__ZN16PhysicsManager2D26GetGameObjectForRaycastHitERK12RaycastHit2D
MEg:_PlayerConnection_ConnectedCallbackInternal_m2685675347
tBe:_Int16_System_IConvertible_ToDecimal_m2010889121_AdjustorThunk
uie:_Array_InternalArray__ICollection_Remove_TisPlayableBinding_t2498078091_m2632165671_gshared
Lxb:__ZN18StreamedBinaryReadILb0EE21TransferSTLStyleArrayI13dynamic_arrayI12LightmapDataLj4EEEEvRT_17TransferMetaFlags
Ipc:__Z49Register_UnityEngine_MonoBehaviour_StartCoroutinev
alb:__Z11MD5ToStringPh
MRe:_Enumerator_MoveNext_m2625246500_AdjustorThunk
goc:__Z38Input_Get_Custom_PropCompositionStringv
fkg:_UTF8Encoding_GetPreamble_m4179999478
TIg:_Quaternion_get_identity_m1561886418
FEg:_ConnectionChangeEvent__ctor_m616483304
Bgj:_GhostMove_Scatter_m3540611723
$J:__ZN7mecanim12statemachine18TransitionConstant8TransferI19StreamedBinaryWriteILb0EEEEvRT_
_zj:__ZN6il2cpp2vm5Class19GetArrayElementSizeEPK11Il2CppClass
I0c:_cf2_builder_moveTo
Tsg:_ValueType_InternalEquals_m4068150072
E1:__ZN9JSONWrite8TransferIN4core12basic_stringIcNS1_20StringStorageDefaultIcEEEEEEvRT_PKc17TransferMetaFlags
ujg:_UTF7Encoding_GetByteCount_m253528135
nAd:_PointerInputModule_CopyFromTo_m2185451090
mOc:__ZN24b2ChainAndPolygonContact6CreateEP9b2FixtureiS1_iP16b2BlockAllocator
VGe:_FileNotFoundException_GetObjectData_m3405690481
Pjk:__ZNSt3__212basic_stringIcNS_11char_traitsIcEENS_9allocatorIcEEE6resizeEjc
YGb:__ZN14PlayerSettings16CheckConsistencyEv
m_:__ZN11AudioModule30GetOrCreateDSPFromCustomFilterEP17AudioCustomFilter
b1a:__ZN19AtomicPageAllocatorD2Ev
Dn:FUNCTION_TABLE_viiiiiiiiiiiiii
$Zj:__ZN6il2cpp6icalls8mscorlib6System13GlobalizationL20culture_lcid_locatorEPKvS5_
e9e:_Collection_1_Add_m3182287887_gshared
Azd:_PointerEventData_set_useDragThreshold_m2778439880
pvb:__ZNK12CubemapArray16ExtractImageImplEP14ImageReferenceNS0_8BlitModeEbi
Hpc:__Z63Register_UnityEngine_MonoBehaviour_StartCoroutine_Auto_Internalv
Ehc:__ZN10systeminfo24GetSystemLanguageCultureEi
sig:_StringBuilder_Append_m3618697540
FMc:__ZN16CircleCollider2D5ResetEv
Eji:_ScrollRect_get_normalizedPosition_m1640825682
wpd:_SecurityElement_IsValidAttributeName_m2201790420
iHb:__ZN10VRSettings8TransferI14SafeBinaryReadEEvRT_
Apg:_UInt16_System_IConvertible_ToDecimal_m984067306_AdjustorThunk
F7i:_Texture2D_INTERNAL_CALL_GetPixelBilinear_m570286059
LXc:_UNITY_FT_Outline_Get_CBox
$Qb:__Z22TransferField_NonArrayI17RemapPPtrTransfer27Converter_SimpleNativeClassI8GradientEEvRK23StaticTransferFieldInfoR31RuntimeSerializationCommandInfoRT0_
Tne:_Array_InternalArray__ICollection_Add_TisUInt16_t986882611_m2791161149_gshared
ka:invoke_viifiiii
R0h:_Enumerator_Reset_m3115320746_gshared
Ixe:_NumberFormatter_FormatDecimal_m1435371940
lnf:_SimpleCollator_GetTailContraction_m1037943844
Akd:_RC2CryptoServiceProvider_CreateEncryptor_m252199767
Dmj:_U3CStartU3Ec__Iterator0_MoveNext_m2339115502_gshared
C2g:__Z165RuntimeInvoker_Void_t1841601450_RuntimeObject_Int32_t2071877448_Int32_t2071877448_RuntimeObject_Int32_t2071877448_Single_t2076509932_Single_t2076509932_RuntimeObjectPFvvEPK10MethodInfoPvPS4_
E1a:__ZN22PerThreadPageAllocator14AcquireNewPageEj
KZ:__ZN24AudioScriptBufferManager15DidReloadDomainEv
axi:_AudioClipPlayable_Seek_m2908742681
e8a:__ZN6Camera13ClearNoSkyboxEb
HDe:_Int64_System_IConvertible_ToInt64_m989981560_AdjustorThunk
yZe:_List_1_CheckIndex_m2576265846_gshared
E4g:__Z110RuntimeInvoker_Boolean_t3825574718_Vector2_t2243707579_Vector2_t2243707579_Single_t2076509932_SByte_t454417549PFvvEPK10MethodInfoPvPS4_
zKg:_Rect_GetHashCode_m559954498
nvi:_Application_CallLowMemory_m626389230
QCj:__ZNK15dense_hashtableI10KeyWrapperIPK17Il2CppGenericInstES4_N6il2cpp8metadata21Il2CppGenericInstHashEN14dense_hash_setIS4_S7_NS4_14EqualsComparerINS6_24Il2CppGenericInstCompareEEENSt3__29allocatorIS4_EEE8IdentityESB_SE_E12test_deletedEj
JRd:_Array_combsort_m2486643569
Bga:__ZNSt3__27__sort5IR17CompareInstanceIDPP6ObjectEEjT0_S6_S6_S6_S6_T_
Xpb:__ZNSt3__26vectorI17SortingLayerEntryNS_9allocatorIS1_EEE12__move_rangeEPS1_S5_S5_
$ai:_DefaultComparer_Equals_m145577182_gshared
VLa:__ZN18GfxFramebufferGLES10InvalidateEv
Wvf:_SmallXmlParser_SkipWhitespaces_m2923234398
aae:_Decimal_System_IConvertible_ToSingle_m1736019752_AdjustorThunk
VOa:__ZN4crnd11crnd_deleteINS_13prefix_coding14decoder_tablesEEEvPT_
W7i:_TouchScreenKeyboard_Open_m2760130151
t7:__ZN10MemoryPoolD2Ev
eu:__ZN17AnimationCurveTplI11QuaternionfE8TransferI14SafeBinaryReadEEvRT_
Uuc:__ZNSt3__26__treeINS_12__value_typeIN4core12basic_stringIcNS2_20StringStorageDefaultIcEEEEN5IMGUI12NamedControlEEENS_19__map_value_compareIS6_S9_NS_4lessIS6_EELb1EEENS_9allocatorIS9_EEE7destroyEPNS_11__tree_nodeIS9_PvEE
yIf:_SslClientStream_get_SelectedClientCertificate_m1580018944
$2d:_DateTime_FromTicks_m75527956
frf:_KeyGeneratedEventHandler_Invoke_m4220935979
okg:_CompressedStack_Capture_m179370023
Ebe:_DebuggerTypeProxyAttribute__ctor_m3082078467
Eie:_Array_InternalArray__ICollection_Remove_TisVector3_t2243707580_m3881497481_gshared
zik:___mmap
hjc:__ZN9Scripting26RaiseArgumentNullExceptionEPKc
B6:__ZL18InternalLogConsolePKcz
rhk:_lseek
gZe:_List_1_System_Collections_IList_set_Item_m2267202349_gshared
Cge:_Array_InternalArray__ICollection_Contains_TisChar_t3454481338_m1444673620_gshared
w9e:_Collection_1_ConvertItem_m2972284337_gshared
Hba:__Z37scripting_method_get_nth_argumenttype18ScriptingMethodPtri
DW:__ZN11AudioSource16UpdatePauseStateEv
iga:__ZL52StaticUnregisterSceneLoadedCallback_LightmapSettingsPv
FA:__ZN7mecanim5human25HumanPoseAddAdditiveLayerERNS0_9HumanPoseERKS1_fRKNS_6bitsetILj70EEE
Jpc:__Z48Register_UnityEngine_MonoBehaviour_StopCoroutinev
qKd:_HorizontalOrVerticalLayoutGroup_set_childForceExpandWidth_m1140293254
efk:__ZN6il2cpp5utils25NativeDelegateMethodCache17AddNativeDelegateEPFvvEPK10MethodInfo
GLf:_NameObjectCollectionBase_BaseAdd_m964300824
Hge:_Array_InternalArray__ICollection_Contains_TisKeyValuePair_2_t1174980068_m650645929_gshared
p7a:__ZN27DeviceViewProjMatricesStateD2Ev
Fld:_RNGCryptoServiceProvider_RngOpen_m2238023214
eyi:_Bounds__ctor_m1202659404_AdjustorThunk
u5f:_CustomAttributeData_GetCustomAttributes_m4124612360
pRb:__Z18Transfer_BlittableI24GenerateTypeTreeTransferLb0E8Vector3fEvRK29SerializationCommandArgumentsR31RuntimeSerializationCommandInfo
Y_j:__ZN15dense_hashtableINSt3__24pairIK10KeyWrapperINS1_IPKcS4_EEEiEES6_24NamespaceAndNamePairHashN14dense_hash_mapIS6_iS9_NS6_14EqualsComparerI26NamespaceAndNamePairEqualsEENS0_9allocatorIS8_EEE9SelectKeyESD_SF_E14squash_deletedEv
kTc:__ZNK13TextRendering4Font22GetTypeVirtualInternalEv
sVj:__ZN6il2cpp2vm6Thread16RequestInterruptEP12Il2CppThread
nKf:_TlsStream_get_Position_m3551173234
xWi:_LeaseManager_SetPollTime_m3137304074
Q_d:_Hashtable_CalcPrime_m1835281409
f:HEAPU32
FCa:__ZN6prcoreL10inner_flipILj2EEEvPhS1_j
Gag:_TypeBuilder_has_ctor_method_m3449702467
pBc:__ZN9JSONWrite8TransferIbEEvRT_PKc17TransferMetaFlags
dRd:_Array_CreateInstance_m679102425
Jmb:__ZN12TLSAllocatorI14StackAllocatorED0Ev
$Ti:_GCHandle_GetTarget_m2056570211
hGb:__ZN11TimeManager16CheckConsistencyEv
K4a:__ZN21GfxDeviceAsyncCommand10ArgScratch15ThreadedCleanupEv
WLc:__ZN10ClipperLib14IntersectPointERNS_5TEdgeES1_RNS_8IntPointE
Xmf:_MSCompatUnicodeTable_IsJapaneseSmallLetter_m2541532635
qxf:_BigInteger_GenerateRandom_m1878468830
QQb:__ZN12NativeBufferI27Converter_UnityEngineObjectE15SetupForWritingER9ArrayInfo
TId:_Graphic_UpdateGeometry_m2431537946
Ce:_glTexImage3D
H_:__Z20RegisterModule_Audiov
_Cf:_TlsCipherSuite__ctor_m2983563913
_ta:__ZNSt3__26vectorINS_4pairI11ShaderTagIDS2_EENS_9allocatorIS3_EEE6insertENS_11__wrap_iterIPKS3_EERS8_
_1j:__ZN6il2cpp2vm6Object13UnboxNullableEP12Il2CppObjectP11Il2CppClassPv
Le:_JS_SystemInfo_GetCurrentCanvasWidth
bhf:_ReadOnlyCollection_1_System_Collections_IList_Remove_m2668898250_gshared
Jic:__ZL34GetComponentsImplementationRecurseILb1ELi0ELi1EEbR10GameObjectbRK17CompareParametersRK39GetComponentsImplementation_ReturnValue
HDg:_Mesh_SetColors_m3438776703
GXj:__ZN6il2cpp2vm14PlatformInvoke30MarshalCSharpStringToCppStringEP12Il2CppString
I1j:__ZN6il2cpp2vm5Field10IsInstanceEP9FieldInfo
yog:_Type_GetTypeHandle_m2405042843
XEg:_UnityWebRequest_InternalCreate_m2618341326
BHb:__ZN10VRSettings8TransferI18StreamedBinaryReadILb0EEEEvRT_
Kz:__ZN22AnimationMixerPlayable12MixerProcessEP35AnimationPlayableEvaluationConstantP32AnimationPlayableEvaluationInputP33AnimationPlayableEvaluationOutputM17AnimationPlayableFvS1_S3_S5_EPFvS1_S3_S5_ESA_PFvS5_S1_S3_S5_PN7mecanim16ValueArrayWeightEfEPFvS1_S3_S5_SD_fE
uKi:_InternalEnumerator_1_System_Collections_IEnumerator_get_Current_m1322273508_AdjustorThunk
Nvd:_DecoderFallbackException__ctor_m3081822699
gEe:_Int64_TryParse_m3093198325
XXg:__Z145RuntimeInvoker_Void_t1841601450_RuntimeObject_RuntimeObject_RuntimeObject_Int32_t2071877448_Int32_t2071877448_Int32_t2071877448_Int32_t2071877448PFvvEPK10MethodInfoPvPS4_
UGj:__ZN6il2cpp2vm10ThreadPool5QueueEP14Il2CppDelegatePPvS3_P12Il2CppObject
BUb:__Z19TransferField_ArrayI19StreamedBinaryWriteILb0EE27Converter_SimpleNativeClassI8GradientEEvRK23StaticTransferFieldInfoR31RuntimeSerializationCommandInfoRT0_
QGe:_FileLoadException_ToString_m319701103
fJe:_NullStream_Seek_m1809916110
XIc:__ZNK12b2WheelJoint16GetReactionForceEf
Xae:_Delegate_SetMulticastInvoke_m361277268
Lwd:_BaseInput_GetMouseButtonUp_m32571233
Dgg:_EncoderReplacementFallbackBuffer_get_Remaining_m2777488845
LAb:__ZN7SubMesh8TransferI18StreamedBinaryReadILb0EEEEvRT_
Zjg:_UTF8Encoding_GetCharCount_m3557355060
_Ji:_InternalEnumerator_1_System_Collections_IEnumerator_get_Current_m127456009_gshared
qf:_emscripten_glIsEnabled
rWb:__ZN18StreamedBinaryReadILb1EE21TransferSTLStyleArrayI13dynamic_arrayIdLj8EEEEvRT_17TransferMetaFlags
qnc:__Z45Register_UnityEngine_GameObject_get_transformv
Qaa:__Z29scripting_class_instance_size17ScriptingClassPtr
lJc:__ZN7b2World12DestroyJointEP7b2Joint
Cwj:_Func_2_Invoke_m2929712329_gshared
_If:_SslHandshakeHash_initializePad_m4132246594
Hc:invoke_iiiiiiiii
_Wi:_Context_get_HasExitSinks_m1233814330
Y3:__ZN11UnityEngine15CloudWebService19SessionEventManager26ProcessEventQueueJobStaticEPv
J0i:_AnchorInfo_get_IsUnknownWidth_m3747592836
PEb:__ZL19SpriteMeshExtractorPv17ShaderChannelMaskiR11MeshBuffersR16DrawBuffersRangeRiS5_
R6g:__Z99RuntimeInvoker_Void_t1841601450_Int32_t2071877448_Int32_t2071877448_Int32_t2071877448_RuntimeObjectPFvvEPK10MethodInfoPvPS4_
q4:__ZN11UnityEngine15CloudWebService19SessionEventManager37OnTimerExpiredPerformArchiveJobStaticEPv
FC:__ZN23AnimationPlayableOutputC2EjP13PlayableGraph
E7i:_Texture2D_GetPixelBilinear_m3063031185
ggk:__ZN6il2cpp6icalls8mscorlib6System10Reflection4Emit11DerivedType21create_unmanaged_typeEP20Il2CppReflectionType
vM:__ZN7mecanim12statemachine13GetStateIndexEPKNS0_20StateMachineConstantEj
c_f:_FormatterConverter_ToInt32_m1004171952
iQd:_Array_System_Collections_IList_set_Item_m4290470392
IYf:_RemotingConfiguration_RegisterActivatedServiceType_m4003543022
zrc:__Z39Register_UnityEngine_Sprite_get_texturev
qWi:_ConfigHandler_GetNotNull_m2454680251
Axj:__ZL10rescale128PyS_Piiiii
ZQ:__ZN9AudioClip7WWWSeekEPvjS0_
ihe:_Array_InternalArray__ICollection_Contains_TisUInt32_t2149682021_m672455245_gshared
hsg:_UIntPtr_System_Runtime_Serialization_ISerializable_GetObjectData_m3481735378
yea:__ZL32StaticInitializeIUnityInterfacesPv
j4a:__Z13CameraProjectRK8Vector3fRK10Matrix4x4fS4_RK5RectTIiERS_b
wJb:__ZN30RuntimeInitializeOnLoadManager15ClassMethodInfo8TransferI19StreamedBinaryWriteILb0EEEEvRT_
xfa:__Z22CreateMutexLockedStackv
t7d:_DateTime_System_IConvertible_ToType_m3821835592
gVf:_IntervalCollection_get_Item_m1667788970
vGa:__ZNSt3__27__sort5IRNS_4lessIN22BuiltinResourceManager8ResourceEEEPS3_EEjT0_S7_S7_S7_S7_T_
Jhg:_Latin1Encoding_GetByteCount_m2812921286
_$a:__ZN9ShaderLab11ShaderStateD2Ev
K9d:_Decimal_System_IConvertible_ToByte_m3432160840
c4c:_Ins_DELTAP
Chg:_UTF7Encoding__ctor_m1941256679
VKb:__Z23TransferScriptingObjectI24GenerateTypeTreeTransferEvRT_18ScriptingObjectPtr17ScriptingClassPtrPK15MonoScriptCache
f_f:_BinaryCommon__cctor_m3619690968
sej:_X509Chain_FindCertificateRoot_m589250107
XI:__ZN7mecanim10ValueArray8TransferI24GenerateTypeTreeTransferEEvRT_
hUb:__ZL17Transfer_GUIStyleI19StreamedBinaryWriteILb0EELb0EEvRK29SerializationCommandArgumentsR31RuntimeSerializationCommandInfo
n9i:_UnityString_Format_m2949645127
w_d:_Comparer_GetObjectData_m3370677985
fmj:_UnityEvent_4_GetDelegate_m2704961864_gshared
iZa:__ZNK12HandlerChain6TargetERK13FileEntryDataR15FileSystemEntry
Jgg:_Encoding__ctor_m3985582722
$_f:_ObjectManager_RaiseOnDeserializingEvent_m1841526046
Gud:_String_CreateString_m560359261
xYc:_UNITY_FT_Init_Class_tt_service_get_cmap_info
_2f:_DSA_ToXmlString_m1014346120
Dgk:___shlim
Zmd:_SHA256Managed__ctor_m1410575277
qJc:__ZN16b2BlockAllocator4FreeEPvi
xfe:_CompareInfo_internal_index_managed_m859405335
rTd:_Boolean_System_IConvertible_ToDateTime_m2613818037_AdjustorThunk
YFj:__ZNSt3__211__tree_nextIPNS_16__tree_node_baseIPvEEEET_S5_
Hif:_ReadOnlyCollection_1_System_Collections_IList_Clear_m2240307498_gshared
B$j:__ZN15dense_hashtableI10KeyWrapperIP18Il2CppGenericClassES3_N6il2cpp8metadata22Il2CppGenericClassHashEN14dense_hash_setIS3_S6_NS3_14EqualsComparerINS5_25Il2CppGenericClassCompareEEENSt3__29allocatorIS3_EEE8IdentityESA_SD_E14squash_deletedEv
k2j:__ZN6il2cpp2vm11MethodStack17GetStackFramesRawEv
rya:__ZN6prcoreL17RemapGenericFloatI17TexFormatRGBAHalf17TexFormatRGBFloatEEvPKNS_9InnerInfoE
r_f:_BinaryFormatter_NoCheckDeserialize_m1968202401
jJd:_Graphic_CrossFadeAlpha_m4067047552
$4g:__Z92RuntimeInvoker_Void_t1841601450_RuntimeObject_RuntimeObject_Color32_t874517518_RuntimeObjectPFvvEPK10MethodInfoPvPS4_
mrc:__Z35Sprite_Get_Custom_PropPixelsPerUnitP12Il2CppObject
EPg:__Z116RuntimeInvoker_RuntimeObject_RuntimeObject_Int32_t2071877448_RuntimeObject_RuntimeObject_RuntimeObject_RuntimeObjectPFvvEPK10MethodInfoPvPS4_
nFc:__ZN9rapidjson12PrettyWriterI16TempBufferWriterNS_4UTF8IcEES3_13JSONAllocatorE10StartArrayEv
SCj:__ZNSt3__26__sortIRN6il2cpp5utils11collections13ArrayValueMapIPK10Il2CppType17Il2CppInteropData26InteropDataToTypeConverterNS1_8metadata14Il2CppTypeLessENSA_26Il2CppTypeEqualityComparerEE12SortComparerEPS8_EEvT0_SH_T_
ELb:__ZN11PreloadDataD2Ev
Qgd:__ZN15DownloadHandler14ProcessHeadersERK9HeaderMap
hRc:__ZZN10Collider2D15InitializeClassEvEN38FunctorImpl_104kCompositeColliderAdded4CallEPviR11MessageData
ic:invoke_iifi
eRc:__ZZN10Collider2D15InitializeClassEvEN31FunctorImpl_101kDidAddComponent4CallEPviR11MessageData
Yha:__ZZN15DirectorManager15InitializeClassEvEN44PostLateUpdateDirectorRenderImageRegistrator7ForwardEv
Njh:__ZL79Hashtable_t909839986_CustomAttributesCacheGenerator_Hashtable__ctor_m3742489710P21CustomAttributesCache
$Hc:__ZNK16b2PrismaticJoint16GetReactionForceEf
_Cg:_Mesh__ctor_m2975981674
Kni:_VertexHelper_AddUIVertexStream_m3599763288
wCg:_Mathf_Abs_m1942863256
zci:_EqualityComparer_1_System_Collections_IEqualityComparer_Equals_m1565968086_gshared
Hqe:_Array_InternalArray__set_Item_TisSlot_t2022531261_m3811041838_gshared
TDa:__ZN15SharedLightData15UpdateTransformERK9Transform
Wkd:_RijndaelTransform__cctor_m1393306207
GId:_Graphic_get_defaultMaterial_m1022773737
a0c:_UNITY_FT_Init_Class_pscmaps_interface
xli:_Slider_OnDidApplyAnimationProperties_m3202463395
U$g:__Z146RuntimeInvoker_Void_t1841601450_Vector2_t2243707579_Vector2_t2243707579_Single_t2076509932_ContactFilter2D_t1672660996_RaycastHit2DU26_t4207306570PFvvEPK10MethodInfoPvPS4_
Xvd:_EncoderExceptionFallback__ctor_m3203614411
bu:__ZNSt3__26vectorI24CompressedAnimationCurve13stl_allocatorIS1_L18MemLabelIdentifier25ELi16EEE10deallocateEv
cKd:_GridLayoutGroup_SetLayoutVertical_m3233681648
Tmc:__Z44Register_UnityEngine_RectOffset_get_verticalv
$og:_Type_MakeGenericType_m973683242
Jek:__ZN6il2cpp2vm9LastError31InitializeLastErrorThreadStaticEv
i9b:__ZN13ProduceHelperI13RenderTextureLb0EE7ProduceE18MemLabelIdentifier18ObjectCreationMode
pEe:_Int64_ToString_m2785525583
nU:__ZN4FMOD6System17setSoftwareFormatEi17FMOD_SOUND_FORMATii18FMOD_DSP_RESAMPLER
L8f:_FieldBuilder_GetCustomAttributes_m291168515
zxi:_AudioPlayableOutput_INTERNAL_CALL_InternalSetTarget_m3274611424
Xdg:_MonoGenericCMethod__ctor_m2520666358
mh:_JS_SystemInfo_GetCurrentCanvasHeight
SGg:_AudioPlayableGraphExtensions_InternalCreateAudioOutput_m433444197
EHi:_InternalEnumerator_1_System_Collections_IEnumerator_get_Current_m1313308902_gshared
NWf:_ReturnMessage_get_OutArgs_m299904174
Pta:__ZNK8Material22GetTypeVirtualInternalEv
Lwc:__Z34GUIStyle_Get_Custom_PropFixedWidthP12Il2CppObject
mtf:_RSAManaged_get_PublicOnly_m2603845138
_9d:_Decimal_System_IConvertible_ToSByte_m3745141000_AdjustorThunk
z4j:__ZN6il2cpp2gc16GarbageCollector11GetWeakLinkEPPv
ENe:_MonoType_GetMethods_m353342170
PLg:__Z108RuntimeInvoker_Boolean_t3825574718_SByte_t454417549_RuntimeObject_Int32_t2071877448_ExceptionU26_t1467204777PFvvEPK10MethodInfoPvPS4_
X2j:__GLOBAL__sub_I_Console_cpp
hya:__ZN6prcoreL17RemapGenericFloatI14TexFormatRHalf17TexFormatRGBAHalfEEvPKNS_9InnerInfoE
SIj:__ZN6il2cpp2vm7Runtime11InvokeArrayEPK10MethodInfoPvP11Il2CppArrayPP15Il2CppException
mO:__Z71AnimatorControllerPlayable_CUSTOM_INTERNAL_CALL_PlayInFixedTimeInternalR9HPlayableiif
hze:_GregorianCalendar_get_Eras_m4010603022
wde:_Enum_System_IConvertible_ToUInt16_m1001858842
p8h:_Dictionary_2_make_pair_m394533803_gshared
g4c:_Dual_Project
tKa:__ZN9GfxDevice15BeginFrameStatsEv
RRa:__ZN4gles20EnsureTextureCreatedEP7ApiGLESP17RenderSurfaceGLES
XPd:_LayoutRebuilder_U3CRebuildU3Em__2_m3239837417
$4a:__ZN15ReplacementPass13PrepareSubsetEjRK10RenderNodeifRK17ShaderReplaceData
$9d:_Decimal_System_IConvertible_ToSingle_m1736019752
UU:__Z32AudioMeasurement_GetTimeConstantff
c5j:__ZN6il2cpp2os6Thread10RunWrapperEPv
n5j:__ZN6il2cpp8metadata11FieldLayout12LayoutFieldsEjjjRKNSt3__26vectorIPK10Il2CppTypeNS2_9allocatorIS6_EEEERNS1_15FieldLayoutDataE
KPh:__ZL54ContextMenu_t2283362202_CustomAttributesCacheGeneratorP21CustomAttributesCache
Jcb:__ZL27PrepareSceneNodesJobCombineP25ScheduleSceneNodesJobData
PHe:_Stream_EndWrite_m263497992
AWd:_Char_Parse_m2121403806
sHa:__ZN13GfxDeviceGLESD2Ev
Zga:__ZN18AsyncUploadManager13StaticDestroyEPv
W7f:_EnumBuilder_GetConstructorImpl_m331611313
TZb:__ZN6Shader7SetNameEPKc
Nja:__ZN14dense_hash_mapIN4core12basic_stringIcNS0_20StringStorageDefaultIcEEEE13dynamic_arrayI4PPtrI6SpriteELj4EE20StringHash32FunctionIS4_ENSt3__28equal_toIS4_EE13stl_allocatorINSC_4pairIKS4_S9_EEL18MemLabelIdentifier79ELi16EEE13set_empty_keyERSH_
KFd:_DefaultControls_SetParentAndAlign_m3048898502
bib:__ZN19CustomRenderTexture22HandleBoundaryWrappingERKNS_14UpdateZoneInfoEj
UFj:__ZN6il2cpp2vm13MetadataCache32GenerateCustomAttributeTypeCacheEi
H0j:__ZNK15dense_hashtableINSt3__24pairIK10KeyWrapperIP12Il2CppObjectEN6il2cpp2gc9CachedCCWEEES5_NS7_5utils11PointerHashIS3_EEN14dense_hash_mapIS5_S9_SD_NS5_14EqualsComparerINS0_8equal_toIS4_EEEENS0_9allocatorISA_EEE9SelectKeyESI_SK_E3endEv
$Rf:_X509Chain__cctor_m826131835
gSd:_ArrayTypeMismatchException__ctor_m1923871345
v2f:_CspParameters__ctor_m3051314030
Vri:_AnimatorControllerPlayable_ResetTrigger_m758725835
l4c:_Direct_Move_Y
j4c:_Direct_Move_X
iRf:_X509ChainElement_Set_m2634474339
xDi:_Event_get_isKey_m1145918225
nTd:_Boolean_System_IConvertible_ToByte_m1443044213_AdjustorThunk
Hi:_glClearDepthf
Y8b:__ZN19SkinnedMeshRenderer7GetMeshEv
i4b:__ZN19RuntimeSceneManager14GetActiveSceneEv
yJ:__ZN18StreamedBinaryReadILb0EE21TransferSTLStyleArrayI22OffsetPtrArrayTransferI9OffsetPtrIN7mecanim12statemachine13StateConstantEEEEEvRT_17TransferMetaFlags
pIj:__ZN6il2cpp6icalls8mscorlib6SystemL8IsStaticEPK9EventInfo
Cmc:__Z29RectOffset_Set_Custom_PropTopP12Il2CppObjecti
Fsc:__Z57Register_UnityEngine_Transform_INTERNAL_get_localPositionv
ebb:__ZNSt3__27__sort4IR15ReflProbeSorterPP15ReflectionProbeEEjT0_S6_S6_S6_T_
Xof:_BigInteger_op_Equality_m366854173
Krb:__ZN16GraphicsSettings10SmartResetEv
Dec:__ZN19StreamedBinaryWriteILb0EE4InitE24TransferInstructionFlags20BuildTargetSelection
lfi:_MaskableGraphic_Cull_m3130802047
cAi:_CanvasRenderer_Clear_m2419751129
xkc:__Z40Register_UnityEngine_Application_OpenURLv
JHf:_RecordProtocol_MapV2CipherCode_m4064211604
dvd:_ASCIIEncoding_GetByteCount_m2696039881
wHf:_ReceiveRecordAsyncResult_SetComplete_m2441107665
iAi:_CanvasRenderer_AddUIVertexStream_m1988414477
ttb:__ZN20SphericalHarmonicsL28TransferI19StreamedBinaryWriteILb0EEEEvRT_
WDd:_CanvasUpdateRegistry_InternalUnRegisterCanvasElementForLayoutRebuild_m3740187734
J7b:__ZNK28RectTransformPropertyBinding9BindValueER6ObjectRKN11UnityEngine9Animation14GenericBindingERNS3_10BoundCurveE
q7f:_DerivedType_get_AssemblyQualifiedName_m2010127631
ADb:__ZN4Mesh14UploadMeshDataEb
KLi:_InternalEnumerator_1_System_Collections_IEnumerator_get_Current_m4023948615_AdjustorThunk
ybb:__ZN14qsort_internal5QSortIP16RenderObjectDatai25RenderPrePassObjectSorterEEvT_S4_T0_T1_
Qwf:_ArgIterator_Equals_m2415994310
RYg:__Z85RuntimeInvoker_Char_t3454481338_RuntimeObject_Int32U26_t455636984_CharU26_t1894467670PFvvEPK10MethodInfoPvPS4_
m9b:__ZN14RenderSettings12CleanupClassEv
vrc:__Z43DataUtility_CUSTOM_INTERNAL_CALL_GetPaddingP12Il2CppObjectR8Vector4f
rPa:__ZN18AsyncUploadManager15DoDeCruncherJobEP26FileAssetUploadInstruction
eKa:__ZN9GfxDevice15ImmediateNormalEfff
Hgg:_EncoderReplacementFallbackBuffer_GetNextChar_m1811006007
k4i:_Vector2__ctor_m3067419446
Ngb:__ZN15SerializeTraitsI13dynamic_arrayIN10GameObject13ComponentPairELj4EEE19ResizeSTLStyleArrayERS3_i18MemLabelIdentifier
ySb:__ZN13GUIStyleState8TransferI24GenerateTypeTreeTransferEEvRT_
Jca:__ZN20dynamic_block_vectorI14FileIdentifierE22push_back_no_constructEv
Nsk:_emscripten_glGetActiveAttrib__wrapper
mCa:__ZN9Texture3D23VirtualRedirectTransferER14SafeBinaryRead
uig:_StringBuilder_Append_m1462406979
A$b:__ZNSt3__26vectorIN9ShaderLab20SerializedSubProgram16TextureParameterENS_9allocatorIS3_EEE8__appendEj
Owb:__ZN9Texture2D13UploadTextureEi
mhg:_Type_GetType_m773255995
aRa:__ZN7ApiGLES9MapBufferEjN2gl12BufferTargetEllj
qgi:_RawImage__ctor_m527845386
oU:__ZN4FMOD6System19setSoftwareChannelsEi
Xqe:_Array_InternalArray__set_Item_TisResourceCacheItem_t333236149_m2074358118_gshared
X1h:_Enumerator_MoveNext_m3349738440_gshared
MPf:_X500DistinguishedName_DecodeRawData_m3640767187
Pge:_Array_InternalArray__ICollection_Contains_TisDouble_t4078015681_m2262383923_gshared
UTd:_Boolean_System_IConvertible_ToUInt64_m3594533761
D7g:__Z85RuntimeInvoker_Boolean_t3825574718_SpriteStateU26_t1330646292_SpriteState_t1353336012PFvvEPK10MethodInfoPvPS4_
Aoc:__Z60Register_UnityEngine_Input_INTERNAL_set_compositionCursorPosv
qHh:__ZL51Collider_t3497673348_CustomAttributesCacheGeneratorP21CustomAttributesCache
Zwg:_GUISettings_Internal_GetCursorFlashSpeed_m3799968572
Bof:_BigInteger_get_Rng_m1268152318
Dmk:dynCall_viiiii
Imk:dynCall_viiiif
vdg:_MonoEvent_IsDefined_m3151861274
pNc:__ZN16PhysicsManager2D19ApplyParticleForcesER13dynamic_arrayI21BatchedColliderResultLj4EE
h$c:_Cubic_To
qP:__Z85Register_UnityEngine_Animations_AnimatorControllerPlayable_INTERNAL_CALL_SetTriggerIDv
skc:__Z37Register_UnityEngine_Application_Quitv
DDf:_TlsStream_WriteInt24_m1660453494
Alc:__Z44Register_UnityEngine_Camera_get_farClipPlanev
NZ:__ZNK12AudioManager15GetDSPBlockSizeEv
DIb:__ZNK17IAnimationBinding30CurveAttributeToSerializedPathERKN11UnityEngine9Animation10BoundCurveE
A3g:__Z87RuntimeInvoker_Color_t2020392075_Color_t2020392075_Color_t2020392075_Single_t2076509932PFvvEPK10MethodInfoPvPS4_
a1j:__ZN6il2cpp2gc16GarbageCollector14GetOrCreateCCWEP12Il2CppObjectRK10Il2CppGuid
e$j:__ZN6il2cpp2vm5Image21FromTypeNameParseInfoEPK11Il2CppImageRKNS0_17TypeNameParseInfoEb
kNa:__ZN17BufferManagerGLES13AcquireBufferEjN14DataBufferGLES11BufferUsageEb
E1d:_Console_OpenStandardError_m3676373108
ILe:_UnmanagedMemoryStream_SetLength_m1805321486
HEf:_Context_get_ProtocolNegotiated_m624488778
dXe:_List_1_System_Collections_IList_IndexOf_m1671340024_gshared
aSd:_SimpleEnumerator_MoveNext_m1696906961
Ued:__ZN16UnityAdsSettingsD0Ev
uFf:_Context_StartSwitchingSecurityParameters_m373522596
ffg:_MonoProperty_GetRequiredCustomModifiers_m576853384
J2i:_Uri_ParseAsWindowsAbsoluteFilePath_m1108586962
kme:_Array_InternalArray__IndexOf_TisInt16_t4041245914_m1619355230_gshared
U9j:_GC_push_marked
Gkk:__ZNK10__cxxabiv121__vmi_class_type_info16search_below_dstEPNS_19__dynamic_cast_infoEPKvib
wDe:_Int64_System_IConvertible_ToDateTime_m1002280174
y2d:_Convert_ToByte_m9159597
mej:_X509Store_BuildCertificatesCollection_m4224672591
wrc:__Z38DataUtility_CUSTOM_Internal_GetMinSizeP12Il2CppObjectP13Vector2fIcall
hdc:__ZN8PlayableC2E17ScriptingClassPtr18DirectorPlayerType
RSi:_ResourceEnumerator_get_Key_m1012797265
Nxe:_NumberFormatter_FormatPercent_m776769918
KJj:_il2cpp_class_has_attribute
Wwg:_GUISettings__ctor_m2453724887
hmg:_Scheduler_ShrinkIfNeeded_m2186823111
wBf:_Alert_get_IsCloseNotify_m577852330
kba:__Z27FindOrCreateMonoScriptCache17ScriptingClassPtr22InitScriptingCacheTypeP6Objecti
cs:__ZNK13AnimationClip17GetAnimationClipsEv
DRc:__Z23CleanupPhysicsManager2Dv
CXb:__Z18Transfer_BlittableI18StreamedBinaryReadILb0EELb1E8Vector3fEvRK29SerializationCommandArgumentsR31RuntimeSerializationCommandInfo
UAg:_GUIUtility__cctor_m46116445
t8c:__ZN2UI14CanvasRenderer13SyncVertexPtrER8JobFenceNS0_8SyncFlagE
Bba:__Z35scripting_method_get_argument_count18ScriptingMethodPtr
iFa:__ZN18AssetBundleManager18SortPreloadObjectsER13dynamic_arrayIiLj4EEb
wpg:_UInt16_System_IConvertible_ToChar_m4055364664_AdjustorThunk
Fnc:__Z20Gradient_CUSTOM_InitP12Il2CppObject
Jyc:__Z48Register_UnityEngine_GUIUtility_Internal_ExitGUIv
bTj:__ZN14dense_hash_mapI10KeyWrapperINSt3__24pairIPK9FieldInfoP11Il2CppClassEEEj17ReflectionMapHashIS8_ENS9_14EqualsComparerINS1_8equal_toIS8_EEEENS1_9allocatorINS2_IKS9_jEEEEE15set_deleted_keyERSH_
bHg:_Playable_GetPlayableType_m2389123558
Bdj:_X509Certificate_get_RawData_m1262574599
DUd:_Byte_System_IConvertible_ToDouble_m4224320007
Ncb:__ZL21CullDynamicObjectsJobP14CullingJobDataj
N6c:__ZN2UI15ClearCanvasDataER8JobFenceRNS_10CanvasDataE
CNc:__ZN15dense_hashtableINSt3__24pairIKNS1_IPK10Collider2DS4_EE11Collision2DEES5_NS2_23ColliderPairHashFunctorEN14dense_hash_mapIS5_S7_S9_NS0_8equal_toIS5_EE13stl_allocatorIS8_L18MemLabelIdentifier65ELi16EEE9SelectKeyESC_SF_ED2Ev
uNf:_IPAddress_ToString_m1462985652
iu:__ZNSt3__26vectorIN13AnimationClip15QuaternionCurveE13stl_allocatorIS2_L18MemLabelIdentifier25ELi16EEE7reserveEj
Wgf:_ReadOnlyCollection_1_System_Collections_ICollection_CopyTo_m318855319_gshared
jcg:_MethodBase_GetMethodFromHandleNoGenericCheck_m4274264088
j5h:_ValueCollection_System_Collections_Generic_ICollectionU3CTValueU3E_Clear_m3471385195_gshared
B1h:_Enumerator_get_CurrentKey_m1408186928_AdjustorThunk
Nib:__ZN14ManagerContext17InitializeClassesEv
Hfi:_MaskUtilities_GetRectMasksForClip_m1540508301
xfj:_GameGUINavigation_Start_m333556046
Wob:__ZN19StreamedBinaryWriteILb0EE21TransferSTLStyleArrayINSt3__26vectorI14ConstantStringNS2_9allocatorIS4_EEEEEEvRT_17TransferMetaFlags
ey:__ZN7mecanim5human20MaskHasRightFootGoalERKNS_6bitsetILj70EEE
fWb:__ZN18StreamedBinaryReadILb1EE21TransferSTLStyleArrayI31ArrayOfManagedObjectsTransfererEEvRT_17TransferMetaFlags
nUe:_List_1_System_Collections_IList_IndexOf_m406088260_gshared
xtg:_WeakReference_get_Target_m1672141897
gpf:_Kernel_DwordDivMod_m4066997639
O$c:_t1_hints_open
vXg:__Z68RuntimeInvoker_Boolean_t3825574718_DateTime_t693205669_RuntimeObjectPFvvEPK10MethodInfoPvPS4_
Jod:_X509Certificate_GetCertHash_m2299453268
_jd:_MD5CryptoServiceProvider__ctor_m457716966
Gge:_Array_InternalArray__ICollection_Contains_TisKeyValuePair_2_t888819835_m3819112676_gshared
U3i:_Transform_get_rotation_m1033555130
D4d:_Decimal_s64_m2965457432
Hfc:__Z18TransformPoints3x4RK10Matrix4x4fPK8Vector3fjPS2_ji
uhd:__ZN22UnityWebRequestManager21CreateUnityWebRequestEv
wxc:__Z38Register_UnityEngine_GUIStyle_InitCopyv
iT:__ZN4FMOD7Channel11getUserDataEPPv
OYc:_UNITY_tt_face_load_gasp
V5g:__Z150RuntimeInvoker_RuntimeObject_RuntimeObject_Int32_t2071877448_Int32_t2071877448_Int32_t2071877448_Int32_t2071877448_Int32_t2071877448_Int32_t2071877448PFvvEPK10MethodInfoPvPS4_
gif:_ReadOnlyCollection_1_System_Collections_IList_Insert_m3650067527_gshared
WRf:_X509Chain__ctor_m2243818698
dWc:_ft_ansi_stream_close
gm:_JS_Sound_SetPitch
kWh:__ZL69InputField_t1631627530_CustomAttributesCacheGenerator_m_TextComponentP21CustomAttributesCache
yKj:_il2cpp_runtime_invoke_convert_args
bEc:__Z19TransferField_ArrayI8JSONRead27Converter_SimpleNativeClassI10RectOffsetEEvRK23StaticTransferFieldInfoR31RuntimeSerializationCommandInfoRT0_
f0h:_Enumerator_get_CurrentKey_m447338908_AdjustorThunk
EDf:_Context_get_SecurityProtocol_m1600902905
CYj:__ZN6il2cpp6icalls8mscorlib6System2IO6MonoIO11GetFileStatEP12Il2CppStringPNS3_8FileStatEPi
PKa:__ZN9GfxDevice33InsertCustomMarkerCallbackAndDataEPFviPvEiS0_j
b5a:__ZNK9ShaderLab9IntShader6GetTagE11ShaderTagIDb
jab:__Z25CalculateShadowCasterCullbPK5PlaneRK10Matrix4x4fRK8Vector3fff9LightTypeS7_R16ShadowCasterCullPKb
UQc:__Z13RegisterClassI13BoxCollider2DEvv
eJj:_il2cpp_get_corlib
kjd:_HMAC_HashCore_m1869699062
Z3f:_Assembly_GetTypes_m1317253146
HBe:_Int16_System_IConvertible_ToType_m2901377575_AdjustorThunk
JDe:_Int64_System_IConvertible_ToSByte_m253213816_AdjustorThunk
n9c:__ZN2UI14CanvasRenderer11SetMaterialEP8Materiali
sAd:_MouseState_SetButtonState_m2329922363
BGe:_FileStream__ctor_m3815606687
j9j:_GC_freehblk
rxe:_NumberFormatter_NumberToString_m668979517
zlf:_ReadOnlyCollection_1_System_Collections_IList_Remove_m2507730234_gshared
O4h:_Enumerator_System_Collections_IEnumerator_Reset_m2482663638_gshared
Vic:__ZN9Scripting35DestroyObjectFromScriptingImmediateEP6Objectb
Hdb:__ZNK6Camera48AreVRStereoViewMatricesWithinSingleCullToleranceEv
THh:__ZL53Rigidbody2D_t502193897_CustomAttributesCacheGeneratorP21CustomAttributesCache
ZXf:_RemotingServices_GetRemoteObject_m3663391550
t$:__Z64AudioMixerPlayable_CUSTOM_INTERNAL_CALL_SetAutoNormalizeInternalR9HPlayableh
x4e:_Queue_1_Peek_m1224538505_gshared
wSg:__Z105RuntimeInvoker_RuntimeObject_Int32_t2071877448_RuntimeObject_RuntimeObject_RuntimeObject_SByte_t454417549PFvvEPK10MethodInfoPvPS4_
m5c:__ZN20TextRenderingPrivate22ScriptingTextGenerator9InitVertsEi
ome:_Array_InternalArray__IndexOf_TisRuntimeObject_m2440219229_gshared
Dc:invoke_iiiiiiiiiiiiiii
Myf:_ASN1_Add_m1528660622
Mvk:_emscripten_glIsRenderbuffer__wrapper
KAj:__ZN15dense_hashtableINSt3__24pairIK10KeyWrapperIPK11Il2CppClassEPKcEES6_N6il2cpp5utils11PointerHashIS3_EEN14dense_hash_mapIS6_S9_SE_NS6_14EqualsComparerINS0_8equal_toIS5_EEEENS0_9allocatorISA_EEE9SelectKeyESJ_SL_E9copy_fromERKSO_j
b7c:__ZN2UI11CanvasGroup8TransferI19StreamedBinaryWriteILb0EEEEvRT_
Ssb:__ZNK20IntermediateRenderer8GetLayerEv
JIj:__ZN6il2cpp5utils9PathUtils7CombineIcEENSt3__212basic_stringIT_NS3_11char_traitsIS5_EENS3_9allocatorIS5_EEEERKSA_RKNS0_10StringViewIS5_EE
rzb:__ZN15QualitySettings8TransferI14SafeBinaryReadEEvRT_
CAj:__ZN14dense_hash_mapI10KeyWrapperIPK11Il2CppClassEPKcN6il2cpp5utils11PointerHashIS1_EENS4_14EqualsComparerINSt3__28equal_toIS3_EEEENSC_9allocatorINSC_4pairIKS4_S6_EEEEE13set_empty_keyERSI_
bPb:__ZN14SafeBinaryRead21TransferSTLStyleArrayI13dynamic_arrayIxLj8EEEEvRT_17TransferMetaFlags
tKe:_StringReader_CheckObjectDisposedException_m3099453260
YKf:_ListDictionary_System_Collections_IEnumerable_GetEnumerator_m2244736244
p$j:__ZNSt3__26vectorIN6il2cpp2vm5Image20EmbeddedResourceDataENS_9allocatorIS4_EEE21__push_back_slow_pathIS4_EEvOT_
oek:__ZN6il2cpp2os9FastMutexD2Ev
D5g:__Z97RuntimeInvoker_Void_t1841601450_SByte_t454417549_SByte_t454417549_Int32_t2071877448_RuntimeObjectPFvvEPK10MethodInfoPvPS4_
Jle:_Array_IndexOf_TisCustomAttributeTypedArgument_t1498197914_m3666284377_gshared
Ipf:_Kernel_AddSameSign_m2332657679
xaa:__ZN14SerializedFile10ReadObjectEx18ObjectCreationModebPPK8TypeTreePbR6Object
a6e:_Collection_1_System_Collections_IList_IndexOf_m3460849589_gshared
Ffc:__ZN4Mesh12SetIndexDataEiiPKv16GfxPrimitiveTypei
zGa:__ZN14dynamic_bitset6resizeEjb
dxd:_BaseInputModule_FindCommonRoot_m2696088443
a2:__ZN11UnityEngine15CloudWebService10RestClientINS0_23WebRequestRestHeaderMapEE7SetDataEPKhj
ZE:__ZN7mecanim8skeleton16SkeletonPoseCopyIN4math4trsXES3_EEvPKNS0_13SkeletonPoseTIT_EEPNS4_IT0_EE
DAj:__ZN14dense_hash_mapI10KeyWrapperIPK11Il2CppClassEPKcN6il2cpp5utils11PointerHashIS1_EENS4_14EqualsComparerINSt3__28equal_toIS3_EEEENSC_9allocatorINSC_4pairIKS4_S6_EEEEE15set_deleted_keyERSI_
NHa:__ZN9GfxDevice34SetStencilRefWhenStencilWasSkippedEi
mdd:__ZN11UnityEngine7Connect13ConnectConfig20RestoreTimeoutConfigERK13dynamic_arrayIiLj4EEjRS3_
Cc:invoke_fi
edk:__ZN6il2cpp6icalls8mscorlib6System10Reflection4Emit11TypeBuilder20create_runtime_classEP27Il2CppReflectionTypeBuilderS7_
A6:__ZL21InternalAssertConsolePKcz
Ac:invoke_ff
Ld:_emscripten_glVertexAttrib3f
wPj:__ZN30dense_hashtable_const_iteratorINSt3__24pairIK10KeyWrapperINS1_IPK11Il2CppImageP11Il2CppClassEEEjEES9_17ReflectionMapHashIS8_EN14dense_hash_mapIS9_jSD_NS9_14EqualsComparerINS0_8equal_toIS8_EEEENS0_9allocatorISB_EEE9SelectKeyESI_SK_EppEv
hWd:_Char_CompareTo_m3044885427
WZe:_List_1_System_Collections_IList_IndexOf_m2887559165_gshared
v5h:_ValueCollection__ctor_m1825701219_gshared
mUc:__ZN20TextRenderingPrivate8TextMesh11ApplyToMeshEv
_Jf:_SslStreamBase_get_CanRead_m3061866682
hpk:_emscripten_glDrawRangeElements__wrapper
oxc:__Z35GUIStyle_CUSTOM_Internal_CalcHeight13Il2Cpp_IntPtrP12Il2CppObjectf
P3a:__Z28scripting_class_is_valuetype17ScriptingClassPtr
$lb:__ZNSt3__26__treeINS_12__value_typeIN4core12basic_stringIcNS2_20StringStorageDefaultIcEEEEPN16MemoryFileSystem4NodeEEENS_19__map_value_compareIS6_SA_NS_4lessIS6_EELb1EEE13stl_allocatorISA_L18MemLabelIdentifier54ELi16EEE7destroyEPNS_11__tree_nodeISA_PvEE
lmb:__ZNSt3__25dequeI10InputEventNS_9allocatorIS1_EEE19__add_back_capacityEv
RRe:_Enumerator_System_Collections_IEnumerator_Reset_m336811426_AdjustorThunk
N1a:__ZN13ComputeShader13SetValueParamERKN9ShaderLab16FastPropertyNameEiPKv
HDb:__ZN14BlendShapeDataD2Ev
PFj:__ZN6il2cpp2vm13MetadataCache25GetIndexForTypeDefinitionEPK11Il2CppClass
eQa:__ZL18ProgramUniform3uivPK7ApiGLESjiihPKv
ySd:_Attribute_IsDefined_m1350918959
Y9c:__Z47CanvasRenderer_Set_Custom_PropHasPopInstructionP12Il2CppObjecth
Qeg:_MonoProperty_get_DeclaringType_m4236036432
NPa:__ZN5Image8SetImageEii13TextureFormatb
Tba:__ZN17MessageIdentifier21GetRegisteredMessagesEv
ZEi:_U3CGetEnumeratorU3Ec__Iterator0_System_Collections_IEnumerator_get_Current_m480171694_gshared
uhe:_Array_InternalArray__ICollection_Contains_TisContentType_t1028629049_m2321684690_gshared
A4:__Z13RegisterClassI23CloudWebServicesManagerEvv
V3j:__ZN6il2cpp2vm5Array3NewEP11Il2CppClassi
g_j:__GLOBAL__sub_I_Image_cpp
$Le:_Math_Sin_m2320256962
Kkf:_ReadOnlyCollection_1_System_Collections_Generic_IListU3CTU3E_Insert_m2409570138_gshared
hZe:_List_1_Add_m2123823603_gshared
zva:__ZNSt3__27__sort5IRPFbRKNS_4pairIN9ShaderLab16FastPropertyNameEfEES6_EPS4_EEjT0_SB_SB_SB_SB_T_
fsi:_AnimatorControllerPlayable_GetLayerCount_m1917775927
DCd:_CanvasUpdateRegistry__ctor_m4037208045
Fjc:__ZN8Material25DidModifyShaderKeywordSetEv
x5j:__ZN14dense_hash_mapI10KeyWrapperIPK19Il2CppGenericMethodEP10MethodInfoN6il2cpp8metadata23Il2CppGenericMethodHashENS4_14EqualsComparerINS8_26Il2CppGenericMethodCompareEEENSt3__29allocatorINSD_4pairIKS4_S6_EEEEE15set_deleted_keyERSG_
hPb:__Z29Transfer_Blittable_ArrayFieldI14SafeBinaryRead4AABBEvRT_R9ArrayInfoRK23StaticTransferFieldInfo
iif:_ReadOnlyCollection_1_System_Collections_IList_RemoveAt_m2396335261_gshared
_2h:_Transform_1_Invoke_m2675095773_gshared
Uzg:_GUIStyle_CalcHeight_m1685124037
xGd:_Dropdown_set_captionImage_m1952025570
oSh:__ZL56g_UnityEngine_UI_Assembly_CustomAttributesCacheGeneratorP21CustomAttributesCache
htf:_RSAManaged_remove_KeyGenerated_m452989252
Smc:__Z46Register_UnityEngine_RectOffset_get_horizontalv
Tub:__ZN18DelayedCallManager8ClearAllEv
hjb:__ZN17PersistentManagerC2E18MemLabelIdentifierii
Toc:__Z22Mesh_CUSTOM_HasChannelP12Il2CppObject30InternalScriptingShaderChannel
_Eg:_UnityWebRequest_set_downloadHandler_m1587492897
Gbb:__ZNK25RenderPrePassObjectSorterclERK16RenderObjectDataS2_
qWb:__Z22TransferField_NonArrayI18StreamedBinaryReadILb1EE27Converter_SimpleNativeClassI8GUIStyleEEvRK23StaticTransferFieldInfoR31RuntimeSerializationCommandInfoRT0_
ze:_Mix_LoadWAV_RW
Ya:invoke_viififiii
_Ra:__Z13IsFloatFormat14GraphicsFormat
U8i:_Enumerator__ctor_m147705785
hid:__Z64Register_UnityEngine_Networking_UnityWebRequest_get_responseCodev
k0j:__ZN6il2cpp2gcL12alloc_handleEPNS0_10HandleDataEP12Il2CppObjectb
ctk:_emscripten_glGetAttribLocation__wrapper
GDd:_CanvasScaler_HandleConstantPhysicalSize_m687057631
mtk:b98
bvf:_PKCS12_Encrypt_m1401341763
Mca:__ZL16ReadTypeTreeImplILb1EEbR8TypeTreeRK16TypeTreeIteratorRPKhS6_i
Re:_glBlendEquationSeparate
Whd:__Z39UnityWebRequest_CUSTOM_GetUploadHandlerP12Il2CppObject
fnd:_SHA384_Create_m1970724783
qm:_emscripten_glDeleteVertexArrays
gLa:__ZN13GfxDeviceGLES17SetComputeUniformE12ObjectHandleI18ComputeProgram_TagPvER18ComputeShaderParamjPKv
tYj:__ZN6il2cpp6icalls8mscorlib6System2IO6MonoIO5CloseE12Il2CppIntPtrPi
Vu:__ZN13AnimationClip10FloatCurve8TransferI18StreamedBinaryReadILb0EEEEvRT_
evk:_emscripten_glValidateProgram__wrapper
fsf:_SmallXmlParser_ReadComment_m1117342068
Ye:_emscripten_glUniform3fv
tpc:__Z35MonoBehaviour_CUSTOM_StartCoroutineP12Il2CppObjectP12Il2CppStringS0_
mta:__ZN9ShaderLab7Program14RemoveVariantsERK13dynamic_arrayI16ShaderKeywordSetLj4EE
mXj:__ZN6il2cpp2vm9Exception20GetArgumentExceptionEPKcS3_
nhe:_Array_InternalArray__ICollection_Contains_TisContactPoint2D_t3659330976_m474619266_gshared
cFc:__Z29Transfer_Blittable_ArrayFieldI8JSONReadiEvRT_R9ArrayInfoRK23StaticTransferFieldInfo
f3i:_Uri_System_Runtime_Serialization_ISerializable_GetObjectData_m214698768
ptk:_glDrawArrays__wrapper
qZ:__ZN9AudioClip27IsFormatSupportedByPlatformERKN4core12basic_stringIcNS0_20StringStorageDefaultIcEEEE
F0b:__ZN9ShaderLab26SerializedShaderDependency8TransferI24GenerateTypeTreeTransferEEvRT_
oga:__ZN16LightmapSettings7RebuildEv
BNg:__Z92RuntimeInvoker_RuntimeObject_RuntimeObject_Int32_t2071877448_Int32_t2071877448_RuntimeObjectPFvvEPK10MethodInfoPvPS4_
gZc:_UNITY_FT_Match_Size
vEd:_ColorBlock_Equals_m738243050
oz:__ZN7mecanim20CreateValueArrayMaskEPKNS_18ValueArrayConstantERNS_6memory9AllocatorE
njk:_free
BLf:_NameObjectCollectionBase_GetEnumerator_m646294968
hcd:__ZN11UnityEngine7Connect14AppUpdateEventC2Ev
orb:__ZN12ImageFilters17RemoveImageFilterERK11ImageFilter
QKa:__ZN9GfxDevice31InsertCustomBlitCallbackAndDataEPFviPvER33UnityRenderingExtCustomBlitParams
MWa:__Z32AddPathRemapsForBuiltinResourcesRKN4core12basic_stringIcNS_20StringStorageDefaultIcEEEE
aBg:_IL2CPPStructAlignmentAttribute__ctor_m2555798229
$6i:_TextGenerator_GetCharacters_m2554471692
arf:_DSAManaged_remove_KeyGenerated_m61544860
oQb:__ZL26Transfer_SimpleNativeClassI17RemapPPtrTransfer17AnimationCurveTplIfELb0EEvRK29SerializationCommandArgumentsR31RuntimeSerializationCommandInfo
_bj:_KeyUsageExtension_Decode_m4115739726
sm:_glDeleteTransformFeedbacks
Cf:_JS_WebRequest_Send
n8j:__ZN6il2cpp2os4Time31GetTicks100NanosecondsMonotonicEv
Q3j:__ZNSt3__26__treeINS_12basic_stringIcNS_11char_traitsIcEENS_9allocatorIcEEEENS_4lessIS6_EENS4_IS6_EEE16__construct_nodeIJRKS6_EEENS_10unique_ptrINS_11__tree_nodeIS6_PvEENS_22__tree_node_destructorINS4_ISH_EEEEEEDpOT_
q1d:_Stack_Clear_m771767447
ODe:_Int64_System_IConvertible_ToUInt16_m2638682734
Aoh:__ZL102ChannelServices_t2007814595_CustomAttributesCacheGenerator_ChannelServices_RegisterChannel_m3832858065P21CustomAttributesCache
Nrk:_emscripten_glGenRenderbuffers__wrapper
nkk:__ZNK10__cxxabiv117__class_type_info24process_found_base_classEPNS_19__dynamic_cast_infoEPvi
lxj:_Nullable_1_Equals_m1889119397_AdjustorThunk
lzg:_GUIStyle_Draw_m3134455812
WFj:__ZN6il2cpp2vm13MetadataCache21GetFieldInfoFromIndexEj
Vgi:_Raycast2DCallback_BeginInvoke_m4219004388
EX:__ZN17AudioClipPlayable13OnAdvanceTimeEd
g6j:__GLOBAL__sub_I_String_cpp
L$:__ZN5physx14PxLightCpuTaskD2Ev
Djh:__ZL51BitArray_t4180138994_CustomAttributesCacheGeneratorP21CustomAttributesCache
Oq:__ZNSt3__26vectorIN4core12basic_stringIcNS1_20StringStorageDefaultIcEEEENS_9allocatorIS5_EEE6assignINS_11__wrap_iterIPS5_EEEENS_9enable_ifIXaasr21__is_forward_iteratorIT_EE5valuesr16is_constructibleIS5_NS_15iterator_traitsISE_E9referenceEEE5valueEvE4typeESE_SE_
Uxi:_AudioSettings_InvokeOnAudioConfigurationChanged_m3225073778
$Ij:_il2cpp_init
r6c:__ZNSt3__26__treeIPN2UI14CanvasRendererENS_4lessIS3_EENS_9allocatorIS3_EEE7destroyEPNS_11__tree_nodeIS3_PvEE
IFc:__Z20b2TestSegmentSegmentRK6b2Vec2S1_S1_S1_RS_Rf
rQg:__Z176RuntimeInvoker_Boolean_t3825574718_RuntimeObject_Int32U26_t455636984_Int32_t2071877448_Int32_t2071877448_Int32_t2071877448_RuntimeObject_SByte_t454417549_ContextU26_t3131521781PFvvEPK10MethodInfoPvPS4_
CJa:__ZN13GfxDeviceGLES22UploadTextureSubData2DE9TextureIDPKhiiiiii14GraphicsFormat
Rba:__ZNK15dense_hashtableINSt3__24pairIKPKcPK4RTTIEES3_N11TypeManager23ConstCharPtrHashFunctorEN14dense_hash_mapIS3_S7_SA_NS9_19ConstCharPtrEqualToE13stl_allocatorIS8_L18MemLabelIdentifier6ELi16EEE9SelectKeyESC_SF_E23find_position_with_hashERS4_j
Snc:__Z35Register_UnityEngine_Screen_get_dpiv
FRj:__ZNK15dense_hashtableINSt3__24pairIK10KeyWrapperIPK14Il2CppAssemblyEPK22Il2CppMonoAssemblyNameEES6_N6il2cpp5utils11PointerHashIS4_EEN14dense_hash_mapIS6_SA_SF_NS6_14EqualsComparerINS0_8equal_toIS5_EEEENS0_9allocatorISB_EEE9SelectKeyESK_SM_E5beginEv
xDg:_Mesh_get_normals_m1837187359
GDc:__ZN8JSONRead8TransferIxEEvRT_PKc17TransferMetaFlagsb
Q7:__ZN13SpeedTreeWind7AdvanceEbd
WMa:__ZN18GlslGpuProgramGLES19ApplyGpuProgramGLESERK20GpuProgramParametersPKh
Pjc:__ZN9Transform16SetLocalPositionERK8Vector3f
AKd:_LayoutGroup_GetTotalMinSize_m2600700952
zXb:__Z15Transfer_StringI18StreamedBinaryReadILb0EELb0EEvRK29SerializationCommandArgumentsR31RuntimeSerializationCommandInfo
XT:__ZN12SoundManagerC2Ev
MYc:_UNITY_tt_face_free_name
bte:_Array_Sort_TisUICharInfo_t3056636800_m37864585_gshared
Wtk:_emscripten_glGetUniformfv__wrapper
ZQa:__ZN14DataBufferGLES3MapEjjj
qNi:_InternalEnumerator_1_System_Collections_IEnumerator_get_Current_m771161214_gshared
To:FUNCTION_TABLE_fidi
BEb:__ZN14SpriteRenderer23VirtualRedirectTransferER19StreamedBinaryWriteILb0EE
iuk:_emscripten_glGetShaderiv__wrapper
H6b:__Z13RegisterClassI9TransformEvv
kva:__ZN18UnityPropertySheet11UnityTexEnv8TransferI19StreamedBinaryWriteILb0EEEEvRT_
XSi:_ResourceInfo_t3933049236_marshal_pinvoke_back
Cbk:_GC_make_descriptor
Vsi:_AnimatorControllerPlayable_GetAnimatorClipInfoCountInternal_m2158191784
jJj:_il2cpp_array_new
ks:__ZN14SafeBinaryRead21TransferSTLStyleArrayINSt3__26vectorIN13AnimationClip10FloatCurveE13stl_allocatorIS4_L18MemLabelIdentifier25ELi16EEEEEEvRT_17TransferMetaFlags
nne:_Array_InternalArray__ICollection_Add_TisDictionaryEntry_t3048875398_m279246399_gshared
nVi:_ChannelServices_GetCurrentChannelInfo_m4080942430
mS:__ZN4FMOD3DSP8getInputEiPPS0_PPNS_13DSPConnectionE
WPe:_KeyValuePair_2_ToString_m2882821022_AdjustorThunk
oca:__ZN20dynamic_block_vectorI14FileIdentifierE5clearEv
lwf:_Activator_CreateInstance_m4123570586
JXc:_ft_outline_glyph_bbox
Amj:_IndexedSet_1_RemoveAll_m2736534958_gshared
a5c:_UNITY_FT_Done_Library
Lni:_VertexHelper__cctor_m1150948588
FY:__ZN13AudioPlayable25UpdateChannelGroupVisitorERK16AudioProcessData
J8c:__ZN2UI13CanvasManager17EmitDataForCameraEP6Camera
QGc:__Z16b2CollideCirclesP10b2ManifoldPK13b2CircleShapeRK11b2TransformS3_S6_
Sxi:_PCMSetPositionCallback_BeginInvoke_m2507142524
g3h:_Transform_1_Invoke_m1111426439_gshared
Zne:_Array_InternalArray__ICollection_Add_TisContactPoint2D_t3659330976_m1781705858_gshared
brc:__Z44Register_UnityEngine_Material_GetTextureImplv
gUc:__ZN13sorted_vectorIN20TextRenderingPrivate8FontImpl13CharacterInfoENSt3__24lessIS2_EE13stl_allocatorIS2_L18MemLabelIdentifier34ELi16EEE10insert_oneERKS2_
s8i:_Transform_INTERNAL_set_localPosition_m432504087
Ftk:_glUniform3uiv__wrapper
una:__ZL8MainLoopv
aJ:__ZN15SerializeTraitsI9OffsetPtrIN7mecanim12statemachine26SelectorTransitionConstantEEE8TransferI24GenerateTypeTreeTransferEEvRS4_RT_
V4f:_Binder_ConvertArgs_m2999223281
B8f:_TypeBuilder_IsDefined_m3186251655
uad:__Z47Register_UnityEngine_CanvasRenderer_SetMaterialv
ZVi:_ConfigHandler_ValidatePath_m3188987489
O7h:_Dictionary_2_ToTValue_m1227484397_gshared
BKc:__ZN19CompositeCollider2D22QueryCompositeColliderEPK10Collider2DPK11Rigidbody2D
OOe:_NumberFormatter_get_IntegerDigits_m3972411141
kEb:__ZThn32_N12MeshRendererD1Ev
Vpa:__ZN13RenderTexture23VirtualRedirectTransferER19StreamedBinaryWriteILb0EE
A2h:_ShimEnumerator_MoveNext_m2728191736_gshared
o6g:__Z135RuntimeInvoker_RuntimeObject_Ray_t2469606224_RaycastHitU26_t1969197280_Single_t2076509932_Int32_t2071877448_RuntimeObject_RuntimeObjectPFvvEPK10MethodInfoPvPS4_
wrg:_UInt64_System_IConvertible_ToInt32_m930227577_AdjustorThunk
a7j:__ZN6il2cpp2vm13ComObjectBase17GetMarshalSizeMaxERK10Il2CppGuidPvjS5_jPj
sac:__ZN9TransformC2E18MemLabelIdentifier18ObjectCreationMode
ljk:_truncate
q1b:__ZN9ShaderLab27SerializedShaderVectorValue8TransferI18StreamedBinaryReadILb0EEEEvRT_
fyb:__ZN8Renderer21RendererBecameVisibleEv
Djf:_ReadOnlyCollection_1_System_Collections_Generic_ICollectionU3CTU3E_Clear_m2503787861_gshared
Hik:___stpncpy
T8e:_Collection_1_System_Collections_IList_Add_m669232520_gshared
u0e:_List_1_RemoveAt_m1843849279_gshared
g7:__ZN10MemoryPool16StaticInitializeEPv
Yia:__ZN11TypeManager21CleanupGlobalInstanceEv
kpg:_TypedReference_GetHashCode_m3498861551_AdjustorThunk
N:Math_atan
gMj:__ZNSt3__212basic_stringIcNS_11char_traitsIcEENS_9allocatorIcEEE6__initIPKcEENS_9enable_ifIXsr21__is_forward_iteratorIT_EE5valueEvE4typeESA_SA_
$Q:__ZNK10SampleClip11GetResourceEv
FXa:__ZN4core12basic_stringIcNS_20StringStorageDefaultIcEEE6resizeEj
bwc:__Z43Register_UnityEngine_Event_set_displayIndexv
OPi:_InternalEnumerator_1_System_Collections_IEnumerator_get_Current_m2821735692_AdjustorThunk
tSc:__GLOBAL__sub_I_CmEventProfiler_cpp
Fyf:_PrimalityTests_GetSPPRounds_m873706010
vig:_StringBuilder_AppendLine_m1686706871
mlf:_ReadOnlyCollection_1_System_Collections_Generic_IListU3CTU3E_Insert_m584948331_gshared
Epb:__ZN17GlobalGameManager23VirtualRedirectTransferER24GenerateTypeTreeTransfer
GIe:_MemoryStream_ToArray_m547789004
bed:__ZN19UnityConnectServiceD0Ev
Iti:_AnimatorControllerPlayable_CrossFade_m3794224188
THe:_MonoIO_SetLength_m1019790894
g$a:__ZZ23InitPlayerLoopCallbacksvEN46EarlyUpdateUpdateAllUnityWebStreamsRegistrator7ForwardEv
psg:_UIntPtr_ToString_m387842486
Grb:__ZNSt3__26vectorIfNS_9allocatorIfEEE8__appendEjRKf
aid:__Z63Register_UnityEngine_Networking_UnityWebRequest_InternalDestroyv
Scd:__ZN11UnityEngine15PlatformWrapper21GetCopyTextureSupportEv
EId:_Graphic_get_depth_m3526566553
H3j:__ZN6il2cpp2vm6Method11GetFullNameEPK10MethodInfo
l_:__ZN11AudioModule27IsFormatSupportedByPlatformEPKc
TZd:_CollectionBase_get_InnerList_m44314156
xde:_Enum_System_IConvertible_ToUInt32_m3575456858
rvg:_WindowFunction_BeginInvoke_m322627481
aqb:__ZNSt3__26vectorI17SortingLayerEntryNS_9allocatorIS1_EEE6assignINS_11__wrap_iterIPS1_EEEENS_9enable_ifIXaasr21__is_forward_iteratorIT_EE5valuesr16is_constructibleIS1_NS_15iterator_traitsISA_E9referenceEEE5valueEvE4typeESA_SA_
dQc:__Z14b2PairLessThanRK6b2PairS1_
pca:__ZN14SerializedFile14SerializedTypeD2Ev
Rkc:__Z48Register_UnityEngine_AsyncOperation_set_priorityv
WEc:__Z19TransferField_ArrayI8JSONRead16Converter_StringEvRK23StaticTransferFieldInfoR31RuntimeSerializationCommandInfoRT0_
OKc:__ZN15b2WheelJointDef10InitializeEP6b2BodyS1_RK6b2Vec2S4_
gnb:__ZNK25ThreadsafeLinearAllocator22GetAllocatedMemorySizeEv
w0c:_cff_size_request
uub:__ZN15DirectorManager14ConnectionPool12SwitchBucketEP14ConnectionList
rog:_Type_EqualsInternal_m266086934
F6c:__ZN2UI11CompareFuncEPNS_6CanvasES1_
aT:__ZN4FMOD7Channel11set3DSpreadEf
Dek:__ZN6il2cpp2os6Memory14AlignedReAllocEPvjj
W:Math_fround
X$c:_pshinter_get_t1_funcs
mDa:__ZN24GenerateTypeTreeTransfer16TransferTypelessEPjPKc17TransferMetaFlags
Wmg:_TimeSpan_get_TotalMinutes_m1645177229
pjd:_HMACMD5__ctor_m3425004426
Mtf:_SymmetricTransform_InternalTransformBlock_m55428483
fQa:__ZL18ProgramUniform4uivPK7ApiGLESjiihPKv
iNe:_LongComparer_Compare_m398047722
oY:__ZN18AudioMixerPlayable18CacheFMODResourcesEPN4FMOD6SystemE
Yci:_EqualityComparer_1_System_Collections_IEqualityComparer_Equals_m2170611288_gshared
mxi:_AudioMixerPlayable_op_Explicit_m1657546053
rSd:_Attribute_CheckParameters_m1754681684
Hig:_UnicodeEncoding_GetByteCount_m2761661599
i8a:__ZN10builtintex21GetAttenuationTextureEv
kn:FUNCTION_TABLE_viiiiiiiiiiiiiii
Gki:_Selectable_TriggerAnimation_m3096883407
egc:__ZNK4Mesh19CanAccessFromScriptEv
lha:__Z15GetGraphicsCapsv
WLa:__ZN7ApiGLES15BindVertexArrayEN2gl6HandleILNS0_10ObjectTypeE3EEE
Yfc:__ZN24CompressedAnimationCurve17CompressQuatCurveERN13AnimationClip15QuaternionCurveE
dz:__ZN17AnimationPlayable17GetAnimationClipsER13dynamic_arrayIP13AnimationClipLj4EE
T8a:__Z20IntersectionAABBAABBRK10MinMaxAABBS1_PS_
IQj:__ZN30dense_hashtable_const_iteratorINSt3__24pairIK10KeyWrapperINS1_IPK9EventInfoP11Il2CppClassEEEjEES9_17ReflectionMapHashIS8_EN14dense_hash_mapIS9_jSD_NS9_14EqualsComparerINS0_8equal_toIS8_EEEENS0_9allocatorISB_EEE9SelectKeyESI_SK_EppEv
Ang:_TimeSpan_op_GreaterThan_m2202243191
C5b:__ZN18BackgroundJobQueue29ScheduleMainThreadJobInternalEPFvPvES0_
MQf:_X509Chain_IsSelfIssued_m2009755967
W6c:__ZN2UI11CanvasGroup23VirtualRedirectTransferER24GenerateTypeTreeTransfer
Fub:__ZNK20ScriptPlayableOutput9GetStagesER13dynamic_arrayI16StageDescriptionLj4EE
tMb:__Z18Transfer_BlittableI14SafeBinaryReadLb1EhEvRK29SerializationCommandArgumentsR31RuntimeSerializationCommandInfo
O7d:_DateTime_GetTimeMonotonic_m4135038456
bka:__ZNSt3__224__buffered_inplace_mergeIRNS_4lessIN4core12basic_stringIcNS2_20StringStorageDefaultIcEEEEEENS_11__wrap_iterIPS6_EEEEvT0_SC_SC_T_NS_15iterator_traitsISC_E15difference_typeESG_PNSF_10value_typeE
oig:_StringBuilder_Append_m3636508479
Ozf:_MD4_Create_m3565183915
oc:invoke_viifff
T9:__Z22DestroyObjectHighLevelP6Objectb
QHc:__ZNK12b2MouseJoint10GetAnchorBEv
d6a:__Z26BeginRenderQueueExtractionR15RenderNodeQueuePK16RendererCullDataRK13CullingOutputPK12LODDataArray15ExtractionFlagsP18JobBatchDispatcher
fUc:__ZNK13TextRendering4Font10GetTextureEv
ukd:_SymmetricAlgorithm_set_KeySize_m270664177
pj:_emscripten_glVertexAttrib3fv
n_h:__ZL49Shadow_t4269599528_CustomAttributesCacheGeneratorP21CustomAttributesCache
cWj:__ZN6il2cpp6icalls8mscorlib6System9Threading6Thread16SetName_internalEP12Il2CppThreadP12Il2CppString
tj:_glBeginTransformFeedback
mFf:_Context_ClearKeyInfo_m205678623
sEa:__ZN18JobBatchDispatcherC2E11JobPriorityi
Xtc:__ZN8GUIStyle14GetBuiltinFontEv
uKa:__ZN9GfxDevice13EndFrameStatsEv
P9b:__Z7Empty2DP9Texture2DPhiiii
PEe:_IntPtr_ToString_m1500137303_AdjustorThunk
LAd:_RaycasterManager__cctor_m3713028899
DYe:_List_1_CheckCollection_m1228076404_gshared
Znj:_SymmetricTransform_ThrowBadPaddingException_m2553969731
yV:__ZL34StaticDestroyAudioCustomFilterRootPv
y2a:__ZN19ComputeShaderKernelD2Ev
$Xf:_RemotingServices_GetProxyForRemoteObject_m3800812855
W4b:__ZN10systeminfo21GetTemporaryCachePathEv
Cbf:_Collection_1_IsValidItem_m2164075061_gshared
hFc:__ZN9rapidjson12PrettyWriterI16TempBufferWriterNS_4UTF8IcEES3_13JSONAllocatorE12PrettyPrefixENS_4TypeE
nFf:_Context_DecodeProtocolCode_m4051353560
f3b:__ZN12ScriptMapper8TransferI14SafeBinaryReadEEvRT_
fFf:_Context_set_ClientWriteKey_m1137238126
NRb:__Z18Transfer_BlittableI24GenerateTypeTreeTransferLb1E10Matrix4x4fEvRK29SerializationCommandArgumentsR31RuntimeSerializationCommandInfo
m1i:_Expression_GetFixedWidth_m2900825908
RF:__Z10SetLocalTR15TransformAccessRKN4math7_float3ERKNS0_7_float4E
Aqj:_GenericEqualityComparer_1_Equals_m1663005117_gshared
PAi:_Color_ToString_m4028093047_AdjustorThunk
Q6f:_ILGenerator_Mono_GetCurrentOffset_m3553856682
SBc:__ZN9JSONWrite8TransferI10Matrix4x4fEEvRT_PKc17TransferMetaFlags
Nfh:__ZL58Decimal_t724701077_CustomAttributesCacheGenerator_MinValueP21CustomAttributesCache
Q1c:_cf2_hintmap_map
WSe:_Enumerator_VerifyState_m3639069574_AdjustorThunk
IX:__ZN17AudioClipPlayable15ApplyPropertiesEPN4FMOD6SystemEP11AudioSourcebyj
noh:__ZL50_Module_t2144668161_CustomAttributesCacheGeneratorP21CustomAttributesCache
dt:__ZNSt3__26vectorIN13AnimationClip9PPtrCurveE13stl_allocatorIS2_L18MemLabelIdentifier25ELi16EEE7reserveEj
ZOb:__ZN15SerializeTraitsI5RectTIfEE8TransferI14SafeBinaryReadEEvRS1_RT_
DCg:_Mathf_CeilToInt_m2672598779
Trc:__Z41Register_UnityEngine_Texture_get_wrapModev
SVc:_UNITY_FT_Raccess_Get_DataOffsets
ESf:_X509Extension_CopyFrom_m2644634650
Adc:__ZN14PlayableOutputC2EjP13PlayableGraph
syb:__ZThn32_NK8Renderer11GetMaterialEi
B1b:__ZN9ShaderLab20SerializedSubProgram8TransferI19StreamedBinaryWriteILb0EEEEvRT_
ssh:__ZL118SecurityManager_t3191249573_CustomAttributesCacheGenerator_SecurityManager_t3191249573____SecurityEnabled_PropertyInfoP21CustomAttributesCache
hWe:_List_1_System_Collections_IList_Insert_m813883425_gshared
r8j:__ZN6il2cpp6icalls8mscorlib6System7Runtime15InteropServices8GCHandle15GetTargetHandleEP12Il2CppObjectii
DUi:_SafeHandle_Dispose_m3871883741
mk:_unsetenv
EHa:__ZN9GfxDevice29GetMinimumNodesPerGraphicsJobEv
XCb:__ZN17BlendShapeChannel8TransferI24GenerateTypeTreeTransferEEvRT_
e2g:__Z427RuntimeInvoker_Boolean_t3825574718_RuntimeObject_RuntimeObject_Color_t2020392075_Int32_t2071877448_Single_t2076509932_Single_t2076509932_Int32_t2071877448_SByte_t454417549_SByte_t454417549_Int32_t2071877448_Int32_t2071877448_Int32_t2071877448_Int32_t2071877448_SByte_t454417549_Int32_t2071877448_Single_t2076509932_Single_t2076509932_Single_t2076509932_Single_t2076509932_SByte_t454417549_SByte_t454417549_UInt32U26_t2197289955PFvvEPK10MethodInfoPvPS4_
vug:_GameObject_SendMessage_m71956653
kKg:_Rect_set_yMin_m734445288_AdjustorThunk
Yak:_GC_init_size_map
v$i:_Parser_NewParseException_m3909819299
Tqi:_AnimatorControllerPlayable_GetFloat_m753829628
pia:__ZN15DirectorManager17OnSampleFixedTimeEv
ddb:__ZNK13RendererScene21GetDynamicObjectCountEv
C4h:_Enumerator_System_Collections_IEnumerator_get_Current_m1805365227_AdjustorThunk
Q8j:_GC_is_black_listed
Fwd:_BaseInput_get_imeCompositionMode_m4145003637
UMd:_InputField_set_caretSelectPositionInternal_m2063243072
pvk:_emscripten_glDisable__wrapper
tSb:__ZN24GenerateTypeTreeTransfer32TransferSTLStyleArrayWithElementI23ManagedObjectTransfererEEvRT_17TransferMetaFlags
SOi:_InternalEnumerator_1_System_Collections_IEnumerator_get_Current_m3043347404_AdjustorThunk
LHe:_WriteDelegate_BeginInvoke_m2985235908
$8d:_DateTimeOffset_get_Offset_m2335492074_AdjustorThunk
yue:_Component_GetComponentsInChildren_TisRuntimeObject_m1992201622_gshared
IKg:_RectOffset_Cleanup_m3198970074
Jxc:__Z42Register_UnityEngine_GUIStyle_set_wordWrapv
OWc:_UNITY_FT_Destroy_Class_tt_driver_class
wsc:__Z49Transform_CUSTOM_INTERNAL_CALL_TransformDirectionP12Il2CppObjectRK8Vector3fRS1_
xCe:_Int32_System_IConvertible_ToChar_m719315943_AdjustorThunk
Pek:__ZN6il2cpp6icalls8mscorlib6System7Runtime8Remoting16RemotingServices16GetVirtualMethodEP20Il2CppReflectionTypeP22Il2CppReflectionMethod
GZi:_Match__ctor_m478172746
qqe:_Array_InternalArray__Insert_TisWorkRequest_t1154022482_m452198486_gshared
flc:__Z42Register_UnityEngine_Behaviour_get_enabledv
cMe:_Math_Pow_m3099781906
ezg:_GUIStyle_set_font_m312124587
ht:__ZN13AnimationClip9PPtrCurveC2ERKS0_
iLj:__ZN6il2cpp2vm14TypeNameParser23ParseNestedTypeOptionalERi
PNe:_MonoType_ReorderParamArrayArguments_m979187413
yxf:_BigInteger_ToString_m1842353154
nek:__ZN6il2cpp2os13FastMutexImplC2Ev
Kbd:__ZN22BaseUnityConnectClient14QueueCoreEventERN11UnityEngine15CloudWebService17CloudServiceEventEb
ZHi:_InternalEnumerator_1_get_Current_m2882946014_gshared
bJb:__ZN30RuntimeInitializeOnLoadManager9ClassInfo8TransferI14SafeBinaryReadEEvRT_
gUi:_GCHandle_Equals_m170815541_AdjustorThunk
s9a:__ZL13RenderCastersiRK8Vector3fS1_RK13ShadowJobDataR17ShaderPassContextRKNSt3__26vectorI16ShadowCasterData13stl_allocatorIS9_L18MemLabelIdentifier2ELi16EEEERKNS8_I20ShadowCasterPartDataSA_ISG_LSB_2ELi16EEEERK15RenderNodeQueuebPKj
ml:_emscripten_glGetShaderInfoLog
WLj:__ZNSt3__26vectorIiNS_9allocatorIiEEE8allocateEj
lth:__ZL100CompressedStack_t1568001503_CustomAttributesCacheGenerator_CompressedStack_GetObjectData_m2387204186P21CustomAttributesCache
hld:_RIPEMD160Managed_Compress_m3844168032
l9d:_DBNull_System_IConvertible_ToInt32_m3596596664
kCe:_Int16_ToString_m1247017262_AdjustorThunk
RKg:_RectTransform_get_anchorMax_m3816015142
oZc:_UNITY_ft_glyphslot_set_bitmap
wKc:__ZN14b2PolygonShape3SetEPK6b2Vec2i
Raa:__ZN24GenerateTypeTreeTransfer18SetScriptingObjectE18ScriptingObjectPtri
cLg:_RectTransform_INTERNAL_get_pivot_m3003734630
x$:__Z92Register_UnityEngine_Audio_AudioMixerPlayable_INTERNAL_CALL_CreateAudioMixerPlayableInternalv
OCe:_Int32_System_IConvertible_ToType_m573330549_AdjustorThunk
C5f:_CustomAttributeTypedArgument_Equals_m1555989603
y4b:__ZN6prcoreL11inner_clearILj3EEEvPhjjj
b$g:__Z99RuntimeInvoker_RuntimeObject_RuntimeObject_RuntimeObject_Vector3_t2243707580_Quaternion_t4030073918PFvvEPK10MethodInfoPvPS4_
Kqb:__Z29FindReflectionProbeFromAnchorP9TransformRK4AABBRS1_RsS5_
h$:__Z74Register_UnityEngine_Audio_AudioClipPlayable_INTERNAL_CALL_GetClipInternalv
bVf:_Interval_Merge_m1170166798
KZf:_WellKnownServiceTypeEntry__ctor_m1109686429
M3c:_Read_CVT_Stretched
bXj:__ZNSt3__212basic_stringIDsNS_11char_traitsIDsEENS_9allocatorIDsEEE7reserveEj
SHg:_PlayableHandle_SetInputCount_m2001045454_AdjustorThunk
PHj:__ZN6il2cpp6icalls8mscorlib6System18CollectTypeMethodsINS_5utils10functional10TrueFilterEEEvP11Il2CppClassPKS7_jRKT_RNSt3__26vectorIPK10MethodInfoNSE_9allocatorISI_EEEERA65535_b
P3e:_Enumerator_get_Current_m2566716693_AdjustorThunk
Ena:__Z14SetPlayerPause11PlayerPauseb
Dwi:_AudioClipPlayable_GetLooped_m2341122984_AdjustorThunk
Eaj:_Vector3_op_Equality_m305888255
FHd:_FontData_get_defaultFontData_m3296571046
V2g:__Z65RuntimeInvoker_Int32_t2071877448_RuntimeObject_Single_t2076509932PFvvEPK10MethodInfoPvPS4_
z0j:__ZN15dense_hashtableINSt3__24pairIK10KeyWrapperIP12Il2CppObjectEN6il2cpp2gc9CachedCCWEEES5_NS7_5utils11PointerHashIS3_EEN14dense_hash_mapIS5_S9_SD_NS5_14EqualsComparerINS0_8equal_toIS4_EEEENS0_9allocatorISA_EEE9SelectKeyESI_SK_EC2ERKSN_j
mNd:_InputField_InPlaceEditing_m1040314765
$8:__Z30scripting_stack_trace_info_for21ScriptingExceptionPtrR14StackTraceInfo
cok:_glCompressedTexSubImage3D__wrapper
UPj:__ZN15dense_hashtableINSt3__24pairIK10KeyWrapperINS1_IPK12PropertyInfoP11Il2CppClassEEEjEES9_17ReflectionMapHashIS8_EN14dense_hash_mapIS9_jSD_NS9_14EqualsComparerINS0_8equal_toIS8_EEEENS0_9allocatorISB_EEE9SelectKeyESI_SK_EC2ERKSN_j
vS:__ZN15AudioReverbZone7CleanupEv
cUa:__ZN10BufferGLESD0Ev
wOi:_InternalEnumerator_1_System_Collections_IEnumerator_get_Current_m790514740_gshared
Eqd:__Z9NullCheckPv
wed:__ZN22UnityAnalyticsSettings8TransferI14SafeBinaryReadEEvRT_
mGc:__ZNK14b2PolygonShape9TestPointERK11b2TransformRK6b2Vec2
XNc:__ZN22FindParticleCollisions22ProcessFoundCollisionsERKfRK13dynamic_arrayI15BatchedRaycastsLj4EERS2_I20BatchedRaycastResultLj4EERS2_I21BatchedColliderResultLj4EE
Y1c:_cf2_hintmask_isNew
Lpe:_Array_InternalArray__Insert_TisIntPtr_t_m3232864760_gshared
Qya:__ZN6prcoreL26RemapGenericIntegerToFloatI17TexFormatARGB888818TexFormatARGBFloatEEvPKNS_9InnerInfoE
Grj:__ZL24UnresolvedVirtualCall_10P12Il2CppObjectPK10MethodInfo
Tsk:_emscripten_glCompressedTexSubImage2D__wrapper
Z2f:_DSA_FromXmlString_m2141326025
Qzg:_GUIStyle_CalcSizeWithConstraints_m4117833199
ufd:__ZZN18UnityConnectClient23RegisterGlobalCallbacksEvEN46EarlyUpdateUnityConnectClientUpdateRegistrator7ForwardEv
g7h:_Dictionary_2_System_Collections_IDictionary_Remove_m2901901588_gshared
B8i:_Transform_INTERNAL_set_localScale_m3680777866
MPc:__ZN16b2ContactManager7CollideEv
VGj:__ZN6il2cpp2vmL29SocketPollingThreadEntryPointEPv
T_j:__ZN13Il2CppHashMapINSt3__24pairIPKcS3_EEi24NamespaceAndNamePairHash26NamespaceAndNamePairEqualsNS0_9allocatorINS1_IK10KeyWrapperIS4_EiEEEEEC2EjRKS5_RKS6_
P7d:_DateTime_GetNow_m1004310079
kRg:__Z97RuntimeInvoker_Void_t1841601450_RuntimeObject_Int32_t2071877448_SByte_t454417549_SByte_t454417549PFvvEPK10MethodInfoPvPS4_
$Cb:__ZN10Matrix4x4f8TransferI18StreamedBinaryReadILb0EEEEvRT_
bKf:_SslStreamBase_get_Length_m763159069
gmf:_Comparison_1_Invoke_m4190993814_gshared
nW:__ZN4FMOD7Channel19getReverbPropertiesEP29FMOD_REVERB_CHANNELPROPERTIES
kQi:_InternalEnumerator_1_get_Current_m906360510_AdjustorThunk
Kbe:_StackFrame_GetSecureFileName_m389986943
b_f:_FormatterConverter_ToInt16_m2774942580
EDd:_CanvasScaler_HandleConstantPixelSize_m229625308
JDd:_CanvasUpdateRegistry_PerformUpdate_m2200492017
WQc:__ZN13BoxCollider2D15InitializeClassEv
upg:_UInt16_System_IConvertible_ToByte_m806893944_AdjustorThunk
bjg:_UTF32Encoding_GetCharCount_m3319809517
sic:__Z12CancelInvokeR13MonoBehaviourR11ICallString
Wug:_GUILayout_Height_m607115982
FHj:__ZN6il2cpp6icalls8mscorlib6System8MonoType13GetInterfacesEP20Il2CppReflectionType
K2:__ZN11UnityEngine15CloudWebService25WebRequestDownloadHandler7OnAbortEv
c1a:__ZN6Camera12CustomRenderER11CullResultsR17ShaderPassContextPK21CameraRenderingParamsNS_10RenderFlagEPNS_21PerformRenderFunctionEPFvvE
SIb:__ZN14SafeBinaryRead21TransferSTLStyleArrayINSt3__26vectorIi13stl_allocatorIiL18MemLabelIdentifier12ELi16EEEEEEvRT_17TransferMetaFlags
yQe:_KeyValuePair_2_ToString_m2613351884_AdjustorThunk
cSe:_Enumerator_System_Collections_IEnumerator_get_Current_m3461301268_AdjustorThunk
j5j:__ZN6il2cpp2os6Thread22SetNativeThreadCleanupEPFvPvE
pkc:__Z35Application_Get_Custom_PropPlatformv
oJj:_il2cpp_class_from_system_type
wRb:__Z18Transfer_BlittableI24GenerateTypeTreeTransferLb1E10ColorRGBAfEvRK29SerializationCommandArgumentsR31RuntimeSerializationCommandInfo
Qxa:__ZN6prcoreL17RemapGenericFloatI18TexFormatRGBAFloat16TexFormatRGFloatEEvPKNS_9InnerInfoE
_mf:_MSCompatUnicodeTable_FillCJKCore_m1100372933
Ndj:_X509Certificate_VerifySignature_m2806336005
tOb:__ZNSt3__26vectorI10RectOffset13stl_allocatorIS1_L18MemLabelIdentifier1ELi16EEE8__appendEj
e3d:_DateTime_op_Inequality_m1607380213
wx:__ZN21AnimationClipPlayable22PrepareAnimationEventsEfR13dynamic_arrayI22AnimationClipEventInfoLj4EE
fAj:__ZN6il2cpp2vm5Class12HasAttributeEP11Il2CppClassS3_
bue:_Dictionary_2_Do_ICollectionCopyTo_TisRuntimeObject_m4050345195_gshared
$ge:_Array_InternalArray__ICollection_Contains_TisResourceCacheItem_t333236149_m1769941464_gshared
UBi:_ContextMenu__ctor_m3931483141
u0j:__ZN14dense_hash_mapI10KeyWrapperIP12Il2CppObjectEN6il2cpp2gc9CachedCCWENS4_5utils11PointerHashIS1_EENS3_14EqualsComparerINSt3__28equal_toIS2_EEEENSB_9allocatorINSB_4pairIKS3_S6_EEEEE13set_empty_keyERSH_
ep:FUNCTION_TABLE_ff
kBb:__ZNSt3__218__stable_sort_moveIRNS_4lessI4PPtrI11SpriteAtlasEEENS_11__wrap_iterIPS4_EEEEvT0_SA_T_NS_15iterator_traitsISA_E15difference_typeEPNSD_10value_typeE
gp:FUNCTION_TABLE_fi
ywd:_BaseEventData_set_selectedObject_m2198139983
KD:__ZNSt3__227__insertion_sort_incompleteIRN11UnityEngine9Animation11BindingSortEPNS_4pairINS2_14GenericBindingEPNS2_10BoundIndexEEEEEbT0_SB_T_
yfk:__ZN6il2cpp2vm16GenericContainer19GetGenericParameterEPK22Il2CppGenericContainert
ZVd:_Char_System_IConvertible_ToSingle_m2547558725_AdjustorThunk
bwg:_GUILayoutEntry_ApplyOptions_m115321759
tIb:__ZN18StreamedBinaryReadILb0EE21TransferSTLStyleArrayINSt3__26vectorIN15ResourceManager10DependencyE13stl_allocatorIS5_L18MemLabelIdentifier51ELi16EEEEEEvRT_17TransferMetaFlags
Ed:_emscripten_glGetAttribLocation
mca:__ZNSt3__26vectorINS_4pairIiiEE13stl_allocatorIS2_L18MemLabelIdentifier37ELi16EEE6insertENS_11__wrap_iterIPKS2_EERS8_
n$a:__ZZ23InitPlayerLoopCallbacksvEN39PostLateUpdateResetInputAxisRegistrator7ForwardEv
PU:__ZN4FMOD12ChannelGroup14getParentGroupEPPS0_
WI:__ZN7mecanim12statemachine20StateMachineConstant8TransferI24GenerateTypeTreeTransferEEvRT_
rIf:_SslClientStream_add_ServerCertValidation_m684653638
Id:_emscripten_set_blur_callback
_6i:_TextGenerator_Invalidate_m3217235344
Cdk:__GLOBAL__sub_I_MemoryMappedFile_cpp
rpk:___cxa_pure_virtual__wrapper
CPa:__ZNK14ImageReference9ClipImageEiiii
eab:__ZN10Matrix4x4f30SetPositionAndOrthoNormalBasisERK8Vector3fS2_S2_S2_
Bob:__ZN5RectTIfE8TransferI24GenerateTypeTreeTransferEEvRT_
MVi:_CrossAppDomainSink__cctor_m1547233779
vmf:_TableRange__ctor_m1944319286_AdjustorThunk
$3a:__ZN12FlareManager6UpdateEv
Opk:_glColorMask__wrapper
eoh:__ZL59_ConstructorInfo_t3269099341_CustomAttributesCacheGeneratorP21CustomAttributesCache
v8h:_Dictionary_2_ContainsKey_m1385349577_gshared
Nuf:_X509CertificateEnumerator_MoveNext_m1031936092
NXj:__ZN6il2cpp6icalls8mscorlib6System4Type29GetGenericTypeDefinition_implEP20Il2CppReflectionType
yFa:__ZN13LoadOperation7PerformEv
GDf:_TlsStream__ctor_m2982031560
hPf:_X509EnhancedKeyUsageExtension__ctor_m4050164330
bXb:__ZN18StreamedBinaryReadILb1EE8TransferI8Vector3fEEvRT_PKc17TransferMetaFlags
mNi:_InternalEnumerator_1_get_Current_m2198364332_AdjustorThunk
jAa:__ZN27GenericSlowGarbageCollector16ProcessReferenceEi
tYf:_RealProxy_InternalGetProxyType_m858618403
Aee:_FieldAccessException__ctor_m1240495912
w3i:_Uri_HexUnescapeMultiByte_m25670899
wDd:_CanvasScaler_set_dynamicPixelsPerUnit_m742632820
aik:_fopen
zgj:_GhostMove_Wait_m429097948
zWc:__ZN20TextRenderingPrivate8FontImplD2Ev
t4:__ZN19CloudServiceHandler8SaveFileERKN4core12basic_stringIcNS0_20StringStorageDefaultIcEEEEPKvj
exd:_BaseInputModule_HandlePointerExitAndEnter_m1570886840
CSf:_X509EnhancedKeyUsageExtension_CopyFrom_m1426370958
xzc:__ZN9rapidjson13GenericReaderINS_4UTF8IcEES2_13JSONAllocatorE10ParseValueILj1ENS_25GenericInsituStringStreamIS2_EENS_15GenericDocumentIS2_S3_S3_EEEEvRT0_RT1_
Iqk:_glFramebufferTexture2D__wrapper
Dfk:__ZN6il2cpp6icalls8mscorlib6System7Runtime8Remoting7Proxies9RealProxy27InternalGetTransparentProxyEP12Il2CppObjectP12Il2CppString
c0e:_List_1_AddEnumerable_m1000825969_gshared
y3j:__ZN6il2cpp2vm6Method10IsInflatedEPK10MethodInfo
w8j:__ZNK6il2cpp8metadata14Il2CppTypeLessclEPK10Il2CppTypeS4_
n9j:_GC_remove_header
GAj:__ZN15dense_hashtableINSt3__24pairIK10KeyWrapperIPK11Il2CppClassEPKcEES6_N6il2cpp5utils11PointerHashIS3_EEN14dense_hash_mapIS6_S9_SE_NS6_14EqualsComparerINS0_8equal_toIS5_EEEENS0_9allocatorISA_EEE9SelectKeyESJ_SL_E14squash_deletedEv
L_:__ZN17AudioClipPlayableC2E18DirectorPlayerType
eWi:_ConfigHandler_ReadCustomProviderData_m784203316
$pb:__ZNSt3__26vectorI17SortingLayerEntryNS_9allocatorIS1_EEE7reserveEj
CEf:_Context_set_MasterSecret_m1422386411
qUb:__Z19TransferField_ArrayI19StreamedBinaryWriteILb0EE27Converter_UnityEngineObjectEvRK23StaticTransferFieldInfoR31RuntimeSerializationCommandInfoRT0_
NLc:__ZN10ClipperLib7Clipper15AddLocalMinPolyEPNS_5TEdgeES2_RKNS_8IntPointE
_Af:_RSAManaged_ToXmlString_m2606223477
D$i:_CharacterClass__ctor_m1318163925
v6g:__Z150RuntimeInvoker_Void_t1841601450_Vector3_t2243707580_Color32_t874517518_Vector2_t2243707579_Vector2_t2243707579_Vector3_t2243707580_Vector4_t2243707581PFvvEPK10MethodInfoPvPS4_
L4f:_AssemblyName_GetObjectData_m1221677827
JMa:__Z16GetMSAALevelDesc9MSAALevel
MOi:_InternalEnumerator_1_get_Current_m4196174237_AdjustorThunk
A1a:__ZN8Renderer27EnsureTransformInfoUpToDateEv
wja:__ZN15dense_hashtableINSt3__24pairIKN4core12basic_stringIcNS2_20StringStorageDefaultIcEEEEP11AssetBundleEES6_20StringHash32FunctionIS6_EN14dense_hash_mapIS6_S9_SC_NS0_8equal_toIS6_EENS0_9allocatorISA_EEE9SelectKeyESF_SH_E9copy_fromERKSK_j
qvk:_emscripten_glFrontFace__wrapper
SCi:_Display_GetRenderingExtImpl_m3739199112
Oa:invoke_fiffi
Odk:__ZN6il2cpp5utils6Memory6CallocEjj
Gca:__ZN14SerializedFile14SerializedType8ReadTypeILb1EEEbibRPKhS3_Pi
Dqk:_emscripten_glRenderbufferStorage__wrapper
iub:__ZN8Playable7SetTimeEd
y8:__ZN13RuntimeStaticI12GraphicsCapsLb0EE16StaticInitializeEPv
vCa:__ZN9Texture3D17UploadToGfxDeviceEv
SCc:__Z18Transfer_BlittableI8JSONReadLb1E8Vector4fEvRK29SerializationCommandArgumentsR31RuntimeSerializationCommandInfo
OZc:_tt_cmap2_validate
iHf:_HttpsClientStream_U3CHttpsClientStreamU3Em__1_m4293802471
H2c:_cff_cmap_unicode_done
vye:_NumberFormatter_Init_m1515770916
T1i:_Literal_Compile_m3864266818
x7g:__Z72RuntimeInvoker_Boolean_t3825574718_CharU26_t1894467670_Int16_t4041245914PFvvEPK10MethodInfoPvPS4_
Lv:__ZN7mecanim5human9HumanGoal8TransferI19StreamedBinaryWriteILb0EEEEvRT_
Anb:__ZN9Scripting20SendScriptingMessageER10GameObjectPKc18ScriptingObjectPtr
Ana:__Z26IsSplashScreenFadeCompletev
EDb:__Z17SendMessageDirectR6ObjectRK17MessageIdentifierR11MessageData
Ohd:__Z40UnityWebRequest_CUSTOM_InternalSetMethodP12Il2CppObject21UnityWebRequestMethod
dd:_glGenSamplers
oNd:_InputField_LateUpdate_m1045279070
Glc:__Z42Register_UnityEngine_Camera_get_clearFlagsv
HHj:__ZNSt3__26__treeIP11Il2CppClassNS_4lessIS2_EENS_9allocatorIS2_EEED2Ev
y7h:_Dictionary_2_InitArrays_m852496598_gshared
nJi:_InternalEnumerator_1_get_Current_m1389169756_gshared
Vwg:_GUIScrollGroup_SetVertical_m3540700730
jig:_StringBuilder_set_Chars_m1019094834
gdb:__ZN15LODGroupManager24UpdateLODGroupComponentsEv
rib:__ZN13RenderManager27UpdatePreviousFrameMatricesEv
Ibb:__ZN6Camera10CustomCullERK23CameraCullingParametersR11CullResults
GJ:__ZN18StreamedBinaryReadILb0EE21TransferSTLStyleArrayI22OffsetPtrArrayTransferI9OffsetPtrIN7mecanim9animation17BlendTreeConstantEEEEEvRT_17TransferMetaFlags
$Ud:_Byte_System_IConvertible_ToUInt64_m2667486567
xea:__Z22SetManagerPtrInContextiP6Object
X6:__Z20IsTexEnvBuiltinParamPKcPi
DHb:__ZN14PlayerSettings8TransferI19StreamedBinaryWriteILb0EEEEvRT_
ECc:__Z18Transfer_BlittableI8JSONReadLb0E10ColorRGBAfEvRK29SerializationCommandArgumentsR31RuntimeSerializationCommandInfo
gcf:_Collection_1_Remove_m2017992820_gshared
Ipe:_Array_InternalArray__Insert_TisInt16_t4041245914_m371511339_gshared
g6f:_ConstructorBuilder_get_next_table_index_m932085784
f6h:_ValueCollection_System_Collections_ICollection_get_SyncRoot_m919209341_gshared
SDj:__ZN15dense_hashtableINSt3__24pairIK10KeyWrapperIN6il2cpp5utils13dynamic_arrayIPK10Il2CppTypeLj4EEEEPFvvEEESA_NS3_8metadata19Il2CppSignatureHashEN14dense_hash_mapISA_SD_SG_NSA_14EqualsComparerINSF_22Il2CppSignatureCompareEEENS0_9allocatorISE_EEE9SelectKeyESK_SM_E14squash_deletedEv
Dli:_Slider_UpdateDrag_m1963963631
y1f:_SByte_Equals_m755715567
rha:__ZN15DirectorManagerD2Ev
znf:_SortKeyBuffer_AppendNormal_m2554296431
V8b:__ZNK30SpriteRendererAnimationBinding15GenerateBindingERKN4core12basic_stringIcNS0_20StringStorageDefaultIcEEEEbRN11UnityEngine9Animation14GenericBindingE
J$g:__Z87RuntimeInvoker_Void_t1841601450_Int32_t2071877448_Single_t2076509932_Single_t2076509932PFvvEPK10MethodInfoPvPS4_
VZj:__ZN6il2cpp6icalls8mscorlib6System13Globalization11CultureInfo45construct_internal_locale_from_current_localeEP17Il2CppCultureInfo
BWh:__ZL70InputField_t1631627530_CustomAttributesCacheGenerator_m_CaretBlinkRateP21CustomAttributesCache
Ile:_Array_IndexOf_TisCustomAttributeNamedArgument_t94157543_m2205974312_gshared
Lle:_Array_IndexOf_TisAnimatorClipInfo_t3905751349_m4033344779_gshared
dTa:__ZN15TextureTFMethod16BindForRenderingEj
vhe:_Array_InternalArray__ICollection_Contains_TisUICharInfo_t3056636800_m2001435744_gshared
Oai:_DefaultComparer_GetHashCode_m3250641461_gshared
yTf:_Key_ToString_m1129871742
PRd:_Array_Sort_m1417611156
tik:_access
WOg:__Z59RuntimeInvoker_RuntimeObject_RuntimeObject_Int64_t909078037PFvvEPK10MethodInfoPvPS4_
o_j:__ZN15dense_hashtableINSt3__24pairIK10KeyWrapperINS1_IPKcS4_EEEiEES6_24NamespaceAndNamePairHashN14dense_hash_mapIS6_iS9_NS6_14EqualsComparerI26NamespaceAndNamePairEqualsEENS0_9allocatorIS8_EEE9SelectKeyESD_SF_E4findERS7_
b3i:_Uri_Merge_m2181117222
cUc:__ZN20TextRenderingPrivate8FontImpl13CharacterInfo8TransferI19StreamedBinaryWriteILb0EEEEvRT_
_Fj:__ZN6il2cpp2os19SocketHandleWrapper7ReleaseEv
UFd:_DefaultControls_CreateRawImage_m2572997170
Tmg:_TimeSpan_get_TotalDays_m3496775483_AdjustorThunk
KGb:__ZNSt3__27__sort4IRNS_6__lessINS_4pairIPKN5Unity4TypeE7Hash128EES8_EEPS8_EEjT0_SC_SC_SC_T_
Zra:__ZNK11NamedObject22GetTypeVirtualInternalEv
Clg:_Thread_Start_m1419497481
gI:__ZN14SafeBinaryRead21TransferSTLStyleArrayI22OffsetPtrArrayTransferIKN4math7_float3EEEEvRT_17TransferMetaFlags
b4g:__Z94RuntimeInvoker_Void_t1841601450_RuntimeObject_PlayableGraph_t1041204988_RuntimeObject_IntPtr_tPFvvEPK10MethodInfoPvPS4_
kve:_Array_InternalArray__get_Item_TisDictionaryEntry_t3048875398_m2371191320_gshared
EVh:__ZL62FontData_t2614388407_CustomAttributesCacheGenerator_m_RichTextP21CustomAttributesCache
aRg:__Z65RuntimeInvoker_Double_t4078015681_RuntimeObject_Int32_t2071877448PFvvEPK10MethodInfoPvPS4_
S9i:_Vector2_op_UnaryNegation_m2194368113
bHi:_InternalEnumerator_1_get_Current_m2351441486_gshared
i4h:_Enumerator_System_Collections_IEnumerator_Reset_m1146954164_AdjustorThunk
Evc:__ZN11IMGUIModule21QueryGUIDisplayTargetE17ScriptingClassPtr
gkc:__ZN11UTF16StringC2ERKS_18MemLabelIdentifier
vxg:_GUISkin_set_textField_m1154803040
wlk:dynCall_vidi
Ovg:_GUIStyle_GetRectOffsetPtr_m4223228888
hif:_ReadOnlyCollection_1_System_Collections_IList_Remove_m2350545199_gshared
lBg:_Input_get_mouseScrollDelta_m3430638853
glk:___udivdi3
M4b:__ZN11PlayerPrefs9SetStringERKN4core12basic_stringIcNS0_20StringStorageDefaultIcEEEES6_
dck:__ZN6il2cpp6icalls8mscorlib6System8Delegate18SetMulticastInvokeEP14Il2CppDelegate
CGc:__ZL18b2FindIncidentEdgeP12b2ClipVertexPK14b2PolygonShapeRK11b2TransformiS3_S6_
ysi:_AnimatorControllerPlayable_SetLayerWeight_m3897438650_AdjustorThunk
nPd:_LayoutGroup_get_minHeight_m2270010946
Ydd:__ZNSt3__26__treeINS_12__value_typeIN4core12basic_stringIcNS2_20StringStorageDefaultIcEEEEN11UnityEngine7Connect19RemoteSettingsValueEEENS_19__map_value_compareIS6_SA_NS_4lessIS6_EELb1EEE13stl_allocatorISA_L18MemLabelIdentifier5ELi16EEE16__construct_nodeERKNS_4pairIKS6_S9_EE
u2:__ZN11UnityEngine15CloudWebService20WebRequestRestClient5BeginEv
nzf:_ARC4Managed_GenerateIV_m2815460576
grd:_String_Substring_m2032624251
mbc:__ZN8Material12CleanupClassEv
K7d:_DateTime_get_DayOfWeek_m2345429939_AdjustorThunk
xog:_Type_GetTypeCode_m1044483454
hTi:_ResourceSet_GetObjectInternal_m3556256510
XQb:__Z22TransferField_NonArrayI17RemapPPtrTransfer27Converter_SimpleNativeClassI10RectOffsetEEvRK23StaticTransferFieldInfoR31RuntimeSerializationCommandInfoRT0_
g3d:_DateTimeOffset__ctor_m2870721395
rW:__ZN20SoundChannelInstance11set3DSpreadEf
zD:__ZNSt3__26__sortIRN11UnityEngine9Animation11BindingSortEPNS_4pairINS2_14GenericBindingEPNS2_10BoundIndexEEEEEvT0_SB_T_
fud:_String_ReplaceFallback_m64616664
oeg:_MonoMethod_GetCustomAttributes_m2493833930
vHb:__ZN24GenerateTypeTreeTransfer32TransferSTLStyleArrayWithElementI16SplashScreenLogoEEvRT_17TransferMetaFlags
nNj:__ZN15dense_hashtableINSt3__24pairIK10KeyWrapperINS1_IPK9FieldInfoP11Il2CppClassEEEjEES9_17ReflectionMapHashIS8_EN14dense_hash_mapIS9_jSD_NS9_14EqualsComparerINS0_8equal_toIS8_EEEENS0_9allocatorISB_EEE9SelectKeyESI_SK_E6insertERKSB_
_Aj:__ZN14dense_hash_mapI10KeyWrapperIPKcEP11Il2CppClassN6il2cpp5utils11StringUtils12StringHasherIS2_EENS3_14EqualsComparerINS7_13VmStringUtils21CaseSensitiveComparerEEENSt3__29allocatorINSF_4pairIKS3_S5_EEEEEC2EjRKSA_RKSE_
DCe:_Int32_System_IConvertible_ToDouble_m3322226667_AdjustorThunk
epe:_Array_InternalArray__ICollection_CopyTo_TisPlayableBinding_t2498078091_m2296273826_gshared
elk:_memmove
jwj:_Comparison_1_BeginInvoke_m4224593217_gshared
T1f:_CodeAccessPermission_ToString_m3345031296
Z1j:__ZN6il2cpp2vm6Object5UnboxEP12Il2CppObject
BMf:_FtpWebRequest__ctor_m3003551676
alc:__Z52Register_UnityEngine_ScriptableObject_CreateInstancev
Tsf:_EncryptedPrivateKeyInfo__ctor_m832236482
U6:__ZN23DefaultMeshVertexFormatC2E17ShaderChannelMask
KVb:__ZL26Transfer_SimpleNativeClassI18StreamedBinaryReadILb1EE8GradientLb1EEvRK29SerializationCommandArgumentsR31RuntimeSerializationCommandInfo
osd:_Single_Equals_m3359827399
mlg:_Thread_FreeLocalSlotValues_m2948667652
fjb:__ZNSt3__26vectorINS_4pairIN4core12basic_stringIcNS2_20StringStorageDefaultIcEEEES6_EE13stl_allocatorIS7_L18MemLabelIdentifier37ELi16EEE12__move_rangeEPS7_SC_SC_
wh:_glBlendEquation
hkj:_InvokableCall_2_Invoke_m1071013389_gshared
JVb:__ZL26Transfer_SimpleNativeClassI18StreamedBinaryReadILb1EE8GradientLb0EEvRK29SerializationCommandArgumentsR31RuntimeSerializationCommandInfo
Aqf:_ASN1Convert_ToOid_m2695991795
X4c:_UNITY_FT_Init_Class_tt_service_truetype_glyf
kek:__ZN6il2cpp2os5Mutex7TryLockEjb
V6:__Z20IsVectorBuiltinParamPKcPi
w1j:__ZN6il2cpp2vm5Field8GetFlagsEP9FieldInfo
_Gg:_PlayableGraph_INTERNAL_CALL_CreatePlayableHandleInternal_m1089209954
AMi:_InternalEnumerator_1_get_Current_m727737343_AdjustorThunk
CWj:__ZN6il2cpp6icalls8mscorlib6System10ReflectionL16LoadResourceFileEP24Il2CppReflectionAssembly
ica:__Z13IsFileCreatedRKN4core12basic_stringIcNS_20StringStorageDefaultIcEEEE
jdk:__ZN6il2cpp6icalls8mscorlib6System21CurrentSystemTimeZone15GetTimeZoneDataEiPP11Il2CppArrayS6_
jxb:__ZN16LightmapSettings18TransferDeprecatedI14SafeBinaryReadEEvRT_
gFb:__ZN8Renderer11SetMaterialE4PPtrI8MaterialEi
h1j:__ZN15dense_hashtableINSt3__24pairIK10KeyWrapperIP12Il2CppObjectEN6il2cpp2gc9CachedCCWEEES5_NS7_5utils11PointerHashIS3_EEN14dense_hash_mapIS5_S9_SD_NS5_14EqualsComparerINS0_8equal_toIS4_EEEENS0_9allocatorISA_EEE9SelectKeyESI_SK_E5eraseE30dense_hashtable_const_iteratorISA_S5_SD_SM_SI_SK_E
oaa:__ZN15dense_hashtableINSt3__24pairIKiP6ObjectEEi21InstanceIDHashFunctorN14dense_hash_mapIiS4_S6_NS0_8equal_toIiEE13stl_allocatorIS5_L18MemLabelIdentifier65ELi16EEE9SelectKeyES9_SC_E12maybe_shrinkEv
Jsd:_String__cctor_m710226597
iRi:_DefaultComparer_Compare_m3953592365_gshared
Ldf:_Collection_1_IsValidItem_m404831699_gshared
tng:_TimeSpan_Negate_m4198463235_AdjustorThunk
Erb:__ZN12FlareManager9AddCameraER6Camera
hX:__ZN11AudioSource8TransferI14SafeBinaryReadEEvRT_
Efc:__ZN4Mesh17SetIndicesComplexEPKvjj16GfxPrimitiveTypei
zfg:_ParameterInfo_GetCustomAttributes_m2985072480
dcf:_Collection_1_Insert_m4010554762_gshared
Qy:__ZN7mecanim9animation23TransformDeltasFromClipEiiiRKNS0_18ClipMuscleConstantERKNS0_12ClipBindingsERKNS_14ValueArrayMaskERN4math4trsXESC_SC_
dTe:_Enumerator_System_Collections_IEnumerator_get_Current_m3866069145_AdjustorThunk
Jse:_Array_Sort_TisRuntimeObject_m1954851512_gshared
Ls:__ZN14SafeBinaryRead21TransferSTLStyleArrayI22OffsetPtrArrayTransferIfEEEvRT_17TransferMetaFlags
oLc:__ZTv0_n12_N10ClipperLib7ClipperD0Ev
UCg:_Matrix4x4_GetColumn_m1367096730_AdjustorThunk
BXi:_ContextAttribute_GetHashCode_m3646968314
snf:_SimpleCollator_GetSortKey_m540875593
T1b:__ZN9ShaderLab9IntShader26CreateFromSerializedShaderERKNS_16SerializedShaderERNSt3__26vectorI4PPtrI6ShaderENS4_9allocatorIS8_EEEEbPS7_
c2a:__ZN19ShaderPropertySheet16SetComputeBufferEN9ShaderLab16FastPropertyNameE15ComputeBufferIDNS_8SetFlagsE
H5j:__ZNK15dense_hashtableINSt3__24pairIK10KeyWrapperIPK19Il2CppGenericMethodEP10MethodInfoEES6_N6il2cpp8metadata23Il2CppGenericMethodHashEN14dense_hash_mapIS6_S9_SD_NS6_14EqualsComparerINSC_26Il2CppGenericMethodCompareEEENS0_9allocatorISA_EEE9SelectKeyESH_SJ_E5beginEv
Uy:__ZN7mecanim21CreateFloatValueArrayEPKNS_18ValueArrayConstantERNS_6memory9AllocatorE
plg:_Thread_GetCachedCurrentCulture_m450033007
ydb:__ZL12CullGroupJobP20CullingGroupsJobDataj
L9j:_GC_remove_dangling_disappearing_links
i3:__ZN11UnityEngine15CloudWebService14RestDownloader9IsAbortedEv
_B:__ZN7mecanim12statemachine28DestroyStateMachineWorkspaceEPNS0_21StateMachineWorkspaceERNS_6memory9AllocatorE
Pk:_emscripten_glNormalPointer
ixc:__Z30GUIStyle_CUSTOM_SetDefaultFontP12Il2CppObject
JUf:_Interval_t2354235237_marshal_pinvoke_back
to:FUNCTION_TABLE_f
jp:FUNCTION_TABLE_i
iAh:__ZL86Application_t354826772_CustomAttributesCacheGenerator_Application_LoadLevel_m393995325P21CustomAttributesCache
Jae:_Decimal_ToString_m541380585_AdjustorThunk
bja:__ZN11TypeManager12RegisterTypeERK20TypeRegistrationDesc
In:FUNCTION_TABLE_v
LCb:__ZNSt3__26vectorI17BlendShapeChannelNS_9allocatorIS1_EEE8__appendEj
GKd:_Image_get_preserveAspect_m2161836851
SJ:__ZN19StreamedBinaryWriteILb0EE19TransferSTLStyleMapINSt3__23mapIjN4core12basic_stringIcNS4_20StringStorageDefaultIcEEEENS2_4lessIjEENS2_9allocatorINS2_4pairIKjS8_EEEEEEEEvRT_17TransferMetaFlags
uq:__ZN18StreamedBinaryReadILb0EE21TransferSTLStyleArrayI13dynamic_arrayI8Vector3fLj4EEEEvRT_17TransferMetaFlags
t$a:__ZZ23InitPlayerLoopCallbacksvEN43PostLateUpdateUpdateAllRenderersRegistrator7ForwardEv
xBa:__ZN21LightProbeProxyVolume13GetRenderDataER27LightProbeProxyVolumeSample
S6d:_CurrentSystemTimeZone_GetDaylightChanges_m2777828412
YIj:__ZN6il2cpp2vm7Runtime30CallUnhandledExceptionDelegateEP12Il2CppDomainP14Il2CppDelegateP15Il2CppException
Rij:_Predicate_1_Invoke_m577088274_gshared
AYf:_RemotingProxy_get_TypeName_m1400928020
qGb:__ZN11TimeManager8TransferI24GenerateTypeTreeTransferEEvRT_
xnf:_SortKeyBuffer_GetResult_m962852575
enf:_SimpleCollator_Category_m1504096908
qr:__ZNK11UnityEngine9Animation28GenericAnimationBindingCache10BindCustomERKNS0_14GenericBindingER9TransformRNS0_10BoundCurveE
_dd:__ZN18UnityConnectClient17InitConnectClientEv
aGi:_ArrayReadOnlyList_1_ReadOnlyError_m2158247090_gshared
Ngk:_memcmp
a8d:_DateTime_CompareTo_m3372173896
DKg:_Rect_ToString_m2728794442
Vza:__ZN9Scripting32GetCachedPtrFromScriptingWrapperE18ScriptingObjectPtr
i8c:__ZN2UI29ScheduleUIJobsForInstructionsERNS_7BatchesEjPKNS_13UIInstructionEfjjPNS_13CanvasJobDataE
EU:__ZN5audio5mixer22CreateAudioMixerMemoryERKNS0_18AudioMixerConstantEPN4FMOD6SystemERN7mecanim6memory9AllocatorEib
yKb:__ZL65EmitSerializationCommandsForLinearCollectionOfManagedObjectsFieldRK31TransferFunctionScriptingTraitsRK23TransferArrayField_InfoR20SerializationCommandR32SerializationCommandQueueBuilderRP20AllowNameConversions
aIf:_RSASslSignatureDeformatter_VerifySignature_m3138484348
Coe:_Array_InternalArray__ICollection_CopyTo_TisDecimal_t724701077_m1087621311_gshared
W1h:_Enumerator_System_Collections_IDictionaryEnumerator_get_Value_m2325383168_AdjustorThunk
j5d:_Convert_ToInt64_m4280008532
Woc:__Z28Mesh_CUSTOM_SetTrianglesImplP12Il2CppObjectiP11Il2CppArrayih
hXh:__ZL61RawImage_t2749640213_CustomAttributesCacheGenerator_m_TextureP21CustomAttributesCache
iGa:__ZL20ShaderWarmupFuncImplP6ShaderiPN9ShaderLab4PassERK16ShaderKeywordSetP10DynamicVBOPvR17ShaderPassContext
djd:_HMAC_set_Key_m1530357889
ku:__ZNSt3__26vectorIN13AnimationClip15QuaternionCurveE13stl_allocatorIS2_L18MemLabelIdentifier25ELi16EEE18__construct_at_endINS_11__wrap_iterIPS2_EEEENS_9enable_ifIXsr21__is_forward_iteratorIT_EE5valueEvE4typeESC_SC_j
S3i:_Vector2_get_zero_m3966848876
MCj:__ZN15dense_hashtableI10KeyWrapperIPK17Il2CppGenericInstES4_N6il2cpp8metadata21Il2CppGenericInstHashEN14dense_hash_setIS4_S7_NS4_14EqualsComparerINS6_24Il2CppGenericInstCompareEEENSt3__29allocatorIS4_EEE8IdentityESB_SE_E6insertERKS4_
FMj:__ZN15dense_hashtableINSt3__24pairIK10KeyWrapperINS1_IPK14Il2CppAssemblyP11Il2CppClassEEEjEES9_17ReflectionMapHashIS8_EN14dense_hash_mapIS9_jSD_NS9_14EqualsComparerINS0_8equal_toIS8_EEEENS0_9allocatorISB_EEE9SelectKeyESI_SK_E3endEv
Bnk:dynCall_iiii
thi:_Scrollbar_set_numberOfSteps_m579707524
Xgk:_fmt_u
jNa:__ZN14DataBufferGLES12RecordUpdateEv
cgg:_ResourceManager__cctor_m2190112652
qVc:__ZN20TextRenderingPrivate15DynamicFontData28GetFaceForFontRefFromOSFontsERKNS_7FontRefE
q_b:__ZN9ShaderLab19SerializedSubShader8TransferI14SafeBinaryReadEEvRT_
G0a:__ZN10systeminfo19IsPlatformWebPlayerE15RuntimePlatform
$1j:__ZN6il2cpp2vm12GenericClass12SetupMethodsEP11Il2CppClass
mma:__ZNK20LocalFileSystemPosix18GetApplicationPathEv
J3d:_Decimal__ctor_m3876694886
uKb:__ZN9Scripting30IsSystemCollectionsGenericListE17ScriptingClassPtr
ASd:_AttributeUsageAttribute__ctor_m2873156923
A8c:__ZN2UI23InitializeCanvasManagerEv
ygb:__ZN10GameObject16CheckConsistencyEv
k9b:__ZN14RenderSettings15InitializeClassEv
POf:_AsnEncodedData_set_Oid_m3568255745
unc:__Z46Register_UnityEngine_GameObject_get_activeSelfv
QIf:_SslClientStream_OnRemoteCertificateValidation2_m3416857045
T0f:_RuntimeTypeHandle_Equals_m452760426_AdjustorThunk
Hyi:_Camera_get_depth_m1329692468
u9b:__ZL19OnLightProbesUpdatev
AQi:_InternalEnumerator_1_System_Collections_IEnumerator_get_Current_m762846484_AdjustorThunk
M8b:__ZN14SpriteRenderer13GetRenderDataEv
K7c:__ZN2UI16GetCanvasManagerEv
ivc:__ZNK8GUIStyle20GetCursorStringIndexERK5RectTIfER10GUIContentRK8Vector2f
Dbf:_Collection_1_ConvertItem_m3057301945_gshared
zmc:__Z31RectOffset_Get_Custom_PropRightP12Il2CppObject
X5c:__Z54Register_UnityEngine_TextGenerator_GetVerticesInternalv
zkd:__Z3BoxP11Il2CppClassPv
Tfe:_CultureInfo_Clone_m2970753766
cUf:_IntStack_Push_m1259764820
iTa:__ZN21UniformBufferTFMethodD2Ev
FGe:_FileStream_InitBuffer_m2153931481
apg:_Type_MakeGenericType_m2765875033
Bic:__ZL34GetComponentsImplementationRecurseILb1ELi1ELi2EEbR10GameObjectbRK17CompareParametersRK39GetComponentsImplementation_ReturnValue
Jwa:__ZN6prcoreL12RemapGenericI15TexFormatRGB56515TexFormatRGB888EEvPKNS_9InnerInfoE
ANd:_InputField_OnEndDrag_m1818224847
tbj:_WWW_EscapeURL_m3653156031
txe:_NumberFormatter_GetInstance_m2421260460
N9c:__Z41CanvasGroup_Get_Custom_PropBlocksRaycastsP12Il2CppObject
m_b:__ZNSt3__26vectorIN9ShaderLab26SerializedShaderDependencyENS_9allocatorIS2_EEE8__appendEj
MKi:_InternalEnumerator_1_System_Collections_IEnumerator_get_Current_m4242639349_gshared
Wda:__ZN32TransformHierarchyChangeDispatch26DispatchSelfAndAllChildrenE15TransformAccessNS_12InterestTypeE
qhg:_UTF32Encoding__ctor_m3199945978
Bfa:__ZN13RuntimeStaticI22VirtualJoystickManagerLb0EE13StaticDestroyEPv
zR:__ZN13AudioListener12ApplyFiltersEv
kAi:_CanvasRenderer_set_cull_m1437892490
Zti:_AnimatorControllerPlayable_PlayInFixedTime_m3726932292_AdjustorThunk
aAe:_SortKey_GetHashCode_m2534654444
Sge:_Array_InternalArray__ICollection_Contains_TisInt64_t909078037_m1425723755_gshared
CFf:_HandshakeMessage_Update_m1733566706
ynk:dynCall_viiif
gek:__ZN6il2cpp8metadata27Il2CppGenericContextCompare7CompareEPK20Il2CppGenericContextS4_
Cmk:dynCall_viiii
kYd:_ArrayListWrapper_ToArray_m235921330
izf:_ARC4Managed_set_Key_m663161993
gcg:_MemberInfoSerializationHolder_Serialize_m4243060728
yfi:_MaskableGraphic_OnDisable_m2605143092
KLj:__ZNSt3__214__split_bufferIN6il2cpp2vm17TypeNameParseInfoERNS_9allocatorIS3_EEED2Ev
DAi:_Collision2D_get_transform_m314016758
Tog:_Type_GetConstructor_m663514781
BDe:_Int64_System_IConvertible_ToDouble_m638786774_AdjustorThunk
P2g:__Z98RuntimeInvoker_Void_t1841601450_Rect_t3681755626_RuntimeObject_Int32_t2071877448_Int32_t2071877448PFvvEPK10MethodInfoPvPS4_
ria:__ZN15DirectorManager14ConnectionPool16GrowEmptyBucketsEv
jCe:_Int16_ToString_m1247017262
aaa:__ZN17PersistentManager32CopyToAwakeFromLoadQueueInternalER18AwakeFromLoadQueue
qbe:_Delegate_Combine_m1976351882
jKc:__ZN10Collider2D23VirtualRedirectTransferER24GenerateTypeTreeTransfer
L6a:__ZNK6Camera16SetActiveVRUsageEv
Mqg:_UInt32_System_IConvertible_ToUInt16_m2798641702
Wqk:_emscripten_glDrawElementsInstanced__wrapper
z$:__ZN13PlayableGraph12CreateOutputI19AudioPlayableOutputEEPT_PKc
w7i:_Texture_Internal_GetWidth_m56137242
eDc:__ZL26Transfer_SimpleNativeClassI8JSONRead8GradientLb1EEvRK29SerializationCommandArgumentsR31RuntimeSerializationCommandInfo
phk:_open
LQc:__ZN6b2Body7SetTypeE10b2BodyType
LVj:__ZN6il2cpp6icalls8mscorlib6System5Array5CloneEP11Il2CppArray
yib:__Z30GetPlayerShouldRunInBackgroundv
N_:__ZNK17AudioClipPlayable13GetStartDelayEv
pQi:_InternalEnumerator_1_get_Current_m2986222582_gshared
Jsg:_UnitySerializationHolder__ctor_m2832165173
Mig:_UnicodeEncoding_GetBytes_m4175529985
W8c:__Z13RegisterClassIN2UI6CanvasEEvv
Ehi:_Selectable_OnDisable_m2660228016
Dwa:__ZN6prcoreL12RemapGenericI11TexFormatI815TexFormatRGB565EEvPKNS_9InnerInfoE
$dc:__ZN16StreamedResource8TransferI19StreamedBinaryWriteILb0EEEEvRT_
uWg:__Z75RuntimeInvoker_DateTime_t693205669_DateTime_t693205669_TimeSpan_t3430258949PFvvEPK10MethodInfoPvPS4_
lHa:__ZNK13TranslateGLES17FramebufferTargetEN2gl17FramebufferTargetE
o4j:__ZL11on_gc_event11GCEventType
FUj:__ZNSt3__214__split_bufferIN6il2cpp8metadata18GenericArrayMethodERNS_9allocatorIS3_EEED2Ev
Erd:_Single_System_IConvertible_ToBoolean_m2661548087_AdjustorThunk
UOc:__ZNSt3__27__sort5IR31RayHitsByInverseDepthComparitorP12RaycastHit2DEEjT0_S5_S5_S5_S5_T_
t3f:_DSASignatureDeformatter_VerifySignature_m4078616251
Fpk:b62
Epk:b61
Dpk:b60
Kpk:b67
Dme:_Array_InternalArray__IndexOf_TisUInt16_t986882611_m390127593_gshared
ILd:_InputField_set_shouldHideMobileInput_m2478534110
Hpk:b64
uud:_String_Concat_m3881798623
Hqk:b68
N8f:_FieldBuilder_IsDefined_m2730324893
twh:__ZL56FlagsAttribute_t859561169_CustomAttributesCacheGeneratorP21CustomAttributesCache
GZg:__Z102RuntimeInvoker_RuntimeObject_RuntimeObject_RuntimeObject_Int32_t2071877448_RuntimeObject_RuntimeObjectPFvvEPK10MethodInfoPvPS4_
xsi:_AnimatorControllerPlayable_SetLayerWeight_m3897438650
ylf:_ReadOnlyCollection_1_System_Collections_IList_Insert_m571902768_gshared
IUg:__Z93RuntimeInvoker_Single_t2076509932_SingleU26_t4173844468_Single_t2076509932_Single_t2076509932PFvvEPK10MethodInfoPvPS4_
Emk:dynCall_iifffi
Bgc:__Z9SetIIMGUIP6IIMGUI
t0d:_SyncHashtable_ContainsKey_m3408601214
e_c:_tt_cmap10_get_info
foa:__Z28SetupPixelCorrectCoordinatesi
$Kd:_Image_set_material_m982841032
OMa:__Z5SplitRKN4core12basic_stringIcNS_20StringStorageDefaultIcEEEEcRNSt3__26vectorIS3_NS6_9allocatorIS3_EEEEi
o2i:_RegularExpression_Compile_m3944989565
Wyj:__ZN6il2cpp2vmL10InitLockedEP11Il2CppClassRKNS_2os12FastAutoLockE
hdb:__ZN15LODGroupManager26CollectAllLODGroupManagersEPK6CameraR13dynamic_arrayIPS_Lj4EEb
zt:__ZNSt3__26vectorIN13AnimationClip10FloatCurveE13stl_allocatorIS2_L18MemLabelIdentifier25ELi16EEE8__appendEj
Oaa:__ZN17ScriptingGCHandle28ResolveBackendNativeGCHandleEj
yt:__ZN13AnimationClip10FloatCurveC2ERKS0_
xdc:__ZN13PlayableGraph16DestroyRecursiveEP8Playable
JJ:__ZN15SerializeTraitsI9OffsetPtrIN7mecanim9animation19Blend1dDataConstantEEE8TransferI18StreamedBinaryReadILb0EEEEvRS4_RT_
dce:_Double_System_IConvertible_ToType_m4036266196_AdjustorThunk
GR:__ZN12AudioManagerD0Ev
Vgk:___fwritex
cc:invoke_viiififii
BHe:_Stream_EndRead_m2148943753
xIb:__ZNK22GenericPropertyBinding13SetFloatValueERKN11UnityEngine9Animation10BoundCurveEf
b9b:__ZN6ShaderC2E18MemLabelIdentifier18ObjectCreationMode
Yoi:_AnimationClipPlayable_INTERNAL_CALL_SetRemoveStartOffsetInternal_m4218625892
nXc:_raccess_guess_darwin_ufs_export
$Bf:_CipherSuite_get_ExpandedKeyMaterialSize_m296573450
M_a:__ZN11TypeManager18InitializeAllTypesEv
QP:__ZN9AudioClipD0Ev
z4i:_Renderer_get_sortingOrder_m1544525007
tJj:_il2cpp_class_from_name
Nhe:_Array_InternalArray__ICollection_Remove_TisKeyValuePair_2_t38854645_m3060436673_gshared
vYe:_List_1_Find_m3480386930_gshared
sci:_EqualityComparer_1__cctor_m51007461_gshared
zA:__ZN27AnimationLayerMixerPlayable26ProcessAnimationLayerBeginEP35AnimationPlayableEvaluationConstantP32AnimationPlayableEvaluationInputP33AnimationPlayableEvaluationOutput
g6b:__Z13RegisterClassI8GUILayerEvv
Zmb:__ZN25ThreadsafeLinearAllocatorC2EiiPKc
Snf:_SimpleCollator_IsSuffix_m740049399
eRa:__ZN14GfxContextGLES11MakeCurrentER7ApiGLESN2gl13ContextHandleE
Ucj:_PKCS12__cctor_m3312759338
F3c:_UNITY_tt_glyphzone_new
MDf:_RecordProtocol_BeginSendRecord_m166940611
lNe:_ShortComparer_Compare_m1398180168
X4i:_Screen_get_width_m41137238
LFg:_Object_Internal_InstantiateSingleWithParent_m509082884
bGa:__ZN16GraphicsSettings22WarmupPreloadedShadersEv
_ad:__Z34Canvas_Set_Custom_PropSortingOrderP12Il2CppObjecti
OIe:_MonoIO_get_ConsoleError_m592181393
Lxj:__ZL11decimalLog2P19il2cpp_decimal_repr
lIf:_SslCipherSuite_prf_m2084589217
fb:invoke_iiiiiiffiiiiiiiiiffffiii
w6c:__ZN2UI6Canvas8TransferI14SafeBinaryReadEEvRT_
TH:__ZN38StateMachineBehaviourVectorDescription8TransferI14SafeBinaryReadEEvRT_
_Bi:_Coroutine_Finalize_m3953619693
C3g:__Z51RuntimeInvoker_Color32_t874517518_Color_t2020392075PFvvEPK10MethodInfoPvPS4_
D9i:_Vector2_op_Division_m96580069
o0:__ZN11UnityEngine15CloudWebService17CloudJobScheduler11ScheduleJobEPFvPvES2_
mSh:__ZL57CSSMeasureFunc_t2092170507_CustomAttributesCacheGeneratorP21CustomAttributesCache
SAe:_Guid_Equals_m2389236871_AdjustorThunk
x1:__ZN11UnityEngine15CloudWebService17CloudServiceEvent12ToJsonStringER9JSONWrite
$fa:__ZNK18VertexChannelsInfoltERKS_
zsh:__ZL93ASCIIEncoding_t3022927988_CustomAttributesCacheGenerator_ASCIIEncoding_GetDecoder_m3693600923P21CustomAttributesCache
Wyc:__ZN9JSONWrite8TransferIfEEvRT_PKc17TransferMetaFlags
OEd:_ContentSizeFitter_SetLayoutHorizontal_m2830034151
hYa:__ZN10MemoryFileD0Ev
Qdc:__ZN10MonoScript27InitializeAndRegisterScriptERKN4core12basic_stringIcNS0_20StringStorageDefaultIcEEEES6_S6_S6_b
G2f:_DES_set_Key_m2689203108
FHi:_InternalEnumerator_1_get_Current_m1526874475_gshared
fwe:_Array_InternalArray__get_Item_TisWorkRequest_t1154022482_m2456727038_gshared
kcj:_SubjectAltNameExtension_ToString_m1300810903
rtf:_RSAManaged_ImportParameters_m2382611442
bSi:_Comparer_1_System_Collections_IComparer_Compare_m2490067344_gshared
u_i:_PatternCompiler_EmitSet_m866698437
_d:_glDrawArrays
IJd:_GridLayoutGroup_set_startCorner_m1660251450
aKi:_InternalEnumerator_1_System_Collections_IEnumerator_get_Current_m127456009_AdjustorThunk
drj:_HashSet_1_System_Collections_Generic_ICollectionU3CTU3E_CopyTo_m1933244740_gshared
cth:__ZL54UTF8Encoding_t111055448_CustomAttributesCacheGeneratorP21CustomAttributesCache
FK:__ZN23AnimatedPropertyBuilder5BuildEP13AnimationClip18ScriptingObjectPtr
Vec:__Z17InstantiateObjectR6ObjectR9TransformRK8Vector3fRK11Quaternionf
gDe:_Int32_TryParse_m656840904
Ghe:_Array_InternalArray__ICollection_Remove_TisChar_t3454481338_m1562002771_gshared
xDe:_Int64_System_IConvertible_ToDateTime_m1002280174_AdjustorThunk
_Cb:__ZN14BlendShapeData8TransferI18StreamedBinaryReadILb0EEEEvRT_
Efk:__ZN6il2cpp6icalls8mscorlib6System7Runtime8Remoting7Proxies9RealProxy20InternalGetProxyTypeEP12Il2CppObject
F2a:__ZN13sorted_vectorINSt3__24pairIiN17InstancedPropInfo12PropertyTypeEEEN10vector_mapIiS3_NS0_4lessIiEE13stl_allocatorIS4_L18MemLabelIdentifier1ELi16EEE13value_compareESA_E21sort_clear_duplicatesEv
T3c:_Round_To_Grid
yVc:_UNITY_FT_Stream_Close
Vja:__ZL20FormatOrderedProcessPKcP17FormatOrderedDataPc
IH:__ZNK18AnimatorController13GetBehavioursEv
jFc:__ZN9rapidjson6WriterI16TempBufferWriterNS_4UTF8IcEES3_13JSONAllocatorE9WriteBoolEb
jmc:__Z35DebugLogHandler_CUSTOM_Internal_Log7LogTypeP12Il2CppStringP12Il2CppObject
Vqk:_emscripten_glShaderBinary__wrapper
iQa:__ZL17ProgramUniform3ivPK7ApiGLESjiihPKv
gJa:__ZN9GfxDevice25GetBackBufferColorSurfaceEv
zYa:__ZN25SingleBlockMemoryFileData9SetLengthEy
yec:__Z29AwakeAndActivateClonedObjectsPP6ObjectRK10vector_mapIiiNSt3__24lessIiEE13stl_allocatorINS3_4pairIiiEEL18MemLabelIdentifier1ELi16EEE
Sfd:__ZN21DownloadHandlerBuffer22OnReceiveContentLengthEj
zSj:__ZN15dense_hashtableINSt3__24pairIK10KeyWrapperINS1_IPK10MethodInfoP11Il2CppClassEEEjEES9_17ReflectionMapHashIS8_EN14dense_hash_mapIS9_jSD_NS9_14EqualsComparerINS0_8equal_toIS8_EEEENS0_9allocatorISB_EEE9SelectKeyESI_SK_E14squash_deletedEv
v4g:__Z55RuntimeInvoker_Void_t1841601450_RaycastResult_t21186376PFvvEPK10MethodInfoPvPS4_
x6b:__Z13RegisterClassI6ShaderEvv
KBe:_Int16_System_IConvertible_ToUInt32_m883204517
LSi:_ResourceCacheItem_t333236149_marshal_pinvoke_cleanup
IUe:_List_1_CheckMatch_m1196994270_gshared
s7:__ZN13RuntimeStaticI11WindManagerLb0EE13StaticDestroyEPv
v6d:_Convert_ToUInt64_m3559662221
LAc:__Z18Transfer_BlittableI9JSONWriteLb1EaEvRK29SerializationCommandArgumentsR31RuntimeSerializationCommandInfo
uSj:__ZN13Il2CppHashMapINSt3__24pairIPK10MethodInfoP11Il2CppClassEEj17ReflectionMapHashIS7_ENS0_8equal_toIS7_EENS0_9allocatorINS1_IK10KeyWrapperIS7_EjEEEEEC2EjRKS9_RKSB_
$Wd:_ArrayList_set_Item_m1858827078
iCa:__ZN9Texture3D23VirtualRedirectTransferER19StreamedBinaryWriteILb0EE
wzf:_HMAC__ctor_m2605930831
hZ:__Z13RegisterClassI10SampleClipEvv
AGc:__Z23b2CollideRadialPolygonsP10b2ManifoldPK14b2PolygonShapeRK11b2TransformS3_S6_
H9a:__ZNK23ForwardShaderRenderLoop18RenderObjectSorterILb1EEclERK21ForwardRenderPassDataS4_
j$:__Z76Register_UnityEngine_Audio_AudioClipPlayable_INTERNAL_CALL_GetLoopedInternalv
mEj:__ZN15dense_hashtableI10KeyWrapperIPK19Il2CppGenericMethodES4_N6il2cpp8metadata23Il2CppGenericMethodHashEN14dense_hash_setIS4_S7_NS4_14EqualsComparerINS6_26Il2CppGenericMethodCompareEEENSt3__29allocatorIS4_EEE8IdentityESB_SE_E12maybe_shrinkEv
ZTa:__ZN10BufferGLES10BeginWriteEjj
lEj:__ZNK15dense_hashtableI10KeyWrapperIPK19Il2CppGenericMethodES4_N6il2cpp8metadata23Il2CppGenericMethodHashEN14dense_hash_setIS4_S7_NS4_14EqualsComparerINS6_26Il2CppGenericMethodCompareEEENSt3__29allocatorIS4_EEE8IdentityESB_SE_E12test_deletedEj
RE:__ZN7mecanim12statemachine18StateMachineMemory8TransferI9BlobWriteEEvRT_
tTj:__GLOBAL__sub_I_ArrayMetadata_cpp
jrg:_UInt64_System_IConvertible_ToByte_m953298241
YTa:__ZN7ApiGLES11FlushBufferEjN2gl12BufferTargetEll
E6d:_Convert_ToUInt64_m1896191125
QOb:__ZN14SafeBinaryRead21TransferSTLStyleArrayI13dynamic_arrayI8BitFieldLj4EEEEvRT_17TransferMetaFlags
vRa:__ZN12_GLOBAL__N_127PrepareReadback_ResolveMSAAER18GfxFramebufferGLESR7ApiGLESP17RenderSurfaceGLESS5_
V7f:_EnumBuilder_GetAttributeFlagsImpl_m4263246832
Q$g:__Z98RuntimeInvoker_RaycastHit2D_t4063908774_Vector2_t2243707579_Vector2_t2243707579_Single_t2076509932PFvvEPK10MethodInfoPvPS4_
E5f:_CustomAttributeData_GetHashCode_m3989739430
Kmi:_Text_AssignDefaultFont_m1295571657
Qac:__ZNK24RendererAnimationBinding9BindValueER6ObjectRKN11UnityEngine9Animation14GenericBindingERNS3_10BoundCurveE
obj:_WWW_get_text_m1558985139
Ze:_glBindBuffer
HYb:__ZN8GUIStyle8TransferI18StreamedBinaryReadILb0EEEEvRT_
Hga:__ZNSt3__213__stable_sortIRN10vector_mapIijNS_4lessIiEENS_9allocatorINS_4pairIijEEEEE13value_compareENS_11__wrap_iterIPS6_EEEEvT0_SE_T_NS_15iterator_traitsISE_E15difference_typeEPNSH_10value_typeEi
svi:_Application_get_platform_m3989224144
Fne:_Array_InternalArray__ICollection_Add_TisCustomAttributeNamedArgument_t94157543_m1003067274_gshared
Mgj:_MenuNavigation_Play_m3591177516
hqc:__ZN13PlayableGraph12CreateOutputI20ScriptPlayableOutputEEPT_PKc
v3b:__ZNSt3__218__insertion_sort_3IRNS_6__lessIN4core12basic_stringIcNS2_20StringStorageDefaultIcEEEES6_EEPS6_EEvT0_SA_T_
jSe:_Enumerator_System_Collections_IEnumerator_Reset_m925111644_gshared
NAa:__ZN18LoadSceneOperation13CleanupMemoryEv
Agk:_isupper
t_g:__Z93RuntimeInvoker_Vector3_t2243707580_Vector3_t2243707580_Vector3_t2243707580_Single_t2076509932PFvvEPK10MethodInfoPvPS4_
z4f:_AssemblyName__ctor_m609734316
Ogg:_Encoding_set_DecoderFallback_m2255528738
pua:__ZNSt3__26__treeINS_12__value_typeIN9ShaderLab16FastPropertyNameEN18UnityPropertySheet11UnityTexEnvEEENS_19__map_value_compareIS3_S6_NS_4lessIS3_EELb1EEENS_9allocatorIS6_EEE7destroyEPNS_11__tree_nodeIS6_PvEE
Mr:__ZN13AnimationClip17MainThreadCleanupEv
rJf:_InternalAsyncResult_get_IsCompleted_m1463732458
xFj:__ZN6il2cpp2vm13MetadataCache24GetExportedTypeFromIndexEi
nY:__ZN18AudioMixerPlayable18InsertFMODResourceEPN4FMOD6SystemE
hjk:_getuid
iKd:_HorizontalLayoutGroup_CalculateLayoutInputVertical_m3516192138
tL:__ZN7mecanim5human8BoneNameEj
N6b:__Z13RegisterClassI10MonoScriptEvv
ssf:_AttrListImpl__ctor_m3211398293
LF:__ZN13dynamic_arrayIN8Animator11AnimatorJobELj4EE9push_backERKS1_
YTc:__ZN20TextRenderingPrivate8FontImpl8TransferI18StreamedBinaryReadILb0EEEEvRT_
iig:_StringBuilder_get_Chars_m256627635
Phd:__Z46UnityWebRequest_CUSTOM_InternalSetCustomMethodP12Il2CppObjectP12Il2CppString
cHj:__ZN6il2cpp6icalls8mscorlib6System8MonoType22get_IsGenericParameterEP20Il2CppReflectionType
fy:__ZN7mecanim5human14HumanPoseClearERNS0_9HumanPoseE
NFe:_MonoIO_GetException_m957022672
Yua:__ZN18StreamedBinaryReadILb0EE19TransferSTLStyleMapINSt3__23mapIN9ShaderLab16FastPropertyNameE10ColorRGBAfNS2_4lessIS5_EENS2_9allocatorINS2_4pairIKS5_S6_EEEEEEEEvRT_17TransferMetaFlags
pQf:_X509Certificate2_GetValueAsString_m1286925493
Nei:_Mask__ctor_m1716732261
BWd:_Char_ToLower_m2719897546
pre:_Array_InternalArray__set_Item_TisHitInfo_t1761367055_m2693590376_gshared
PO:__Z105Register_UnityEngine_Animations_AnimatorControllerPlayable_INTERNAL_CALL_GetNextAnimatorStateInfoInternalv
LNe:_MonoType_IsPointerImpl_m648213545
Uye:_InvalidOperationException__ctor_m2801133788
qib:__ZN13RenderManager28AreCamerasUsingMotionVectorsEv
Mfa:__Z25InitializeLODGroupManagerPv
zDd:_CanvasScaler_SetScaleFactor_m3305903109
Wne:_Array_InternalArray__ICollection_Add_TisUriScheme_t1876590943_m3218110478_gshared
r3a:__ZNK12ImageFilters28ApplyAfterTransparentFiltersEv
hti:_AnimatorControllerPlayable_IsInTransitionInternal_m3924673941
C8a:__Z20CalculateLightMatrixRK15SharedLightDataP10Matrix4x4f
Vbd:__ZN11UnityEngine7Connect15AppRunningEvent12ToJsonStringER9JSONWrite
z7:__ZN19ShaderPropertySheet5ClearEb
mGf:_TlsServerCertificate_ProcessAsTls1_m3083203628
whf:_ReadOnlyCollection_1_System_Collections_Generic_IListU3CTU3E_set_Item_m1099846173_gshared
v7a:__ZNK6Camera11GetPositionEv
Jw:__ZN8Animator19CreatePlayableGraphEv
zuk:_emscripten_glClearDepth__wrapper
A5d:_Convert_ToSByte_m1880147062
Blb:__ZNK16MemoryFileSystem8FilenameERK13FileEntryData
ag:_glUniform1fv
eg:_JS_FileSystem_Sync
dkd:_MD5CryptoServiceProvider_HashCore_m2367253552
XLa:__ZNSt3__26__treeINS_12__value_typeI21GLESRenderTargetSetupN2gl6HandleILNS3_10ObjectTypeE9EEEEENS_19__map_value_compareIS2_S7_NS_4lessIS2_EELb1EEENS_9allocatorIS7_EEE7destroyEPNS_11__tree_nodeIS7_PvEE
hej:_X509StoreManager_get_TrustedRootCertificates_m122138510
vkj:_UnityAction_1_BeginInvoke_m530778538_gshared
h4c:_Direct_Move
cg:__emscripten_sample_gamepad_data
Z7b:__Z22DelayedDestroyCallbackP6ObjectPv
grk:_glBlendEquationSeparate__wrapper
zgd:__ZN20UnityWebRequestProtoI19TransportJavaScript16AtomicRefCounter14RedirectHelper14ResponseHelper15DownloadHandler13UploadHandler12HeaderHelper14AsyncOperationE19Job_InvokeCoroutineEPS7_
gyg:_GUISkin_GetStyle_m3594137272
EJd:_GraphicRegistry__cctor_m4197769737
eJc:__ZN15b2ContactFilter13ShouldCollideEP9b2FixtureS1_
Zba:__Z34scripting_class_get_declaring_type17ScriptingClassPtr
Qdd:__ZN11UnityEngine7Connect20BasePersistentValues13RestoreValuesER8JSONRead
H7i:_Time_get_time_m2216684562
RAf:_KeyGeneratedEventHandler_Invoke_m1298576133
ZNd:_InputField_Rebuild_m3481959062
fGb:__ZN11TimeManagerD0Ev
k3:__ZN11UnityEngine15CloudWebService18RestFileDownloader10InitializeERKN4core12basic_stringIcNS2_20StringStorageDefaultIcEEEE
qwb:__ZN9Texture2D16DeleteGfxTextureEv
Bla:__ZN20LocalFileSystemPosix4OpenER13FileEntryData14FilePermission16FileAutoBehavior
qzf:_KeyBuilder_get_Rng_m2539978716
$wi:_AudioClipPlayable_INTERNAL_CALL_ValidateType_m1977251214
vDj:__ZN15dense_hashtableINSt3__24pairIK10KeyWrapperIN6il2cpp5utils13dynamic_arrayIPK10Il2CppTypeLj4EEEEPFvvEEESA_NS3_8metadata19Il2CppSignatureHashEN14dense_hash_mapISA_SD_SG_NSA_14EqualsComparerINSF_22Il2CppSignatureCompareEEENS0_9allocatorISE_EEE9SelectKeyESK_SM_ED2Ev
l6c:__ZN2UI6Canvas12AddToManagerEv
XYc:_UNITY_tt_face_load_sbit
dec:__Z37GetTransformFromComponentOrGameObjectP6Object
x2h:_ShimEnumerator_get_Current_m2516732679_gshared
N1c:_cf2_hint_isTop
pgb:__ZN23ManagedAttributeManager21GetRequiredComponentsE17ScriptingClassPtr
DHa:__ZN9GfxDevice18GetNumGraphicsJobsEj
ijb:__Z23InitializeStdConvertersv
h9e:_Collection_1_Contains_m3292349561_gshared
dLd:_Image_SetNativeSize_m3580044470
E8a:__ZN19ShaderPropertySheet17UpdateTextureInfoEiRK23FastTexturePropertyNamePK10TextureRef
r7i:_TextGenerator_get_lines_m916366224
c0c:_ps_unicodes_init
m$a:__ZZ23InitPlayerLoopCallbacksvEN38PreUpdateCheckTexFieldInputRegistrator7ForwardEv
t_j:__ZNK10KeyWrapperINSt3__24pairIPKcS3_EEE14EqualsComparerI26NamespaceAndNamePairEqualsEclERKS5_SA_
Tbe:_StackTrace__ctor_m772333217
Xrd:_Single_System_IConvertible_ToSingle_m2540530435
Puf:_X509CertificateEnumerator__ctor_m1500464146
bBg:_Input_GetKeyDownInt_m2930607648
gog:_Type_get_IsPointer_m3832342327
ls:__ZN14SafeBinaryRead21TransferSTLStyleArrayINSt3__26vectorIN13AnimationClip9PPtrCurveE13stl_allocatorIS4_L18MemLabelIdentifier25ELi16EEEEEEvRT_17TransferMetaFlags
f8h:_Dictionary_2_System_Collections_ICollection_CopyTo_m2784181332_gshared
QN:__Z43Register_UnityEngine_Animator_SetBoolStringv
nh:_JS_WebRequest_GetResponseHeaders
Wkb:__ZNSt3__26__treeINS_12__value_typeI26SerializedObjectIdentifieriEENS_19__map_value_compareIS2_S3_NS_4lessIS2_EELb1EEENS_9allocatorIS3_EEE7destroyEPNS_11__tree_nodeIS3_PvEE
vYc:_UNITY_FT_Create_Class_tt_cmap_classes
RMj:__ZN15dense_hashtableINSt3__24pairIK10KeyWrapperINS1_IPK14Il2CppAssemblyP11Il2CppClassEEEjEES9_17ReflectionMapHashIS8_EN14dense_hash_mapIS9_jSD_NS9_14EqualsComparerINS0_8equal_toIS8_EEEENS0_9allocatorISB_EEE9SelectKeyESI_SK_EC2ERKSN_j
gjc:__ZN9Scripting18RaiseNullExceptionEPKcz
Ehf:_ReadOnlyCollection_1_System_Collections_IList_Insert_m2659121605_gshared
Dia:__ZN13RuntimeStaticI13RendererSceneLb0EE16StaticInitializeEPv
eNg:__Z46RuntimeInvoker_RuntimeObject_Int32_t2071877448PFvvEPK10MethodInfoPvPS4_
wgi:_RawImage_SetNativeSize_m672994452
yh:_glCreateProgram
$Qj:__ZN6il2cpp2vm10Reflection7IsFieldEP12Il2CppObject
ipe:_Array_InternalArray__ICollection_CopyTo_TisContentType_t1028629049_m330597634_gshared
IYd:_SimpleEnumerator_Reset_m3524591211
F9i:_Vector2_op_Addition_m1389598521
arg:_UInt32_ToString_m554020223_AdjustorThunk
hqb:__ZN24GenerateTypeTreeTransfer32TransferSTLStyleArrayWithElementI17SortingLayerEntryEEvRT_17TransferMetaFlags
$pk:_glUniformMatrix3fv__wrapper
GVb:__Z18Transfer_BlittableI18StreamedBinaryReadILb1EELb1E12PropertyNameEvRK29SerializationCommandArgumentsR31RuntimeSerializationCommandInfo
ord:_SecurityFrame__ctor_m3738328608_AdjustorThunk
WRj:__ZN15dense_hashtableINSt3__24pairIK10KeyWrapperIPK22Il2CppGenericParameterEPK24MonoGenericParameterInfoEES6_N6il2cpp5utils11PointerHashIS4_EEN14dense_hash_mapIS6_SA_SF_NS6_14EqualsComparerINS0_8equal_toIS5_EEEENS0_9allocatorISB_EEE9SelectKeyESK_SM_EC2ERKSP_j
l7:__ZN23TransformChangeDispatch12CleanupClassEPv
Khc:__ZN8UserList11SendMessageERK17MessageIdentifier
Rad:__Z33Canvas_Get_Custom_PropScaleFactorP12Il2CppObject
iG:__ZNK26AnimatorControllerPlayable21GetStateMachineMemoryEi
